(lp1
(isaltybot
Fighter
p2
(dp3
S'streak'
p4
I0
sS'string'
p5
S'Strider H (-1) - $123,645\r\n'
p6
sS'wins'
p7
I0
sS'loses'
p8
I2
sS'bet_ratio'
p9
F-4.2767741336615615
sS'tier'
p10
S'B'
sS'wlRatio'
p11
F0
sS'name'
p12
S'Strider H'
p13
sba(isaltybot
Fighter
p14
(dp15
g4
I0
sg5
S'Raiden (-1) - $123,725\r\n'
p16
sg7
I1
sg8
I0
sg9
F1.3610212747233406
sg10
S'B'
sg11
F0
sg12
S'Raiden'
p17
sba(isaltybot
Fighter
p18
(dp19
g4
I0
sg5
S'Sanae_x (1) - $155,920'
p20
sg7
I1
sg8
I0
sg9
F-2.6421241662390971
sg10
S'S'
sg11
F0
sg12
S'Sanae_x'
p21
sba(isaltybot
Fighter
p22
(dp23
g4
I0
sg5
S'Shrek (2) - $411,960\r\n'
p24
sg7
I0
sg8
I1
sg9
F2.6421241662390971
sg10
S'S'
sg11
F0
sg12
S'Shrek'
p25
sba(isaltybot
Fighter
p26
(dp27
g4
I0
sg5
S'Maxima ex (-1) - $73,690'
p28
sg7
I1
sg8
I0
sg9
F-2.2478490975709051
sg10
S'B'
sg11
F0
sg12
S'Maxima ex'
p29
sba(isaltybot
Fighter
p30
(dp31
g4
I0
sg5
S'Hoimislime (-2) - $514,347'
p32
sg7
I1
sg8
I1
sg9
F4.1029522107259586
sg10
S'B'
sg11
F0
sg12
S'Hoimislime'
p33
sba(isaltybot
Fighter
p34
(dp35
g4
I0
sg5
S'A-green (2) - $193,264'
p36
sg7
I2
sg8
I0
sg9
F2.5032823377813123
sg10
S'B'
sg11
F0
sg12
S'A-green'
p37
sba(isaltybot
Fighter
p38
(dp39
g4
I0
sg5
S'Simon belmont (-9) - $103,397\r\n'
p40
sg7
I0
sg8
I1
sg9
F-3.5416888304302834
sg10
S'B'
sg11
F0
sg12
S'Simon belmont'
p41
sba(isaltybot
Fighter
p42
(dp43
g4
I0
sg5
S'Bao (1) - $112,228'
p44
sg7
I0
sg8
I1
sg9
F-5.3614695085005524
sg10
S'S'
sg11
F0
sg12
S'Bao'
p45
sba(isaltybot
Fighter
p46
(dp47
g4
I0
sg5
S'Hana akuma (2) - $929,388'
p48
sg7
I2
sg8
I0
sg9
F5.4484673522121216
sg10
S'S'
sg11
F0
sg12
S'Hana akuma'
p49
sba(isaltybot
Fighter
p50
(dp51
g4
I0
sg5
S'Omega red mvc2 (-1) - $2,907,815'
p52
sg7
I1
sg8
I0
sg9
F44.114617310172193
sg10
S'S'
sg11
F0
sg12
S'Omega red mvc2'
p53
sba(isaltybot
Fighter
p54
(dp55
g4
I0
sg5
S'Rutee (1) - $65,915\r\n'
p56
sg7
I0
sg8
I1
sg9
F-44.114617310172193
sg10
S'S'
sg11
F0
sg12
S'Rutee'
p57
sba(isaltybot
Fighter
p58
(dp59
g4
I0
sg5
S'Hol horse EX (3) - $237,234\r\n'
p60
sg7
I1
sg8
I1
sg9
F1.2803049372767674
sg10
S'A'
sg11
F0
sg12
S'Hol horse EX'
p61
sba(isaltybot
Fighter
p62
(dp63
g4
I0
sg5
S'Iyo (3) - $127,153\r\n'
p64
sg7
I0
sg8
I1
sg9
F-1.496999677553813
sg10
S'A'
sg11
F0
sg12
S'Iyo'
p65
sba(isaltybot
Fighter
p66
(dp67
g4
I0
sg5
S'Koiboshi (-4) - $63,891'
p68
sg7
I0
sg8
I1
sg9
F-6.7297584949366893
sg10
S'X'
sg11
F0
sg12
S'Koiboshi'
p69
sba(isaltybot
Fighter
p70
(dp71
g4
I0
sg5
S'Kfmsp (27) - $429,971\r\n'
p72
sg7
I1
sg8
I0
sg9
F6.7297584949366893
sg10
S'X'
sg11
F0
sg12
S'Kfmsp'
p73
sba(isaltybot
Fighter
p74
(dp75
g4
I0
sg5
S'Labyrinth (1) - $559,357'
p76
sg7
I1
sg8
I0
sg9
F3.0976951022306891
sg10
S'S'
sg11
F0
sg12
S'Labyrinth'
p77
sba(isaltybot
Fighter
p78
(dp79
g4
I0
sg5
S'Azami (-6) - $176,504'
p80
sg7
I1
sg8
I1
sg9
F-2.2988532167093254
sg10
S'S'
sg11
F0
sg12
S'Azami'
p81
sba(isaltybot
Fighter
p82
(dp83
g4
I0
sg5
S'Yukari_swr (-1) - $1,077,648\r\n'
p84
sg7
I0
sg8
I1
sg9
F-1.9918906883539973
sg10
S'A'
sg11
F0
sg12
S'Yukari_swr'
p85
sba(isaltybot
Fighter
p86
(dp87
g4
I0
sg5
S'Guardian (2) - $115,716\r\n'
p88
sg7
I2
sg8
I0
sg9
F1.5912963829389222
sg10
S'A'
sg11
F0
sg12
S'Guardian'
p89
sba(isaltybot
Fighter
p90
(dp91
g4
I0
sg5
S'Yumina (9) - $698,772'
p92
sg7
I1
sg8
I0
sg9
F10.225083773540732
sg10
S'A'
sg11
F0
sg12
S'Yumina'
p93
sba(isaltybot
Fighter
p94
(dp95
g4
I0
sg5
S'Lex luthor (1) - $68,339\r\n'
p96
sg7
I0
sg8
I1
sg9
F-10.225083773540732
sg10
S'A'
sg11
F0
sg12
S'Lex luthor'
p97
sba(isaltybot
Fighter
p98
(dp99
g4
I0
sg5
S'Shazzer EX3 (-6) - $30,319'
p100
sg7
I0
sg8
I1
sg9
F-13.376430621062699
sg10
S'A'
sg11
F0
sg12
S'Shazzer EX3'
p101
sba(isaltybot
Fighter
p102
(dp103
g4
I0
sg5
S'Boon (6) - $405,560\r\n'
p104
sg7
I1
sg8
I0
sg9
F13.376430621062699
sg10
S'A'
sg11
F0
sg12
S'Boon'
p105
sba(isaltybot
Fighter
p106
(dp107
g4
I0
sg5
S'Chichi EX3 (1) - $74,046'
p108
sg7
I1
sg8
I0
sg9
F-4.6884234124733277
sg10
S'B'
sg11
F0
sg12
S'Chichi EX3'
p109
sba(isaltybot
Fighter
p110
(dp111
g4
I0
sg5
S'Sylphie (5) - $347,159\r\n'
p112
sg7
I0
sg8
I1
sg9
F4.6884234124733277
sg10
S'B'
sg11
F0
sg12
S'Sylphie'
p113
sba(isaltybot
Fighter
p114
(dp115
g4
I0
sg5
S'Cless-f (-1) - $98,140'
p116
sg7
I0
sg8
I0
sg9
F-1.224037089871612
sg10
S'A'
sg11
F0
sg12
S'Cless-f'
p117
sba(isaltybot
Fighter
p118
(dp119
g4
I0
sg5
S'Heavyarms (1) - $120,127\r\n'
p120
sg7
I0
sg8
I0
sg9
F1.224037089871612
sg10
S'A'
sg11
F0
sg12
S'Heavyarms'
p121
sba(isaltybot
Fighter
p122
(dp123
g4
I0
sg5
S'Layban (1) - $381,827'
p124
sg7
I1
sg8
I0
sg9
F3.9217251083584972
sg10
S'A'
sg11
F0
sg12
S'Layban'
p125
sba(isaltybot
Fighter
p126
(dp127
g4
I0
sg5
S'Donald (-2) - $71,614'
p128
sg7
I0
sg8
I2
sg9
F-4.7500727644733249
sg10
S'A'
sg11
F0
sg12
S'Donald'
p129
sba(isaltybot
Fighter
p130
(dp131
g4
I0
sg5
S'Gameboy (1) - $204,672'
p132
sg7
I0
sg8
I1
sg9
F-3.1399360928705442
sg10
S'S'
sg11
F0
sg12
S'Gameboy'
p133
sba(isaltybot
Fighter
p134
(dp135
g4
I0
sg5
S'Dracula (2) - $642,657\r\n'
p136
sg7
I1
sg8
I0
sg9
F3.1399360928705442
sg10
S'S'
sg11
F0
sg12
S'Dracula'
p137
sba(isaltybot
Fighter
p138
(dp139
g4
I0
sg5
S'Miranda (-1) - $377,706\r\n'
p140
sg7
I1
sg8
I1
sg9
F0.32406169021074366
sg10
S'A'
sg11
F0
sg12
S'Miranda'
p141
sba(isaltybot
Fighter
p142
(dp143
g4
I0
sg5
S'Asutorea EX3 (6) - $147,243\r\n'
p144
sg7
I1
sg8
I0
sg9
F-2.0597108181713222
sg10
S'A'
sg11
F0
sg12
S'Asutorea EX3'
p145
sba(isaltybot
Fighter
p146
(dp147
g4
I0
sg5
S'Zatanna EX3 (1) - $266,763'
p148
sg7
I1
sg8
I0
sg9
F2.414363290795547
sg10
S'B'
sg11
F0
sg12
S'Zatanna EX3'
p149
sba(isaltybot
Fighter
p150
(dp151
g4
I0
sg5
S'Chang (1) - $110,490\r\n'
p152
sg7
I0
sg8
I1
sg9
F-2.414363290795547
sg10
S'B'
sg11
F0
sg12
S'Chang'
p153
sba(isaltybot
Fighter
p154
(dp155
g4
I0
sg5
S'Mageko EX (-1) - $689,072'
p156
sg7
I1
sg8
I0
sg9
F19.400095723415635
sg10
S'S'
sg11
F0
sg12
S'Mageko EX'
p157
sba(isaltybot
Fighter
p158
(dp159
g4
I0
sg5
S'Saki tsuzura (-6) - $35,519\r\n'
p160
sg7
I0
sg8
I1
sg9
F-19.400095723415635
sg10
S'S'
sg11
F0
sg12
S'Saki tsuzura'
p161
sba(isaltybot
Fighter
p162
(dp163
g4
I0
sg5
S'Dream v (1) - $39,185'
p164
sg7
I1
sg8
I0
sg9
F-8.626974607630471
sg10
S'B'
sg11
F0
sg12
S'Dream v'
p165
sba(isaltybot
Fighter
p166
(dp167
g4
I0
sg5
S'Han baedal (8) - $338,048\r\n'
p168
sg7
I0
sg8
I1
sg9
F8.626974607630471
sg10
S'B'
sg11
F0
sg12
S'Han baedal'
p169
sba(isaltybot
Fighter
p170
(dp171
g4
I0
sg5
S'Gengetu EX (2) - $277,441'
p172
sg7
I1
sg8
I0
sg9
F2.0423500485851416
sg10
S'B'
sg11
F0
sg12
S'Gengetu EX'
p173
sba(isaltybot
Fighter
p174
(dp175
g4
I0
sg5
S'Pocket Morrigan (1) - $135,844\r\n'
p176
sg7
I0
sg8
I1
sg9
F-2.0423500485851416
sg10
S'B'
sg11
F0
sg12
S'Pocket Morrigan'
p177
sba(isaltybot
Fighter
p178
(dp179
g4
I0
sg5
S'Ryo(mkii) (-6) - $321,805'
p180
sg7
I1
sg8
I0
sg9
F4.3199940933254579
sg10
S'S'
sg11
F0
sg12
S'Ryo(mkii)'
p181
sba(isaltybot
Fighter
p182
(dp183
g4
I0
sg5
S'Yoshitora (-1) - $74,492\r\n'
p184
sg7
I0
sg8
I1
sg9
F-4.3199940933254579
sg10
S'S'
sg11
F0
sg12
S'Yoshitora'
p185
sba(isaltybot
Fighter
p186
(dp187
g4
I0
sg5
S'Ogre akuma (-3) - $96,051'
p188
sg7
I0
sg8
I1
sg9
F-2.0317851974471894
sg10
S'S'
sg11
F0
sg12
S'Ogre akuma'
p189
sba(isaltybot
Fighter
p190
(dp191
g4
I0
sg5
S'Kyoudou senna (-1) - $195,155\r\n'
p192
sg7
I1
sg8
I0
sg9
F2.0317851974471894
sg10
S'S'
sg11
F0
sg12
S'Kyoudou senna'
p193
sba(isaltybot
Fighter
p194
(dp195
g4
I0
sg5
S'Ryu hell (8) - $185,737'
p196
sg7
I0
sg8
I1
sg9
F3.1407386113835436
sg10
S'B'
sg11
F0
sg12
S'Ryu hell'
p197
sba(isaltybot
Fighter
p198
(dp199
g4
I0
sg5
S'Mr. game & watch plus (4) - $59,138\r\n'
p200
sg7
I1
sg8
I0
sg9
F-3.1407386113835436
sg10
S'B'
sg11
F0
sg12
S'Mr. game & watch plus'
p201
sba(isaltybot
Fighter
p202
(dp203
g4
I0
sg5
S'Puss in boots (1) - $406,545'
p204
sg7
I1
sg8
I0
sg9
F5.2996962625959769
sg10
S'A'
sg11
F0
sg12
S'Puss in boots'
p205
sba(isaltybot
Fighter
p206
(dp207
g4
I0
sg5
S'Jubei (-5) - $76,711\r\n'
p208
sg7
I0
sg8
I1
sg9
F-5.2996962625959769
sg10
S'A'
sg11
F0
sg12
S'Jubei'
p209
sba(isaltybot
Fighter
p210
(dp211
g4
I0
sg5
S'Demonica (-5) - $175,283'
p212
sg7
I1
sg8
I0
sg9
F2.1435052706239146
sg10
S'A'
sg11
F0
sg12
S'Demonica'
p213
sba(isaltybot
Fighter
p214
(dp215
g4
I0
sg5
S'Ryu CVS (-9) - $81,774\r\n'
p216
sg7
I0
sg8
I1
sg9
F-2.1435052706239146
sg10
S'A'
sg11
F0
sg12
S'Ryu CVS'
p217
sba(isaltybot
Fighter
p218
(dp219
g4
I0
sg5
S'Ex snow (-2) - $429,877\r\n'
p220
sg7
I1
sg8
I1
sg9
F0.56701123192199776
sg10
S'B'
sg11
F0
sg12
S'Ex snow'
p221
sba(isaltybot
Fighter
p222
(dp223
g4
I0
sg5
S'The batman (-1) - $95,809\r\n'
p224
sg7
I1
sg8
I0
sg9
F1.2886387174003686
sg10
S'B'
sg11
F0
sg12
S'The batman'
p225
sba(isaltybot
Fighter
p226
(dp227
g4
I0
sg5
S'Order-sol (-1) - $112,569'
p228
sg7
I0
sg8
I1
sg9
F-5.525437731524665
sg10
S'S'
sg11
F0
sg12
S'Order-sol'
p229
sba(isaltybot
Fighter
p230
(dp231
g4
I0
sg5
S'Colossus mvc2 ex (5) - $621,993\r\n'
p232
sg7
I1
sg8
I0
sg9
F5.525437731524665
sg10
S'S'
sg11
F0
sg12
S'Colossus mvc2 ex'
p233
sba(isaltybot
Fighter
p234
(dp235
g4
I0
sg5
S'Shizuka (1) - $39,576'
p236
sg7
I0
sg8
I1
sg9
F-7.1646705073782089
sg10
S'A'
sg11
F0
sg12
S'Shizuka'
p237
sba(isaltybot
Fighter
p238
(dp239
g4
I0
sg5
S'Arima_meirin (-3) - $283,549\r\n'
p240
sg7
I1
sg8
I0
sg9
F7.1646705073782089
sg10
S'A'
sg11
F0
sg12
S'Arima_meirin'
p241
sba(isaltybot
Fighter
p242
(dp243
g4
I0
sg5
S'Giron (-2) - $155,591'
p244
sg7
I0
sg8
I1
sg9
F1.8629636725017362
sg10
S'X'
sg11
F0
sg12
S'Giron'
p245
sba(isaltybot
Fighter
p246
(dp247
g4
I0
sg5
S'Devil seaman (-2) - $83,518\r\n'
p248
sg7
I1
sg8
I0
sg9
F-1.8629636725017362
sg10
S'X'
sg11
F0
sg12
S'Devil seaman'
p249
sba(isaltybot
Fighter
p250
(dp251
g4
I0
sg5
S'Blues hablam (-7) - $145,555'
p252
sg7
I1
sg8
I0
sg9
F1.6947267921804232
sg10
S'A'
sg11
F0
sg12
S'Blues hablam'
p253
sba(isaltybot
Fighter
p254
(dp255
g4
I0
sg5
S'Tiki (-4) - $85,887\r\n'
p256
sg7
I0
sg8
I1
sg9
F-1.6947267921804232
sg10
S'A'
sg11
F0
sg12
S'Tiki'
p257
sba(isaltybot
Fighter
p258
(dp259
g4
I0
sg5
S'Cv wakamoto (-2) - $128,539'
p260
sg7
I0
sg8
I1
sg9
F-1.1376858385392761
sg10
S'B'
sg11
F0
sg12
S'Cv wakamoto'
p261
sba(isaltybot
Fighter
p262
(dp263
g4
I0
sg5
S'Galvatron (1) - $146,237\r\n'
p264
sg7
I1
sg8
I0
sg9
F1.1376858385392761
sg10
S'B'
sg11
F0
sg12
S'Galvatron'
p265
sba(isaltybot
Fighter
p266
(dp267
g4
I0
sg5
S'Mike EX2 (-2) - $231,563'
p268
sg7
I1
sg8
I0
sg9
F3.5460865836664062
sg10
S'A'
sg11
F0
sg12
S'Mike EX2'
p269
sba(isaltybot
Fighter
p270
(dp271
g4
I0
sg5
S'Shikyoh (1) - $65,301\r\n'
p272
sg7
I0
sg8
I1
sg9
F-3.5460865836664062
sg10
S'A'
sg11
F0
sg12
S'Shikyoh'
p273
sba(isaltybot
Fighter
p274
(dp275
g4
I0
sg5
S'Mamizou EX (-1) - $285,696'
p276
sg7
I1
sg8
I0
sg9
F1.7603282870293351
sg10
S'B'
sg11
F0
sg12
S'Mamizou EX'
p277
sba(isaltybot
Fighter
p278
(dp279
g4
I0
sg5
S'God-gundam (-5) - $162,297\r\n'
p280
sg7
I0
sg8
I1
sg9
F-1.7603282870293351
sg10
S'B'
sg11
F0
sg12
S'God-gundam'
p281
sba(isaltybot
Fighter
p282
(dp283
g4
I0
sg5
S'Jagi bike (-5) - $682,532'
p284
sg7
I1
sg8
I1
sg9
F0.45231570657026277
sg10
S'S'
sg11
F0
sg12
S'Jagi bike'
p285
sba(isaltybot
Fighter
p286
(dp287
g4
I0
sg5
S'Ossan (-2) - $148,990\r\n'
p288
sg7
I1
sg8
I0
sg9
F1.2112023412730673
sg10
S'S'
sg11
F0
sg12
S'Ossan'
p289
sba(isaltybot
Fighter
p290
(dp291
g4
I0
sg5
S'Armor Guts (3) - $1,198,486'
p292
sg7
I1
sg8
I0
sg9
F27.731176824471284
sg10
S'B'
sg11
F0
sg12
S'Armor Guts'
p293
sba(isaltybot
Fighter
p294
(dp295
g4
I0
sg5
S'Righteous ken (-1) - $43,218\r\n'
p296
sg7
I0
sg8
I1
sg9
F-27.731176824471284
sg10
S'B'
sg11
F0
sg12
S'Righteous ken'
p297
sba(isaltybot
Fighter
p298
(dp299
g4
I0
sg5
S'Kaigen (2) - $104,468'
p300
sg7
I0
sg8
I1
sg9
F-2.035293104108435
sg10
S'B'
sg11
F0
sg12
S'Kaigen'
p301
sba(isaltybot
Fighter
p302
(dp303
g4
I0
sg5
S'Sauri (2) - $212,623\r\n'
p304
sg7
I1
sg8
I0
sg9
F2.035293104108435
sg10
S'B'
sg11
F0
sg12
S'Sauri'
p305
sba(isaltybot
Fighter
p306
(dp307
g4
I0
sg5
S'Gill hero (1) - $69,275'
p308
sg7
I0
sg8
I1
sg9
F-1.8514182605557561
sg10
S'A'
sg11
F0
sg12
S'Gill hero'
p309
sba(isaltybot
Fighter
p310
(dp311
g4
I0
sg5
S'Ultron (-2) - $128,257\r\n'
p312
sg7
I1
sg8
I0
sg9
F1.8514182605557561
sg10
S'A'
sg11
F0
sg12
S'Ultron'
p313
sba(isaltybot
Fighter
p314
(dp315
g4
I0
sg5
S'Miles edgeworth (-1) - $100,652'
p316
sg7
I0
sg8
I1
sg9
F-1.7668600723284187
sg10
S'A'
sg11
F0
sg12
S'Miles edgeworth'
p317
sba(isaltybot
Fighter
p318
(dp319
g4
I0
sg5
S'Natalia glinka (-1) - $183,785\r\n'
p320
sg7
I1
sg8
I1
sg9
F-0.46440030907615304
sg10
S'A'
sg11
F0
sg12
S'Natalia glinka'
p321
sba(isaltybot
Fighter
p322
(dp323
g4
I0
sg5
S'Sailor mercury k (-1) - $102,780'
p324
sg7
I0
sg8
I1
sg9
F-1.9663455925277291
sg10
S'A'
sg11
F0
sg12
S'Sailor mercury k'
p325
sba(isaltybot
Fighter
p326
(dp327
g4
I0
sg5
S'Alex sf3 (-1) - $202,101\r\n'
p328
sg7
I1
sg8
I0
sg9
F1.9663455925277291
sg10
S'A'
sg11
F0
sg12
S'Alex sf3'
p329
sba(isaltybot
Fighter
p330
(dp331
g4
I0
sg5
S'Cc medusa (-3) - $40,354'
p332
sg7
I0
sg8
I1
sg9
F-7.9297467413391489
sg10
S'A'
sg11
F0
sg12
S'Cc medusa'
p333
sba(isaltybot
Fighter
p334
(dp335
g4
I0
sg5
S'R.jackal (3) - $319,997\r\n'
p336
sg7
I1
sg8
I0
sg9
F7.9297467413391489
sg10
S'A'
sg11
F0
sg12
S'R.jackal'
p337
sba(isaltybot
Fighter
p338
(dp339
g4
I0
sg5
S'C-stm-00x- $251,818'
p340
sg7
I0
sg8
I1
sg9
F-2.9381974283013923
sg10
S'X'
sg11
F0
sg12
S'C-stm-00x'
p341
sba(isaltybot
Fighter
p342
(dp343
g4
I0
sg5
S'S-tomy- $8,276,139\r\n'
p344
sg7
I0
sg8
I0
sg9
F35.32509123503425
sg10
S'X'
sg11
F0
sg12
S'S-tomy'
p345
sba(isaltybot
Fighter
p346
(dp347
g4
I0
sg5
S'Marie EX (1) - $850,110'
p348
sg7
I1
sg8
I0
sg9
F1.9538536500158585
sg10
S'B'
sg11
F0
sg12
S'Marie EX'
p349
sba(isaltybot
Fighter
p350
(dp351
g4
I0
sg5
S'Asuta-san (-2) - $217,547\r\n'
p352
sg7
I0
sg8
I1
sg9
F-1.9538536500158585
sg10
S'B'
sg11
F0
sg12
S'Asuta-san'
p353
sba(isaltybot
Fighter
p354
(dp355
g4
I0
sg5
S'Killerbee (-5) - $410,765'
p356
sg7
I0
sg8
I1
sg9
F0.54376287376954557
sg10
S'A'
sg11
F0
sg12
S'Killerbee'
p357
sba(isaltybot
Fighter
p358
(dp359
g4
I0
sg5
S'Rigby (-1) - $128,043'
p360
sg7
I0
sg8
I1
sg9
F-4.6882922143342469
sg10
S'B'
sg11
F0
sg12
S'Rigby'
p361
sba(isaltybot
Fighter
p362
(dp363
g4
I0
sg5
S'Cathey (-2) - $600,303\r\n'
p364
sg7
I1
sg8
I0
sg9
F4.6882922143342469
sg10
S'B'
sg11
F0
sg12
S'Cathey'
p365
sba(isaltybot
Fighter
p366
(dp367
g4
I0
sg5
S'Superbot (-2) - $188,186'
p368
sg7
I1
sg8
I0
sg9
F-1.5663864474509261
sg10
S'B'
sg11
F0
sg12
S'Superbot'
p369
sba(isaltybot
Fighter
p370
(dp371
g4
I0
sg5
S'Tane (-1) - $294,772\r\n'
p372
sg7
I0
sg8
I1
sg9
F1.5663864474509261
sg10
S'B'
sg11
F0
sg12
S'Tane'
p373
sba(isaltybot
Fighter
p374
(dp375
g4
I0
sg5
S'Andy (-2) - $756,415'
p376
sg7
I1
sg8
I0
sg9
F3.6390599441932068
sg10
S'B'
sg11
F0
sg12
S'Andy'
p377
sba(isaltybot
Fighter
p378
(dp379
g4
I0
sg5
S'Finn and jake (-7) - $207,860\r\n'
p380
sg7
I0
sg8
I1
sg9
F-3.6390599441932068
sg10
S'B'
sg11
F0
sg12
S'Finn and jake'
p381
sba(isaltybot
Fighter
p382
(dp383
g4
I0
sg5
S'Flea (5) - $44,252,673'
p384
sg7
I1
sg8
I0
sg9
F346.79147532247703
sg10
S'X'
sg11
F0
sg12
S'Flea'
p385
sba(isaltybot
Fighter
p386
(dp387
g4
I0
sg5
S'Goliath doll (1) - $127,606\r\n'
p388
sg7
I0
sg8
I1
sg9
F-346.79147532247703
sg10
S'X'
sg11
F0
sg12
S'Goliath doll'
p389
sba(isaltybot
Fighter
p390
(dp391
g4
I0
sg5
S'Vice CVS (-1) - $183,571'
p392
sg7
I0
sg8
I0
sg9
F-3.2661313606179627
sg10
S'B'
sg11
F0
sg12
S'Vice CVS'
p393
sba(isaltybot
Fighter
p394
(dp395
g4
I0
sg5
S'Koishi_b (-2) - $599,567\r\n'
p396
sg7
I0
sg8
I0
sg9
F3.2661313606179627
sg10
S'B'
sg11
F0
sg12
S'Koishi_b'
p397
sba(isaltybot
Fighter
p398
(dp399
g4
I0
sg5
S'Solitary-zero (-2) - $4,964,058'
p400
sg7
I0
sg8
I1
sg9
F39.811515049443017
sg10
S'X'
sg11
F0
sg12
S'Solitary-zero'
p401
sba(isaltybot
Fighter
p402
(dp403
g4
I0
sg5
S'E nagamori (-9) - $124,689\r\n'
p404
sg7
I1
sg8
I0
sg9
F-39.811515049443017
sg10
S'X'
sg11
F0
sg12
S'E nagamori'
p405
sba(isaltybot
Fighter
p406
(dp407
g4
I0
sg5
S'Lacerta Misty (-1) - $130,464'
p408
sg7
I0
sg8
I1
sg9
F-7.0449319352465052
sg10
S'B'
sg11
F0
sg12
S'Lacerta Misty'
p409
sba(isaltybot
Fighter
p410
(dp411
g4
I0
sg5
S'Catwoman EX (-1) - $919,110\r\n'
p412
sg7
I1
sg8
I0
sg9
F7.0449319352465052
sg10
S'B'
sg11
F0
sg12
S'Catwoman EX'
p413
sba(isaltybot
Fighter
p414
(dp415
g4
I0
sg5
S'Joe higashi EX3 (1) - $941,729'
p416
sg7
I1
sg8
I0
sg9
F1.7678445050582037
sg10
S'A'
sg11
F0
sg12
S'Joe higashi EX3'
p417
sba(isaltybot
Fighter
p418
(dp419
g4
I0
sg5
S'Akatsuki (-3) - $532,699\r\n'
p420
sg7
I0
sg8
I1
sg9
F-1.7678445050582037
sg10
S'A'
sg11
F0
sg12
S'Akatsuki'
p421
sba(isaltybot
Fighter
p422
(dp423
g4
I0
sg5
S'Grand superior ultimate man (-2) - $471,814'
p424
sg7
I0
sg8
I1
sg9
F-12.702168651205772
sg10
S'X'
sg11
F0
sg12
S'Grand superior ultimate man'
p425
sba(isaltybot
Fighter
p426
(dp427
g4
I0
sg5
S'Psyqhical (-3) - $5,993,061\r\n'
p428
sg7
I1
sg8
I0
sg9
F12.702168651205772
sg10
S'X'
sg11
F0
sg12
S'Psyqhical'
p429
sba(isaltybot
Fighter
p430
(dp431
g4
I0
sg5
S'Chadha (3) - $331,659\r\n'
p432
sg7
I3
sg8
I1
sg9
F0.13318076246605592
sg10
S'S'
sg11
F0
sg12
S'Chadha'
p433
sba(isaltybot
Fighter
p434
(dp435
g4
I0
sg5
S'Big volfogg (-2) - $189,774\r\n'
p436
sg7
I0
sg8
I1
sg9
F-1.7152665802480846
sg10
S'S'
sg11
F0
sg12
S'Big volfogg'
p437
sba(isaltybot
Fighter
p438
(dp439
g4
I0
sg5
S'Byakuya kuchiki (2) - $125,635\r\n'
p440
sg7
I1
sg8
I1
sg9
F-4.4118302340752704
sg10
S'B'
sg11
F0
sg12
S'Byakuya kuchiki'
p441
sba(isaltybot
Fighter
p442
(dp443
g4
I0
sg5
S'Kszsk-shuko (-4) - $204,918\r\n'
p444
sg7
I0
sg8
I1
sg9
F-4.8100801296128211
sg10
S'B'
sg11
F0
sg12
S'Kszsk-shuko'
p445
sba(isaltybot
Fighter
p446
(dp447
g4
I0
sg5
S'Gardevoir EX3 (-1) - $2,508,744'
p448
sg7
I0
sg8
I1
sg9
F8.6181518378564075
sg10
S'A'
sg11
F0
sg12
S'Gardevoir EX3'
p449
sba(isaltybot
Fighter
p450
(dp451
g4
I0
sg5
S'Lf2 - dennis (-1) - $291,100\r\n'
p452
sg7
I1
sg8
I0
sg9
F-8.6181518378564075
sg10
S'A'
sg11
F0
sg12
S'Lf2 - dennis'
p453
sba(isaltybot
Fighter
p454
(dp455
g4
I0
sg5
S'Iris (9) - $816,795'
p456
sg7
I1
sg8
I0
sg9
F1.5796451191800029
sg10
S'X'
sg11
F0
sg12
S'Iris'
p457
sba(isaltybot
Fighter
p458
(dp459
g4
I0
sg5
S'Trap master makoto (-3) - $517,075\r\n'
p460
sg7
I0
sg8
I1
sg9
F-1.5796451191800029
sg10
S'X'
sg11
F0
sg12
S'Trap master makoto'
p461
sba(isaltybot
Fighter
p462
(dp463
g4
I0
sg5
S'S.o.g (-1) - $260,964'
p464
sg7
I0
sg8
I0
sg9
F-3.0403772167808585
sg10
S'S'
sg11
F0
sg12
S'S.o.g'
p465
sba(isaltybot
Fighter
p466
(dp467
g4
I0
sg5
S'Mike tyson (3) - $793,429\r\n'
p468
sg7
I0
sg8
I0
sg9
F3.0403772167808585
sg10
S'S'
sg11
F0
sg12
S'Mike tyson'
p469
sba(isaltybot
Fighter
p470
(dp471
g4
I0
sg5
S'Sailor mars EX (-2) - $344,544'
p472
sg7
I0
sg8
I1
sg9
F-1.92377751462803
sg10
S'B'
sg11
F0
sg12
S'Sailor mars EX'
p473
sba(isaltybot
Fighter
p474
(dp475
g4
I0
sg5
S'Guy CVS (-2) - $662,826\r\n'
p476
sg7
I1
sg8
I0
sg9
F1.92377751462803
sg10
S'B'
sg11
F0
sg12
S'Guy CVS'
p477
sba(isaltybot
Fighter
p478
(dp479
g4
I0
sg5
S'Wangchang EX (-6) - $141,786'
p480
sg7
I1
sg8
I1
sg9
F-26.781183284770183
sg10
S'S'
sg11
F0
sg12
S'Wangchang EX'
p481
sba(isaltybot
Fighter
p482
(dp483
g4
I0
sg5
S'Captainamerica EX3 (2) - $5,518,029\r\n'
p484
sg7
I1
sg8
I0
sg9
F50.112420876735719
sg10
S'S'
sg11
F0
sg12
S'Captainamerica EX3'
p485
sba(isaltybot
Fighter
p486
(dp487
g4
I0
sg5
S'Ryuhi SD (-3) - $478,037'
p488
sg7
I0
sg8
I1
sg9
F1.5139682851360725
sg10
S'S'
sg11
F0
sg12
S'Ryuhi SD'
p489
sba(isaltybot
Fighter
p490
(dp491
g4
I0
sg5
S'Asagi asagiri (-2) - $315,751\r\n'
p492
sg7
I1
sg8
I0
sg9
F-1.5139682851360725
sg10
S'S'
sg11
F0
sg12
S'Asagi asagiri'
p493
sba(isaltybot
Fighter
p494
(dp495
g4
I0
sg5
S'Kay (2) - $142,099'
p496
sg7
I1
sg8
I0
sg9
F-6.1251240332444281
sg10
S'A'
sg11
F0
sg12
S'Kay'
p497
sba(isaltybot
Fighter
p498
(dp499
g4
I0
sg5
S'Shiena bee (4) - $870,374\r\n'
p500
sg7
I0
sg8
I1
sg9
F6.1251240332444281
sg10
S'A'
sg11
F0
sg12
S'Shiena bee'
p501
sba(isaltybot
Fighter
p502
(dp503
g4
I0
sg5
S'Hijiri byakuren (-3) - $644,060'
p504
sg7
I1
sg8
I0
sg9
F1.0350751725634206
sg10
S'S'
sg11
F0
sg12
S'Hijiri byakuren'
p505
sba(isaltybot
Fighter
p506
(dp507
g4
I0
sg5
S'Waddledee EX3 (-1) - $622,235\r\n'
p508
sg7
I0
sg8
I1
sg9
F-1.0350751725634206
sg10
S'S'
sg11
F0
sg12
S'Waddledee EX3'
p509
sba(isaltybot
Fighter
p510
(dp511
g4
I0
sg5
S'Zantetsu (1) - $937,928'
p512
sg7
I1
sg8
I0
sg9
F5.0632031266869646
sg10
S'B'
sg11
F0
sg12
S'Zantetsu'
p513
sba(isaltybot
Fighter
p514
(dp515
g4
I0
sg5
S'Donatello (-5) - $185,244\r\n'
p516
sg7
I0
sg8
I1
sg9
F-5.0632031266869646
sg10
S'B'
sg11
F0
sg12
S'Donatello'
p517
sba(isaltybot
Fighter
p518
(dp519
g4
I0
sg5
S'Hikkoshi_baba- $459,901'
p520
sg7
I1
sg8
I0
sg9
F-1.1583405993898688
sg10
S'B'
sg11
F0
sg12
S'Hikkoshi_baba'
p521
sba(isaltybot
Fighter
p522
(dp523
g4
I0
sg5
S'Bruce banner- $532,722\r\n'
p524
sg7
I0
sg8
I1
sg9
F1.1583405993898688
sg10
S'B'
sg11
F0
sg12
S'Bruce banner'
p525
sba(isaltybot
Fighter
p526
(dp527
g4
I0
sg5
S'Antimage- $538,330'
p528
sg7
I0
sg8
I1
sg9
F1.188770575427408
sg10
S'Unknown'
p529
sg11
F0
sg12
S'Antimage'
p530
sba(isaltybot
Fighter
p531
(dp532
g4
I0
sg5
S'Dark magician girl- $452,846\r\n'
p533
sg7
I1
sg8
I0
sg9
F-1.188770575427408
sg10
g529
sg11
F0
sg12
S'Dark magician girl'
p534
sba(isaltybot
Fighter
p535
(dp536
g4
I0
sg5
S'Jackal (-3) - $239,838'
p537
sg7
I1
sg8
I0
sg9
F-1.3835088684862282
sg10
S'B'
sg11
F0
sg12
S'Jackal'
p538
sba(isaltybot
Fighter
p539
(dp540
g4
I0
sg5
S'Midknight (5) - $331,818\r\n'
p541
sg7
I0
sg8
I1
sg9
F1.3835088684862282
sg10
S'B'
sg11
F0
sg12
S'Midknight'
p542
sba(isaltybot
Fighter
p543
(dp544
g4
I0
sg5
S'Lucky colt (2) - $296,976'
p545
sg7
I1
sg8
I0
sg9
F-1.0950379828673025
sg10
S'A'
sg11
F0
sg12
S'Lucky colt'
p546
sba(isaltybot
Fighter
p547
(dp548
g4
I0
sg5
S'Cyborg_t-8p (-5) - $325,200\r\n'
p549
sg7
I0
sg8
I1
sg9
F1.0950379828673025
sg10
S'A'
sg11
F0
sg12
S'Cyborg_t-8p'
p550
sba(isaltybot
Fighter
p551
(dp552
g4
I0
sg5
S'Luka (1) - $1,945,174'
p553
sg7
I1
sg8
I0
sg9
F8.9104318309872053
sg10
S'A'
sg11
F0
sg12
S'Luka'
p554
sba(isaltybot
Fighter
p555
(dp556
g4
I0
sg5
S'Omake (-5) - $81,790'
p557
sg7
I0
sg8
I2
sg9
F-6.0206945803670591
sg10
S'A'
sg11
F0
sg12
S'Omake'
p558
sba(isaltybot
Fighter
p559
(dp560
g4
I0
sg5
S'Masaru_takahara (-7) - $322,583\r\n'
p561
sg7
I0
sg8
I1
sg9
F-2.1158337544135928
sg10
S'S'
sg11
F0
sg12
S'Masaru_takahara'
p562
sba(isaltybot
Fighter
p563
(dp564
g4
I0
sg5
S'Vanessa (6) - $425,293'
p565
sg7
I1
sg8
I0
sg9
F2.172611263231027
sg10
S'B'
sg11
F0
sg12
S'Vanessa'
p566
sba(isaltybot
Fighter
p567
(dp568
g4
I0
sg5
S'Shiki tohno (-1) - $195,752\r\n'
p569
sg7
I0
sg8
I1
sg9
F-2.172611263231027
sg10
S'B'
sg11
F0
sg12
S'Shiki tohno'
p570
sba(isaltybot
Fighter
p571
(dp572
g4
I0
sg5
S'Custom ssfiv abel (3) - $302,692'
p573
sg7
I1
sg8
I0
sg9
F-1.441643650971945
sg10
S'B'
sg11
F0
sg12
S'Custom ssfiv abel'
p574
sba(isaltybot
Fighter
p575
(dp576
g4
I0
sg5
S'Judith (5) - $436,374\r\n'
p577
sg7
I0
sg8
I1
sg9
F1.441643650971945
sg10
S'B'
sg11
F0
sg12
S'Judith'
p578
sba(isaltybot
Fighter
p579
(dp580
g4
I0
sg5
S'Labyrinth 1p (2) - $369,725'
p581
sg7
I0
sg8
I1
sg9
F-2.2683562106971396
sg10
S'S'
sg11
F0
sg12
S'Labyrinth 1p'
p582
sba(isaltybot
Fighter
p583
(dp584
g4
I0
sg5
S'Pulseman (1) - $838,668\r\n'
p585
sg7
I1
sg8
I0
sg9
F2.2683562106971396
sg10
S'S'
sg11
F0
sg12
S'Pulseman'
p586
sba(isaltybot
Fighter
p587
(dp588
g4
I0
sg5
S'Katima (-5) - $80,537'
p589
sg7
I0
sg8
I1
sg9
F-118.58986552764569
sg10
S'S'
sg11
F0
sg12
S'Katima'
p590
sba(isaltybot
Fighter
p591
(dp592
g4
I0
sg5
S'Another clone ash (3) - $9,550,872\r\n'
p593
sg7
I1
sg8
I0
sg9
F118.58986552764569
sg10
S'S'
sg11
F0
sg12
S'Another clone ash'
p594
sba(isaltybot
Fighter
p595
(dp596
g4
I0
sg5
S'Black rabite (-1) - $361,233'
p597
sg7
I0
sg8
I1
sg9
F1.4638804687879918
sg10
S'S'
sg11
F0
sg12
S'Black rabite'
p598
sba(isaltybot
Fighter
p599
(dp600
g4
I0
sg5
S'Myth blue ranger (1) - $246,764\r\n'
p601
sg7
I1
sg8
I0
sg9
F-1.4638804687879918
sg10
S'S'
sg11
F0
sg12
S'Myth blue ranger'
p602
sba(isaltybot
Fighter
p603
(dp604
g4
I0
sg5
S'Kagami EX3 (2) - $337,927'
p605
sg7
I0
sg8
I1
sg9
F-1.1661364732619768
sg10
S'S'
sg11
F0
sg12
S'Kagami EX3'
p606
sba(isaltybot
Fighter
p607
(dp608
g4
I0
sg5
S'Basilisk-s[0.98] EX3 (-2) - $394,069\r\n'
p609
sg7
I1
sg8
I0
sg9
F1.1661364732619768
sg10
S'S'
sg11
F0
sg12
S'Basilisk-s[0.98] EX3'
p610
sba(isaltybot
Fighter
p611
(dp612
g4
I0
sg5
S'Strider hiryu (2) - $147,263'
p613
sg7
I1
sg8
I0
sg9
F-3.3418238118196695
sg10
S'B'
sg11
F0
sg12
S'Strider hiryu'
p614
sba(isaltybot
Fighter
p615
(dp616
g4
I0
sg5
S'Pikaman (3) - $492,127\r\n'
p617
sg7
I0
sg8
I1
sg9
F3.3418238118196695
sg10
S'B'
sg11
F0
sg12
S'Pikaman'
p618
sba(isaltybot
Fighter
p619
(dp620
g4
I0
sg5
S'Spiderman (-1) - $3,013,753'
p621
sg7
I1
sg8
I0
sg9
F15.293891076648263
sg10
S'B'
sg11
F0
sg12
S'Spiderman'
p622
sba(isaltybot
Fighter
p623
(dp624
g4
I0
sg5
S'Wangchang (-7) - $197,056\r\n'
p625
sg7
I0
sg8
I1
sg9
F-15.293891076648263
sg10
S'B'
sg11
F0
sg12
S'Wangchang'
p626
sba(isaltybot
Fighter
p627
(dp628
g4
I0
sg5
S'Mo-mo-dainamaitu EX3 (-8) - $128,134'
p629
sg7
I0
sg8
I0
sg9
F-6.6499836109073316
sg10
S'A'
sg11
F0
sg12
S'Mo-mo-dainamaitu EX3'
p630
sba(isaltybot
Fighter
p631
(dp632
g4
I0
sg5
S'Clonekyo xi (1) - $852,089\r\n'
p633
sg7
I0
sg8
I0
sg9
F6.6499836109073316
sg10
S'A'
sg11
F0
sg12
S'Clonekyo xi'
p634
sba(isaltybot
Fighter
p635
(dp636
g4
I0
sg5
S'Krusty (-4) - $374,279'
p637
sg7
I1
sg8
I0
sg9
F2.1285686662571943
sg10
S'B'
sg11
F0
sg12
S'Krusty'
p638
sba(isaltybot
Fighter
p639
(dp640
g4
I0
sg5
S'Poring (-1) - $175,836\r\n'
p641
sg7
I0
sg8
I1
sg9
F-2.1285686662571943
sg10
S'B'
sg11
F0
sg12
S'Poring'
p642
sba(isaltybot
Fighter
p643
(dp644
g4
I0
sg5
S'Reika (1) - $139,413'
p645
sg7
I0
sg8
I1
sg9
F-5.8676522275541014
sg10
S'B'
sg11
F0
sg12
S'Reika'
p646
sba(isaltybot
Fighter
p647
(dp648
g4
I0
sg5
S'Rock EX3 (1) - $818,027\r\n'
p649
sg7
I1
sg8
I0
sg9
F5.8676522275541014
sg10
S'B'
sg11
F0
sg12
S'Rock EX3'
p650
sba(isaltybot
Fighter
p651
(dp652
g4
I0
sg5
S'Bomber man (-3) - $113,454'
p653
sg7
I0
sg8
I1
sg9
F-3.0995645812399739
sg10
S'B'
sg11
F0
sg12
S'Bomber man'
p654
sba(isaltybot
Fighter
p655
(dp656
g4
I0
sg5
S'Kunio kun (1) - $351,658\r\n'
p657
sg7
I1
sg8
I0
sg9
F3.0995645812399739
sg10
S'B'
sg11
F0
sg12
S'Kunio kun'
p658
sba(isaltybot
Fighter
p659
(dp660
g4
I0
sg5
S'Real beavis (1) - $2,289,886'
p661
sg7
I1
sg8
I0
sg9
F30.665514978640203
sg10
S'B'
sg11
F0
sg12
S'Real beavis'
p662
sba(isaltybot
Fighter
p663
(dp664
g4
I0
sg5
S'Doom vega (1) - $74,673\r\n'
p665
sg7
I0
sg8
I1
sg9
F-30.665514978640203
sg10
S'B'
sg11
F0
sg12
S'Doom vega'
p666
sba(isaltybot
Fighter
p667
(dp668
g4
I0
sg5
S'Batman 2 (-2) - $761,304'
p669
sg7
I1
sg8
I0
sg9
F11.650710088148873
sg10
S'B'
sg11
F0
sg12
S'Batman 2'
p670
sba(isaltybot
Fighter
p671
(dp672
g4
I0
sg5
S'Rainbow (-1) - $65,344\r\n'
p673
sg7
I0
sg8
I1
sg9
F-11.650710088148873
sg10
S'B'
sg11
F0
sg12
S'Rainbow'
p674
sba(isaltybot
Fighter
p675
(dp676
g4
I0
sg5
S'Dudley streets (-4) - $325,559'
p677
sg7
I0
sg8
I1
sg9
F2.8761915700011484
sg10
S'A'
sg11
F0
sg12
S'Dudley streets'
p678
sba(isaltybot
Fighter
p679
(dp680
g4
I0
sg5
S'Tetsu yatoji (-1) - $113,191\r\n'
p681
sg7
I1
sg8
I0
sg9
F-2.8761915700011484
sg10
S'A'
sg11
F0
sg12
S'Tetsu yatoji'
p682
sba(isaltybot
Fighter
p683
(dp684
g4
I0
sg5
S'Judgment (2) - $223,781'
p685
sg7
I1
sg8
I0
sg9
F-1.0222583686729436
sg10
S'B'
sg11
F0
sg12
S'Judgment'
p686
sba(isaltybot
Fighter
p687
(dp688
g4
I0
sg5
S'Haohmaru CVS (2) - $228,762\r\n'
p689
sg7
I0
sg8
I1
sg9
F1.0222583686729436
sg10
S'B'
sg11
F0
sg12
S'Haohmaru CVS'
p690
sba(isaltybot
Fighter
p691
(dp692
g4
I0
sg5
S'Diggle (-2) - $336,538'
p693
sg7
I0
sg8
I1
sg9
F1.1544448827676106
sg10
S'A'
sg11
F0
sg12
S'Diggle'
p694
sba(isaltybot
Fighter
p695
(dp696
g4
I0
sg5
S'Tamtam (-1) - $291,515\r\n'
p697
sg7
I1
sg8
I0
sg9
F-1.1544448827676106
sg10
S'A'
sg11
F0
sg12
S'Tamtam'
p698
sba(isaltybot
Fighter
p699
(dp700
g4
I0
sg5
S'Vegeta EX3 (-2) - $156,347'
p701
sg7
I1
sg8
I0
sg9
F-2.0887640952496689
sg10
S'S'
sg11
F0
sg12
S'Vegeta EX3'
p702
sba(isaltybot
Fighter
p703
(dp704
g4
I0
sg5
S'Ren mizusaka (1) - $326,572\r\n'
p705
sg7
I0
sg8
I1
sg9
F2.0887640952496689
sg10
S'S'
sg11
F0
sg12
S'Ren mizusaka'
p706
sba(isaltybot
Fighter
p707
(dp708
g4
I0
sg5
S'Nayu mizuhara (3) - $427,768'
p709
sg7
I2
sg8
I0
sg9
F5.203660343325172
sg10
S'A'
sg11
F0
sg12
S'Nayu mizuhara'
p710
sba(isaltybot
Fighter
p711
(dp712
g4
I0
sg5
S'Down (2) - $115,622\r\n'
p713
sg7
I0
sg8
I1
sg9
F-4.2309681548494229
sg10
S'A'
sg11
F0
sg12
S'Down'
p714
sba(isaltybot
Fighter
p715
(dp716
g4
I0
sg5
S'Rugal bernstein EX3 (-1) - $297,246'
p717
sg7
I1
sg8
I0
sg9
F1.4333190280784829
sg10
S'S'
sg11
F0
sg12
S'Rugal bernstein EX3'
p718
sba(isaltybot
Fighter
p719
(dp720
g4
I0
sg5
S'Master sakura (-8) - $207,383\r\n'
p721
sg7
I0
sg8
I1
sg9
F-1.4333190280784829
sg10
S'S'
sg11
F0
sg12
S'Master sakura'
p722
sba(isaltybot
Fighter
p723
(dp724
g4
I0
sg5
S'Hyper kagami (-5) - $81,338'
p725
sg7
I0
sg8
I1
sg9
F-12.956416435122575
sg10
S'B'
sg11
F0
sg12
S'Hyper kagami'
p726
sba(isaltybot
Fighter
p727
(dp728
g4
I0
sg5
S'Professor x (2) - $1,053,849\r\n'
p729
sg7
I1
sg8
I0
sg9
F12.956416435122575
sg10
S'B'
sg11
F0
sg12
S'Professor x'
p730
sba(isaltybot
Fighter
p731
(dp732
g4
I0
sg5
S'Dee bee kaw EX3 (-3) - $72,299'
p733
sg7
I0
sg8
I1
sg9
F-108.72523824672541
sg10
S'S'
sg11
F0
sg12
S'Dee bee kaw EX3'
p734
sba(isaltybot
Fighter
p735
(dp736
g4
I0
sg5
S'Mami (10) - $7,860,726\r\n'
p737
sg7
I1
sg8
I0
sg9
F108.72523824672541
sg10
S'S'
sg11
F0
sg12
S'Mami'
p738
sba(isaltybot
Fighter
p739
(dp740
g4
I0
sg5
S'Houjuu nue (1) - $197,490'
p741
sg7
I1
sg8
I1
sg9
F-0.52957976783894678
sg10
S'A'
sg11
F0
sg12
S'Houjuu nue'
p742
sba(isaltybot
Fighter
p743
(dp744
g4
I0
sg5
S'Gargoyle (-5) - $111,562\r\n'
p745
sg7
I0
sg8
I1
sg9
F-1.6901543536329575
sg10
S'A'
sg11
F0
sg12
S'Gargoyle'
p746
sba(isaltybot
Fighter
p747
(dp748
g4
I0
sg5
S'Rei-kugo (3) - $195,048'
p749
sg7
I3
sg8
I1
sg9
F-0.3200219511056912
sg10
S'A'
sg11
F0
sg12
S'Rei-kugo'
p750
sba(isaltybot
Fighter
p751
(dp752
g4
I0
sg5
S'Dios (1) - $212,084\r\n'
p753
sg7
I0
sg8
I1
sg9
F1.0666867848610586
sg10
S'A'
sg11
F0
sg12
S'Dios'
p754
sba(isaltybot
Fighter
p755
(dp756
g4
I0
sg5
S'Yurung (3) - $437,642'
p757
sg7
I1
sg8
I1
sg9
F1.7783236330942045
sg10
S'A'
sg11
F0
sg12
S'Yurung'
p758
sba(isaltybot
Fighter
p759
(dp760
g4
I0
sg5
S'Tamara (-4) - $210,042\r\n'
p761
sg7
I0
sg8
I1
sg9
F-1.4041048933070528
sg10
S'A'
sg11
F0
sg12
S'Tamara'
p762
sba(isaltybot
Fighter
p763
(dp764
g4
I0
sg5
S'Chen_ai EX3 (-6) - $212,960'
p765
sg7
I0
sg8
I1
sg9
F-1.5646036814425244
sg10
S'A'
sg11
F0
sg12
S'Chen_ai EX3'
p766
sba(isaltybot
Fighter
p767
(dp768
g4
I0
sg5
S"D'raven (-2) - $306,018"
p769
sg7
I2
sg8
I2
sg9
F-0.97136348089897373
sg10
S'A'
sg11
F0
sg12
S"D'raven"
p770
sba(isaltybot
Fighter
p771
(dp772
g4
I0
sg5
S'Alessi (-1) - $219,775'
p773
sg7
I0
sg8
I1
sg9
F-1.4979319758844272
sg10
S'A'
sg11
F0
sg12
S'Alessi'
p774
sba(isaltybot
Fighter
p775
(dp776
g4
I0
sg5
S'Duke (5) - $281,046'
p777
sg7
I2
sg8
I1
sg9
F0.57149466951305228
sg10
S'A'
sg11
F0
sg12
S'Duke'
p778
sba(isaltybot
Fighter
p779
(dp780
g4
I0
sg5
S'Smoke mk2 (-6) - $303,491\r\n'
p781
sg7
I1
sg8
I1
sg9
F-0.09629892144916008
sg10
S'A'
sg11
F0
sg12
S'Smoke mk2'
p782
sba(isaltybot
Fighter
p783
(dp784
g4
I0
sg5
S'Sagat f22 (5) - $258,667\r\n'
p785
sg7
I1
sg8
I1
sg9
F-1.4455892171320266
sg10
S'A'
sg11
F0
sg12
S'Sagat f22'
p786
sba(isaltybot
Fighter
p787
(dp788
g4
I0
sg5
S'Real chibi scex (-2) - $207,083'
p789
sg7
I0
sg8
I1
sg9
F-2.4064553826243582
sg10
S'A'
sg11
F0
sg12
S'Real chibi scex'
p790
sba(isaltybot
Fighter
p791
(dp792
g4
I0
sg5
S'Arc vp (1) - $247,496'
p793
sg7
I1
sg8
I1
sg9
F-0.049436998218156836
sg10
S'A'
sg11
F0
sg12
S'Arc vp'
p794
sba(isaltybot
Fighter
p795
(dp796
g4
I0
sg5
S'Rugal bernstein (4) - $421,384\r\n'
p797
sg7
I4
sg8
I1
sg9
F2.5674556707974179
sg10
S'A'
sg11
F0
sg12
S'Rugal bernstein'
p798
sba(isaltybot
Fighter
p799
(dp800
g4
I0
sg5
S'Mf viga (0) - $401,761\r\n:orrywatts!orrywatts@orrywatts.tmi.twitch.tv PRIVMSG #saltybet :wait the cat wasnt a part of the background?\r\n'
p801
sg7
I0
sg8
I1
sg9
F0
sg10
S'A'
sg11
F0
sg12
S'Mf viga'
p802
sba(isaltybot
Fighter
p803
(dp804
g4
I0
sg5
S'Hame-terry (-2) - $111,101\r\n'
p805
sg7
I0
sg8
I2
sg9
F-8.5575452268450416
sg10
S'X'
sg11
F0
sg12
S'Hame-terry'
p806
sba(isaltybot
Fighter
p807
(dp808
g4
I0
sg5
S'Itachi uchiha- $200,960\r\n'
p809
sg7
I1
sg8
I0
sg9
F-1.6172521894904459
sg10
S'X'
sg11
F0
sg12
S'Itachi uchiha'
p810
sba(isaltybot
Fighter
p811
(dp812
g4
I0
sg5
S'Aleti ex- $739,891\r\n'
p813
sg7
I1
sg8
I0
sg9
F2.9381974283013923
sg10
S'X'
sg11
F0
sg12
S'Aleti ex'
p814
sba(isaltybot
Fighter
p815
(dp816
g4
I0
sg5
S'Alexa- $433,692\r\n'
p817
sg7
I2
sg8
I0
sg9
F2.8420748546265946
sg10
S'S'
sg11
F0
sg12
S'Alexa'
p818
sba(isaltybot
Fighter
p819
(dp820
g4
I0
sg5
S'Hitosyura ex- $157,687\r\n'
p821
sg7
I0
sg8
I1
sg9
F-3.3811728297196346
sg10
S'S'
sg11
F0
sg12
S'Hitosyura ex'
p822
sba(isaltybot
Fighter
p823
(dp824
g4
I0
sg5
S'Nogami_aoi (-3) - $295,842\r\n'
p825
sg7
I0
sg8
I2
sg9
F-2.568721241658682
sg10
S'S'
sg11
F0
sg12
S'Nogami_aoi'
p826
sba(isaltybot
Fighter
p827
(dp828
g4
I0
sg5
S'Sannomiya_shiho- $248,028\r\n'
p829
sg7
I1
sg8
I0
sg9
F1.3703810113154173
sg10
S'S'
sg11
F0
sg12
S'Sannomiya_shiho'
p830
sba(isaltybot
Fighter
p831
(dp832
g4
I0
sg5
S'Bokosuka wars- $266,170'
p833
sg7
I0
sg8
I1
sg9
F-1.5672201976180637
sg10
S'Unknown'
p834
sg11
F0
sg12
S'Bokosuka wars'
p835
sba(isaltybot
Fighter
p836
(dp837
g4
I0
sg5
S'Snake eyes- $417,147\r\n'
p838
sg7
I1
sg8
I0
sg9
F1.5672201976180637
sg10
g834
sg11
F0
sg12
S'Snake eyes'
p839
sba(isaltybot
Fighter
p840
(dp841
g4
I0
sg5
S'Kakashi hatake- $212,071'
p842
sg7
I0
sg8
I1
sg9
F-1.3881577396249369
sg10
S'A'
sg11
F0
sg12
S'Kakashi hatake'
p843
sba(isaltybot
Fighter
p844
(dp845
g4
I0
sg5
S'Sasuke uchiha- $294,388\r\n'
p846
sg7
I1
sg8
I0
sg9
F1.3881577396249369
sg10
S'A'
sg11
F0
sg12
S'Sasuke uchiha'
p847
sba(isaltybot
Fighter
p848
(dp849
g4
I0
sg5
S"Dongdong'- $57,315"
p850
sg7
I0
sg8
I1
sg9
F-178.61610398673994
sg10
g834
sg11
F0
sg12
S"Dongdong'"
p851
sba(isaltybot
Fighter
p852
(dp853
g4
I0
sg5
S'Rare akuma- $10,237,382\r\n'
p854
sg7
I1
sg8
I0
sg9
F178.61610398673994
sg10
g834
sg11
F0
sg12
S'Rare akuma'
p855
sba(isaltybot
Fighter
p856
(dp857
g4
I0
sg5
S'Phobos(yanagi_ai)- $391,100'
p858
sg7
I1
sg8
I0
sg9
F1.6980058959141056
sg10
S'X'
sg11
F0
sg12
S'Phobos(yanagi_ai)'
p859
sba(isaltybot
Fighter
p860
(dp861
g4
I0
sg5
S'Hadou-ken- $230,329\r\n'
p862
sg7
I0
sg8
I1
sg9
F-1.6980058959141056
sg10
S'X'
sg11
F0
sg12
S'Hadou-ken'
p863
sba(isaltybot
Fighter
p864
(dp865
g4
I0
sg5
S'Dead kung fu man EX3- $71,630'
p866
sg7
I1
sg8
I0
sg9
F-13.956819768253524
sg10
g834
sg11
F0
sg12
S'Dead kung fu man EX3'
p867
sba(isaltybot
Fighter
p868
(dp869
g4
I0
sg5
S'Kasai- $999,727\r\n'
p870
sg7
I0
sg8
I1
sg9
F13.956819768253524
sg10
g834
sg11
F0
sg12
S'Kasai'
p871
sba(isaltybot
Fighter
p872
(dp873
g4
I0
sg5
S'Omega god ryu- $188,318'
p874
sg7
I0
sg8
I1
sg9
F-2.302976879533555
sg10
S'S'
sg11
F0
sg12
S'Omega god ryu'
p875
sba(isaltybot
Fighter
p876
(dp877
g4
I0
sg5
S'Eva-00- $110,036'
p878
sg7
I0
sg8
I1
sg9
F-46.344196444799884
sg10
g834
sg11
F0
sg12
S'Eva-00'
p879
sba(isaltybot
Fighter
p880
(dp881
g4
I0
sg5
S'Evil dan- $5,099,530\r\n'
p882
sg7
I1
sg8
I0
sg9
F46.344196444799884
sg10
g834
sg11
F0
sg12
S'Evil dan'
p883
sba(isaltybot
Fighter
p884
(dp885
g4
I0
sg5
S'Derp- $376,623'
p886
sg7
I1
sg8
I0
sg9
F3.7231531184198818
sg10
g834
sg11
F0
sg12
S'Derp'
p887
sba(isaltybot
Fighter
p888
(dp889
g4
I0
sg5
S'Human bo- $101,157\r\n'
p890
sg7
I0
sg8
I1
sg9
F-3.7231531184198818
sg10
g834
sg11
F0
sg12
S'Human bo'
p891
sba(isaltybot
Fighter
p892
(dp893
g4
I0
sg5
S'Holy god earth- $224,468'
p894
sg7
I1
sg8
I0
sg9
F1.1034869258714857
sg10
g834
sg11
F0
sg12
S'Holy god earth'
p895
sba(isaltybot
Fighter
p896
(dp897
g4
I0
sg5
S'Goku EX3- $203,417\r\n'
p898
sg7
I0
sg8
I1
sg9
F-1.1034869258714857
sg10
g834
sg11
F0
sg12
S'Goku EX3'
p899
sba(isaltybot
Fighter
p900
(dp901
g4
I0
sg5
S'Nagamine nozomi (1) - $305,486'
p902
sg7
I0
sg8
I1
sg9
F0
sg10
S'A'
sg11
F0
sg12
S'Nagamine nozomi'
p903
sba(isaltybot
Fighter
p904
(dp905
g4
I0
sg5
S'Jin EX (-1) - $85,012\r\n:randomforce123!randomforce123@randomforce123.tmi.twitch.tv PRIVMSG #saltybet :Wusscake I thought you were gonna say, "Don\'t stop being a *** flan, thats what I like about you, baybee Poooound "\r\n'
p906
sg7
I1
sg8
I0
sg9
F0
sg10
S'A'
sg11
F0
sg12
S'Jin EX'
p907
sba(isaltybot
Fighter
p908
(dp909
g4
I0
sg5
S'Tetris EX (4) - $2,081,182'
p910
sg7
I1
sg8
I0
sg9
F18.73234264318053
sg10
S'X'
sg11
F0
sg12
S'Tetris EX'
p911
sba(isaltybot
Fighter
p912
(dp913
g4
I0
sg5
S'Zan-b EX (-1) - $102,526'
p914
sg7
I0
sg8
I1
sg9
F-21.162114975713479
sg10
S'S'
sg11
F0
sg12
S'Zan-b EX'
p915
sba(isaltybot
Fighter
p916
(dp917
g4
I0
sg5
S'Armor jack (1) - $314,896\r\n'
p918
sg7
I2
sg8
I0
sg9
F11.673778602730984
sg10
S'S'
sg11
F0
sg12
S'Armor jack'
p919
sba(isaltybot
Fighter
p920
(dp921
g4
I0
sg5
S'Stan (3) - $610,183'
p922
sg7
I1
sg8
I0
sg9
F4.129470841821024
sg10
S'S'
sg11
F0
sg12
S'Stan'
p923
sba(isaltybot
Fighter
p924
(dp925
g4
I0
sg5
S'Super3 goku EX3 (1) - $147,763\r\n'
p926
sg7
I0
sg8
I1
sg9
F-4.129470841821024
sg10
S'S'
sg11
F0
sg12
S'Super3 goku EX3'
p927
sba(isaltybot
Fighter
p928
(dp929
g4
I0
sg5
S'The manticore'
p930
sg7
I1
sg8
I0
sg9
F0
sg10
S'A'
sg11
F0
sg12
S'The manticore, the queen, and the dragon'
p931
sba(isaltybot
Fighter
p932
(dp933
g4
I0
sg5
S'the queen, and the dragon (1) - $215,548, Yuri lowell (-2) - $80,873\r\n:ionosphere_negate!ionosphere_negate@ionosphere_negate.tmi.twitch.tv PRIVMSG #saltybet :!yuri\r\n'
p934
sg7
I0
sg8
I1
sg9
F0
sg10
S'A'
sg11
F0
sg12
S'Yuri lowell'
p935
sba(isaltybot
Fighter
p936
(dp937
g4
I0
sg5
S'Minoriko aki (-2) - $206,668'
p938
sg7
I1
sg8
I0
sg9
F-1.1606441248766137
sg10
S'A'
sg11
F0
sg12
S'Minoriko aki'
p939
sba(isaltybot
Fighter
p940
(dp941
g4
I0
sg5
S'Itoko (1) - $239,868\r\n'
p942
sg7
I0
sg8
I1
sg9
F1.1606441248766137
sg10
S'A'
sg11
F0
sg12
S'Itoko'
p943
sba(isaltybot
Fighter
p944
(dp945
g4
I0
sg5
S'Grimace (-1) - $651,210'
p946
sg7
I1
sg8
I0
sg9
F4.5444775536124276
sg10
S'A'
sg11
F0
sg12
S'Grimace'
p947
sba(isaltybot
Fighter
p948
(dp949
g4
I0
sg5
S'G_cyclone (-4) - $143,297\r\n'
p950
sg7
I0
sg8
I1
sg9
F-4.5444775536124276
sg10
S'A'
sg11
F0
sg12
S'G_cyclone'
p951
sba(isaltybot
Fighter
p952
(dp953
g4
I0
sg5
S'Kusanagi EX (-1) - $107,555'
p954
sg7
I1
sg8
I0
sg9
F-1.3975454418669517
sg10
S'A'
sg11
F0
sg12
S'Kusanagi EX'
p955
sba(isaltybot
Fighter
p956
(dp957
g4
I0
sg5
S'Big bear 0D (-1) - $150,313\r\n'
p958
sg7
I0
sg8
I1
sg9
F1.3975454418669517
sg10
S'A'
sg11
F0
sg12
S'Big bear 0D'
p959
sba(isaltybot
Fighter
p960
(dp961
g4
I0
sg5
S'Majin vegeta EX3 (-1) - $99,830'
p962
sg7
I0
sg8
I1
sg9
F-4.1271060803365724
sg10
S'B'
sg11
F0
sg12
S'Majin vegeta EX3'
p963
sba(isaltybot
Fighter
p964
(dp965
g4
I0
sg5
S'Sabretooth EX (6) - $412,009\r\n'
p966
sg7
I1
sg8
I0
sg9
F4.1271060803365724
sg10
S'B'
sg11
F0
sg12
S'Sabretooth EX'
p967
sba(isaltybot
Fighter
p968
(dp969
g4
I0
sg5
S'Terryman (-2) - $184,234'
p970
sg7
I1
sg8
I0
sg9
F2.762128935532234
sg10
S'A'
sg11
F0
sg12
S'Terryman'
p971
sba(isaltybot
Fighter
p972
(dp973
g4
I0
sg5
S'Charlotte (-3) - $66,700\r\n'
p974
sg7
I0
sg8
I1
sg9
F-2.762128935532234
sg10
S'A'
sg11
F0
sg12
S'Charlotte'
p975
sba(isaltybot
Fighter
p976
(dp977
g4
I0
sg5
S'Silhouette (-7) - $69,645'
p978
sg7
I0
sg8
I1
sg9
F-18.417646636513748
sg10
S'S'
sg11
F0
sg12
S'Silhouette'
p979
sba(isaltybot
Fighter
p980
(dp981
g4
I0
sg5
S'Bloody flandre (2) - $1,282,697\r\n'
p982
sg7
I1
sg8
I0
sg9
F18.417646636513748
sg10
S'S'
sg11
F0
sg12
S'Bloody flandre'
p983
sba(isaltybot
Fighter
p984
(dp985
g4
I0
sg5
S'Pocket Gouki (-6) - $82,406'
p986
sg7
I0
sg8
I1
sg9
F-3.7948450355556633
sg10
S'B'
sg11
F0
sg12
S'Pocket Gouki'
p987
sba(isaltybot
Fighter
p988
(dp989
g4
I0
sg5
S'Moses maddigan (1) - $312,718\r\n'
p990
sg7
I1
sg8
I0
sg9
F3.7948450355556633
sg10
S'B'
sg11
F0
sg12
S'Moses maddigan'
p991
sba(isaltybot
Fighter
p992
(dp993
g4
I0
sg5
S'Atomos (-1) - $189,180'
p994
sg7
I1
sg8
I0
sg9
F-1.4702875568241887
sg10
S'X'
sg11
F0
sg12
S'Atomos'
p995
sba(isaltybot
Fighter
p996
(dp997
g4
I0
sg5
S'Sho ryu (-1) - $278,149\r\n'
p998
sg7
I0
sg8
I1
sg9
F1.4702875568241887
sg10
S'X'
sg11
F0
sg12
S'Sho ryu'
p999
sba(isaltybot
Fighter
p1000
(dp1001
g4
I0
sg5
S'Date masamune (-1) - $256,081\r\n'
p1002
sg7
I1
sg8
I0
sg9
F3.1309573297469129
sg10
S'A'
sg11
F0
sg12
S'Date masamune'
p1003
sba(isaltybot
Fighter
p1004
(dp1005
g4
I0
sg5
S'Tyssa willing (1) - $48,852'
p1006
sg7
I0
sg8
I1
sg9
F-12.347293867190698
sg10
S'A'
sg11
F0
sg12
S'Tyssa willing'
p1007
sba(isaltybot
Fighter
p1008
(dp1009
g4
I0
sg5
S'Dante2 (8) - $603,190\r\n'
p1010
sg7
I1
sg8
I0
sg9
F12.347293867190698
sg10
S'A'
sg11
F0
sg12
S'Dante2'
p1011
sba(isaltybot
Fighter
p1012
(dp1013
g4
I0
sg5
S'Pikopiko (-1) - $425,998'
p1014
sg7
I1
sg8
I0
sg9
F6.776286068781217
sg10
S'B'
sg11
F0
sg12
S'Pikopiko'
p1015
sba(isaltybot
Fighter
p1016
(dp1017
g4
I0
sg5
S'Ignis (1) - $62,866\r\n'
p1018
sg7
I0
sg8
I1
sg9
F-6.776286068781217
sg10
S'B'
sg11
F0
sg12
S'Ignis'
p1019
sba(isaltybot
Fighter
p1020
(dp1021
g4
I0
sg5
S'Lilith (1) - $88,079'
p1022
sg7
I1
sg8
I0
sg9
F-4.7841596748373618
sg10
S'A'
sg11
F0
sg12
S'Lilith'
p1023
sba(isaltybot
Fighter
p1024
(dp1025
g4
I0
sg5
S'Masked rider kabuto (3) - $276,762'
p1026
sg7
I1
sg8
I0
sg9
F1.2210824476181652
sg10
S'B'
sg11
F0
sg12
S'Masked rider kabuto'
p1027
sba(isaltybot
Fighter
p1028
(dp1029
g4
I0
sg5
S'Platinum the trinity (1) - $226,653\r\n'
p1030
sg7
I0
sg8
I1
sg9
F-1.2210824476181652
sg10
S'B'
sg11
F0
sg12
S'Platinum the trinity'
p1031
sba(isaltybot
Fighter
p1032
(dp1033
g4
I0
sg5
S'Zeus ex (-2) - $200,065'
p1034
sg7
I0
sg8
I1
sg9
F1.5922783671715202
sg10
S'A'
sg11
F0
sg12
S'Zeus ex'
p1035
sba(isaltybot
Fighter
p1036
(dp1037
g4
I0
sg5
S'Hotaru (1) - $244,299\r\n'
p1038
sg7
I1
sg8
I1
sg9
F-1.6858358258151593
sg10
S'A'
sg11
F0
sg12
S'Hotaru'
p1039
sba(isaltybot
Fighter
p1040
(dp1041
g4
I0
sg5
S'Nightmare the jujin lv3 (3) - $390,622'
p1042
sg7
I0
sg8
I0
sg9
F0
sg10
S'S'
sg11
F0
sg12
S'Nightmare the jujin lv3'
p1043
sba(isaltybot
Fighter
p1044
(dp1045
g4
I0
sg5
S'Storm_cota (6) - $234,114\r\n'
p1046
sg7
I0
sg8
I0
sg9
F0
sg10
S'S'
sg11
F0
sg12
S'Storm_cota'
p1047
sba(isaltybot
Fighter
p1048
(dp1049
g4
I0
sg5
S'Bloodia EX3 (-3) - $98,136'
p1050
sg7
I0
sg8
I1
sg9
F-18.79991032852368
sg10
S'S'
sg11
F0
sg12
S'Bloodia EX3'
p1051
sba(isaltybot
Fighter
p1052
(dp1053
g4
I0
sg5
S'Mega weapon (5) - $1,844,948\r\n'
p1054
sg7
I1
sg8
I0
sg9
F18.79991032852368
sg10
S'S'
sg11
F0
sg12
S'Mega weapon'
p1055
sba(isaltybot
Fighter
p1056
(dp1057
g4
I0
sg5
S'Turf EX3 (-1) - $965,812'
p1058
sg7
I1
sg8
I0
sg9
F5.4143817377606105
sg10
S'S'
sg11
F0
sg12
S'Turf EX3'
p1059
sba(isaltybot
Fighter
p1060
(dp1061
g4
I0
sg5
S'Wind-se (-6) - $178,379\r\n'
p1062
sg7
I0
sg8
I1
sg9
F-5.4143817377606105
sg10
S'S'
sg11
F0
sg12
S'Wind-se'
p1063
sba(isaltybot
Fighter
p1064
(dp1065
g4
I0
sg5
S'Nick commando EX (1) - $586,614'
p1066
sg7
I1
sg8
I0
sg9
F1.55668248256536
sg10
S'S'
sg11
F0
sg12
S'Nick commando EX'
p1067
sba(isaltybot
Fighter
p1068
(dp1069
g4
I0
sg5
S'Lucy (-6) - $376,836\r\n'
p1070
sg7
I0
sg8
I1
sg9
F-1.55668248256536
sg10
S'S'
sg11
F0
sg12
S'Lucy'
p1071
sba(isaltybot
Fighter
p1072
(dp1073
g4
I0
sg5
S'Yuri_96 (-6) - $321,802\r\n'
p1074
sg7
I0
sg8
I2
sg9
F-6.1920621428296592
sg10
S'S'
sg11
F0
sg12
S'Yuri_96'
p1075
sba(isaltybot
Fighter
p1076
(dp1077
g4
I0
sg5
S'Konata (2) - $1,864,625\r\n'
p1078
sg7
I1
sg8
I0
sg9
F9.9092049253073
sg10
S'S'
sg11
F0
sg12
S'Konata'
p1079
sba(isaltybot
Fighter
p1080
(dp1081
g4
I0
sg5
S'Masako(emanon) (-1) - $349,718'
p1082
sg7
I0
sg8
I1
sg9
F1.7622385374727263
sg10
S'A'
sg11
F0
sg12
S'Masako(emanon)'
p1083
sba(isaltybot
Fighter
p1084
(dp1085
g4
I0
sg5
S'Trainheartnet (-3) - $198,451\r\n'
p1086
sg7
I1
sg8
I0
sg9
F-1.7622385374727263
sg10
S'A'
sg11
F0
sg12
S'Trainheartnet'
p1087
sba(isaltybot
Fighter
p1088
(dp1089
g4
I0
sg5
S'Chibi kuroko (2) - $194,070'
p1090
sg7
I1
sg8
I0
sg9
F0
sg10
S'S'
sg11
F0
sg12
S'Chibi kuroko'
p1091
sba(isaltybot
Fighter
p1092
(dp1093
g4
I0
sg5
S'W arcueid (2) - $183,958\r\n:r0xm2n!r0xm2n@r0xm2n.tmi.twitch.tv PRIVMSG #saltybet :You can always hope for upset...\r\n'
p1094
sg7
I0
sg8
I1
sg9
F0
sg10
S'S'
sg11
F0
sg12
S'W arcueid'
p1095
sba(isaltybot
Fighter
p1096
(dp1097
g4
I0
sg5
S'Haohmaru (-1) - $264,758\r\n'
p1098
sg7
I0
sg8
I1
sg9
F1.5000113311879617
sg10
S'S'
sg11
F0
sg12
S'Haohmaru'
p1099
sba(isaltybot
Fighter
p1100
(dp1101
g4
I0
sg5
S'D4?roll? (2) - $926,546'
p1102
sg7
I1
sg8
I0
sg9
F6.5521957428753268
sg10
S'S'
sg11
F0
sg12
S'D4?roll?'
p1103
sba(isaltybot
Fighter
p1104
(dp1105
g4
I0
sg5
S'Asuras (-2) - $141,410\r\n'
p1106
sg7
I0
sg8
I1
sg9
F-6.5521957428753268
sg10
S'S'
sg11
F0
sg12
S'Asuras'
p1107
sba(isaltybot
Fighter
p1108
(dp1109
g4
I0
sg5
S'Stevareno (-8) - $116,860'
p1110
sg7
I1
sg8
I0
sg9
F-6.0001454732158139
sg10
S'S'
sg11
F0
sg12
S'Stevareno'
p1111
sba(isaltybot
Fighter
p1112
(dp1113
g4
I0
sg5
S'Jam(ac) (1) - $701,177\r\n'
p1114
sg7
I0
sg8
I1
sg9
F6.0001454732158139
sg10
S'S'
sg11
F0
sg12
S'Jam(ac)'
p1115
sba(isaltybot
Fighter
p1116
(dp1117
g4
I0
sg5
S'Skullman (3) - $385,554'
p1118
sg7
I0
sg8
I1
sg9
F1.6265081588228345
sg10
S'S'
sg11
F0
sg12
S'Skullman'
p1119
sba(isaltybot
Fighter
p1120
(dp1121
g4
I0
sg5
S'Koakuma_hsts (-2) - $237,044\r\n'
p1122
sg7
I1
sg8
I0
sg9
F-1.6265081588228345
sg10
S'S'
sg11
F0
sg12
S'Koakuma_hsts'
p1123
sba(isaltybot
Fighter
p1124
(dp1125
g4
I0
sg5
S'Meiya (-5) - $181,938'
p1126
sg7
I0
sg8
I1
sg9
F-10.065698204882983
sg10
S'S'
sg11
F0
sg12
S'Meiya'
p1127
sba(isaltybot
Fighter
p1128
(dp1129
g4
I0
sg5
S'Justice (3) - $1,831,333\r\n'
p1130
sg7
I1
sg8
I0
sg9
F10.065698204882983
sg10
S'S'
sg11
F0
sg12
S'Justice'
p1131
sba(isaltybot
Fighter
p1132
(dp1133
g4
I0
sg5
S'P-silver (-1) - $5,117,978'
p1134
sg7
I1
sg8
I0
sg9
F46.733123316440668
sg10
S'S'
sg11
F0
sg12
S'P-silver'
p1135
sba(isaltybot
Fighter
p1136
(dp1137
g4
I0
sg5
S'Alder(seraph) (-5) - $109,515\r\n'
p1138
sg7
I0
sg8
I1
sg9
F-46.733123316440668
sg10
S'S'
sg11
F0
sg12
S'Alder(seraph)'
p1139
sba(isaltybot
Fighter
p1140
(dp1141
g4
I0
sg5
S'Harry EX3 (1) - $171,231'
p1142
sg7
I0
sg8
I1
sg9
F-1.6530301172100845
sg10
S'S'
sg11
F0
sg12
S'Harry EX3'
p1143
sba(isaltybot
Fighter
p1144
(dp1145
g4
I0
sg5
S'Kim hoon EX (1) - $283,050\r\n'
p1146
sg7
I1
sg8
I0
sg9
F1.6530301172100845
sg10
S'S'
sg11
F0
sg12
S'Kim hoon EX'
p1147
sba(isaltybot
Fighter
p1148
(dp1149
g4
I0
sg5
S'Sanic boom (2) - $838,846'
p1150
sg7
I1
sg8
I0
sg9
F5.2093823357718625
sg10
S'S'
sg11
F0
sg12
S'Sanic boom'
p1151
sba(isaltybot
Fighter
p1152
(dp1153
g4
I0
sg5
S'Daimon 71113 (-2) - $161,026\r\n'
p1154
sg7
I0
sg8
I1
sg9
F-5.2093823357718625
sg10
S'S'
sg11
F0
sg12
S'Daimon 71113'
p1155
sba(isaltybot
Fighter
p1156
(dp1157
g4
I0
sg5
S'H_gate_0350 (1) - $223,046'
p1158
sg7
I1
sg8
I0
sg9
F-1.063610196999722
sg10
S'A'
sg11
F0
sg12
S'H_gate_0350'
p1159
sba(isaltybot
Fighter
p1160
(dp1161
g4
I0
sg5
S'Orochi iori EX (-1) - $115,186\r\n'
p1162
sg7
I0
sg8
I2
sg9
F-4.378858293230171
sg10
S'A'
sg11
F0
sg12
S'Orochi iori EX'
p1163
sba(isaltybot
Fighter
p1164
(dp1165
g4
I0
sg5
S'Simonkin2005 (-2) - $251,852'
p1166
sg7
I0
sg8
I1
sg9
F3.3555659183265605
sg10
S'B'
sg11
F0
sg12
S'Simonkin2005'
p1167
sba(isaltybot
Fighter
p1168
(dp1169
g4
I0
sg5
S'Ryoko EX (-2) - $75,055\r\n'
p1170
sg7
I1
sg8
I0
sg9
F-3.3555659183265605
sg10
S'B'
sg11
F0
sg12
S'Ryoko EX'
p1171
sba(isaltybot
Fighter
p1172
(dp1173
g4
I0
sg5
S'Kyosuke shigure (1) - $338,907'
p1174
sg7
I0
sg8
I1
sg9
F2.0336209586443608
sg10
S'A'
sg11
F0
sg12
S'Kyosuke shigure'
p1175
sba(isaltybot
Fighter
p1176
(dp1177
g4
I0
sg5
S'Sub-zero EX (2) - $166,652\r\n'
p1178
sg7
I1
sg8
I0
sg9
F-2.0336209586443608
sg10
S'A'
sg11
F0
sg12
S'Sub-zero EX'
p1179
sba(isaltybot
Fighter
p1180
(dp1181
g4
I0
sg5
S'Scream (1) - $105,352'
p1182
sg7
I0
sg8
I1
sg9
F-2.6486635279823827
sg10
S'B'
sg11
F0
sg12
S'Scream'
p1183
sba(isaltybot
Fighter
p1184
(dp1185
g4
I0
sg5
S'Kintaro (-1) - $279,042\r\n'
p1186
sg7
I1
sg8
I0
sg9
F2.6486635279823827
sg10
S'B'
sg11
F0
sg12
S'Kintaro'
p1187
sba(isaltybot
Fighter
p1188
(dp1189
g4
I0
sg5
S'Bleyze (1) - $86,328\r\n'
p1190
sg7
I0
sg8
I1
sg9
F-5.9580553238810117
sg10
S'B'
sg11
F0
sg12
S'Bleyze'
p1191
sba(isaltybot
Fighter
p1192
(dp1193
g4
I0
sg5
S'Darkman (1) - $331,134'
p1194
sg7
I0
sg8
I1
sg9
F1.3119309672665034
sg10
S'A'
sg11
F0
sg12
S'Darkman'
p1195
sba(isaltybot
Fighter
p1196
(dp1197
g4
I0
sg5
S'Rin_tohsaka (1) - $252,402\r\n'
p1198
sg7
I1
sg8
I0
sg9
F-1.3119309672665034
sg10
S'A'
sg11
F0
sg12
S'Rin_tohsaka'
p1199
sba(isaltybot
Fighter
p1200
(dp1201
g4
I0
sg5
S'Lf2 - firen (4) - $495,422'
p1202
sg7
I1
sg8
I0
sg9
F2.6956606904807248
sg10
S'A'
sg11
F0
sg12
S'Lf2 - firen'
p1203
sba(isaltybot
Fighter
p1204
(dp1205
g4
I0
sg5
S'Evil barney (-4) - $699,722'
p1206
sg7
I1
sg8
I0
sg9
F6.8789704971539241
sg10
S'S'
sg11
F0
sg12
S'Evil barney'
p1207
sba(isaltybot
Fighter
p1208
(dp1209
g4
I0
sg5
S'Kuanyinshen_nagiai (1) - $101,719\r\n'
p1210
sg7
I0
sg8
I1
sg9
F-6.8789704971539241
sg10
S'S'
sg11
F0
sg12
S'Kuanyinshen_nagiai'
p1211
sba(isaltybot
Fighter
p1212
(dp1213
g4
I0
sg5
S'Genteki dan (6) - $343,863'
p1214
sg7
I0
sg8
I0
sg9
F4.0145585728629136
sg10
S'B'
sg11
F0
sg12
S'Genteki dan'
p1215
sba(isaltybot
Fighter
p1216
(dp1217
g4
I0
sg5
S'Psychopath kyo (5) - $85,654\r\n'
p1218
sg7
I0
sg8
I0
sg9
F-4.0145585728629136
sg10
S'B'
sg11
F0
sg12
S'Psychopath kyo'
p1219
sba(isaltybot
Fighter
p1220
(dp1221
g4
I0
sg5
S'Kyoko_typea (-3) - $139,331'
p1222
sg7
I0
sg8
I1
sg9
F1.4393252275239403
sg10
S'A'
sg11
F0
sg12
S'Kyoko_typea'
p1223
sba(isaltybot
Fighter
p1224
(dp1225
g4
I0
sg5
S'Jet (1) - $96,803\r\n'
p1226
sg7
I1
sg8
I0
sg9
F-1.4393252275239403
sg10
S'A'
sg11
F0
sg12
S'Jet'
p1227
sba(isaltybot
Fighter
p1228
(dp1229
g4
I0
sg5
S'Katakura kojuro (-1) - $187,400'
p1230
sg7
I1
sg8
I0
sg9
F-1.0040394877267875
sg10
S'A'
sg11
F0
sg12
S'Katakura kojuro'
p1231
sba(isaltybot
Fighter
p1232
(dp1233
g4
I0
sg5
S'Mami tomoe ai (-2) - $188,157\r\n'
p1234
sg7
I0
sg8
I1
sg9
F1.0040394877267875
sg10
S'A'
sg11
F0
sg12
S'Mami tomoe ai'
p1235
sba(isaltybot
Fighter
p1236
(dp1237
g4
I0
sg5
S'Etrigan (-1) - $256,328'
p1238
sg7
I1
sg8
I0
sg9
F2.8961325092930501
sg10
S'B'
sg11
F0
sg12
S'Etrigan'
p1239
sba(isaltybot
Fighter
p1240
(dp1241
g4
I0
sg5
S'D EX (-3) - $88,507\r\n'
p1242
sg7
I0
sg8
I1
sg9
F-2.8961325092930501
sg10
S'B'
sg11
F0
sg12
S'D EX'
p1243
sba(isaltybot
Fighter
p1244
(dp1245
g4
I0
sg5
S'Shanoa (5) - $197,643'
p1246
sg7
I1
sg8
I0
sg9
F1.8876536488925819
sg10
S'B'
sg11
F0
sg12
S'Shanoa'
p1247
sba(isaltybot
Fighter
p1248
(dp1249
g4
I0
sg5
S'Ami ex (1) - $104,703\r\n'
p1250
sg7
I0
sg8
I1
sg9
F-1.8876536488925819
sg10
S'B'
sg11
F0
sg12
S'Ami ex'
p1251
sba(isaltybot
Fighter
p1252
(dp1253
g4
I0
sg5
S'Cactuar (-2) - $131,932\r\n'
p1254
sg7
I0
sg8
I1
sg9
F-1.4648758451323409
sg10
S'B'
sg11
F0
sg12
S'Cactuar'
p1255
sba(isaltybot
Fighter
p1256
(dp1257
g4
I0
sg5
S'Fubuki (1) - $486,486'
p1258
sg7
I0
sg8
I1
sg9
F5.422752808988764
sg10
S'A'
sg11
F0
sg12
S'Fubuki'
p1259
sba(isaltybot
Fighter
p1260
(dp1261
g4
I0
sg5
S'Elirin EX3 (1) - $228,761\r\n'
p1262
sg7
I2
sg8
I0
sg9
F-1.7653246109077878
sg10
S'A'
sg11
F0
sg12
S'Elirin EX3'
p1263
sba(isaltybot
Fighter
p1264
(dp1265
g4
I0
sg5
S'Rebecca (-1) - $338,923'
p1266
sg7
I1
sg8
I0
sg9
F2.6224514272007675
sg10
S'B'
sg11
F0
sg12
S'Rebecca'
p1267
sba(isaltybot
Fighter
p1268
(dp1269
g4
I0
sg5
S'Scopedog (0) - $129,239\r\n'
p1270
sg7
I0
sg8
I1
sg9
F-2.6224514272007675
sg10
S'B'
sg11
F0
sg12
S'Scopedog'
p1271
sba(isaltybot
Fighter
p1272
(dp1273
g4
I0
sg5
S'Zatracenie (1) - $273,881\r\n'
p1274
sg7
I1
sg8
I1
sg9
F0.014454727029384551
sg10
S'S'
sg11
F0
sg12
S'Zatracenie'
p1275
sba(isaltybot
Fighter
p1276
(dp1277
g4
I0
sg5
S'Nanaya_s (1) - $80,184\r\n'
p1278
sg7
I0
sg8
I1
sg9
F-1.4691334929661779
sg10
S'S'
sg11
F0
sg12
S'Nanaya_s'
p1279
sba(isaltybot
Fighter
p1280
(dp1281
g4
I0
sg5
S'Bekkamu (-1) - $332,216'
p1282
sg7
I1
sg8
I0
sg9
F4.6143674648591588
sg10
S'B'
sg11
F0
sg12
S'Bekkamu'
p1283
sba(isaltybot
Fighter
p1284
(dp1285
g4
I0
sg5
S'Gotenks ssj (-9) - $71,996\r\n'
p1286
sg7
I0
sg8
I1
sg9
F-4.6143674648591588
sg10
S'B'
sg11
F0
sg12
S'Gotenks ssj'
p1287
sba(isaltybot
Fighter
p1288
(dp1289
g4
I0
sg5
S'Kazu (-2) - $399,493\r\n'
p1290
sg7
I1
sg8
I0
sg9
F5.5784204205881531
sg10
S'A'
sg11
F0
sg12
S'Kazu'
p1291
sba(isaltybot
Fighter
p1292
(dp1293
g4
I0
sg5
S'Satsujinki (1) - $476,996'
p1294
sg7
I2
sg8
I1
sg9
F0.33607438593080607
sg10
S'S'
sg11
F0
sg12
S'Satsujinki'
p1295
sba(isaltybot
Fighter
p1296
(dp1297
g4
I0
sg5
S'Deluxe may (1) - $126,601\r\n'
p1298
sg7
I1
sg8
I0
sg9
F-1.8895427366292525
sg10
S'S'
sg11
F0
sg12
S'Deluxe may'
p1299
sba(isaltybot
Fighter
p1300
(dp1301
g4
I0
sg5
S'Cliff-tsunade-godaime (9) - $411,222'
p1302
sg7
I0
sg8
I1
sg9
F2.5115554686927419
sg10
S'S'
sg11
F0
sg12
S'Cliff-tsunade-godaime'
p1303
sba(isaltybot
Fighter
p1304
(dp1305
g4
I0
sg5
S'Mai_k (-1) - $163,732\r\n'
p1306
sg7
I1
sg8
I0
sg9
F-2.5115554686927419
sg10
S'S'
sg11
F0
sg12
S'Mai_k'
p1307
sba(isaltybot
Fighter
p1308
(dp1309
g4
I0
sg5
S'Mario 119 (-5) - $167,897\r\n'
p1310
sg7
I0
sg8
I1
sg9
F-5.5354651959236909
sg10
S'S'
sg11
F0
sg12
S'Mario 119'
p1311
sba(isaltybot
Fighter
p1312
(dp1313
g4
I0
sg5
S'Vegeta z2 (1) - $214,402'
p1314
sg7
I1
sg8
I0
sg9
F1.0589008079969973
sg10
S'B'
sg11
F0
sg12
S'Vegeta z2'
p1315
sba(isaltybot
Fighter
p1316
(dp1317
g4
I0
sg5
S'Hinata Shippuden (1) - $202,476\r\n'
p1318
sg7
I0
sg8
I1
sg9
F-1.0589008079969973
sg10
S'B'
sg11
F0
sg12
S'Hinata Shippuden'
p1319
sba(isaltybot
Fighter
p1320
(dp1321
g4
I0
sg5
S'Gaira (-1) - $173,368'
p1322
sg7
I1
sg8
I0
sg9
F1.3998110632937966
sg10
S'B'
sg11
F0
sg12
S'Gaira'
p1323
sba(isaltybot
Fighter
p1324
(dp1325
g4
I0
sg5
S'Cham cham (2) - $123,851\r\n'
p1326
sg7
I0
sg8
I1
sg9
F-1.3998110632937966
sg10
S'B'
sg11
F0
sg12
S'Cham cham'
p1327
sba(isaltybot
Fighter
p1328
(dp1329
g4
I0
sg5
S'Warlock (1) - $97,183'
p1330
sg7
I0
sg8
I1
sg9
F-1.1907020775238468
sg10
S'A'
sg11
F0
sg12
S'Warlock'
p1331
sba(isaltybot
Fighter
p1332
(dp1333
g4
I0
sg5
S'Konata EX (5) - $229,626'
p1334
sg7
I1
sg8
I0
sg9
F2.5596762866602014
sg10
S'B'
sg11
F0
sg12
S'Konata EX'
p1335
sba(isaltybot
Fighter
p1336
(dp1337
g4
I0
sg5
S'Lee (2) - $89,709\r\n'
p1338
sg7
I0
sg8
I1
sg9
F-2.5596762866602014
sg10
S'B'
sg11
F0
sg12
S'Lee'
p1339
sba(isaltybot
Fighter
p1340
(dp1341
g4
I0
sg5
S'Arcadboy (-3) - $364,367\r\n'
p1342
sg7
I0
sg8
I1
sg9
F1.8068651224604155
sg10
S'S'
sg11
F0
sg12
S'Arcadboy'
p1343
sba(isaltybot
Fighter
p1344
(dp1345
g4
I0
sg5
S'Miyabi (-1) - $431,001\r\n'
p1346
sg7
I1
sg8
I0
sg9
F6.3405810959911735
sg10
S'S'
sg11
F0
sg12
S'Miyabi'
p1347
sba(isaltybot
Fighter
p1348
(dp1349
g4
I0
sg5
S'Baki-hanma ex (-5) - $140,573'
p1350
sg7
I1
sg8
I0
sg9
F-1.8147866233202679
sg10
S'S'
sg11
F0
sg12
S'Baki-hanma ex'
p1351
sba(isaltybot
Fighter
p1352
(dp1353
g4
I0
sg5
S'Holy ken (-1) - $255,110\r\n'
p1354
sg7
I0
sg8
I1
sg9
F1.8147866233202679
sg10
S'S'
sg11
F0
sg12
S'Holy ken'
p1355
sba(isaltybot
Fighter
p1356
(dp1357
g4
I0
sg5
S'Road runner (1) - $106,356'
p1358
sg7
I0
sg8
I1
sg9
F-1.6854996427093911
sg10
S'A'
sg11
F0
sg12
S'Road runner'
p1359
sba(isaltybot
Fighter
p1360
(dp1361
g4
I0
sg5
S'Ositi (-1) - $179,263\r\n'
p1362
sg7
I1
sg8
I0
sg9
F1.6854996427093911
sg10
S'A'
sg11
F0
sg12
S'Ositi'
p1363
sba(isaltybot
Fighter
p1364
(dp1365
g4
I0
sg5
S'Parace (1) - $312,725'
p1366
sg7
I1
sg8
I0
sg9
F3.0101259974396242
sg10
S'S'
sg11
F0
sg12
S'Parace'
p1367
sba(isaltybot
Fighter
p1368
(dp1369
g4
I0
sg5
S'Faust (-1) - $103,891\r\n'
p1370
sg7
I0
sg8
I1
sg9
F-3.0101259974396242
sg10
S'S'
sg11
F0
sg12
S'Faust'
p1371
sba(isaltybot
Fighter
p1372
(dp1373
g4
I0
sg5
S'Kyoko_typea EX3 (2) - $102,475'
p1374
sg7
I0
sg8
I1
sg9
F-2.9741205171993168
sg10
S'A'
sg11
F0
sg12
S'Kyoko_typea EX3'
p1375
sba(isaltybot
Fighter
p1376
(dp1377
g4
I0
sg5
S'Enegori (2) - $304,773\r\n'
p1378
sg7
I1
sg8
I0
sg9
F2.9741205171993168
sg10
S'A'
sg11
F0
sg12
S'Enegori'
p1379
sba(isaltybot
Fighter
p1380
(dp1381
g4
I0
sg5
S'Kira daidoji (-1) - $249,145'
p1382
sg7
I1
sg8
I0
sg9
F2.1390978089154475
sg10
S'A'
sg11
F0
sg12
S'Kira daidoji'
p1383
sba(isaltybot
Fighter
p1384
(dp1385
g4
I0
sg5
S'Assassin (1) - $116,472\r\n'
p1386
sg7
I0
sg8
I1
sg9
F-2.1390978089154475
sg10
S'A'
sg11
F0
sg12
S'Assassin'
p1387
sba(isaltybot
Fighter
p1388
(dp1389
g4
I0
sg5
S'Mo-mo- (1) - $170,194'
p1390
sg7
I0
sg8
I1
sg9
F1.9016939304549925
sg10
S'B'
sg11
F0
sg12
S'Mo-mo-'
p1391
sba(isaltybot
Fighter
p1392
(dp1393
g4
I0
sg5
S'Hinata wakaba (3) - $89,496\r\n'
p1394
sg7
I1
sg8
I0
sg9
F-1.9016939304549925
sg10
S'B'
sg11
F0
sg12
S'Hinata wakaba'
p1395
sba(isaltybot
Fighter
p1396
(dp1397
g4
I0
sg5
S'Vergil (-1) - $167,144'
p1398
sg7
I1
sg8
I0
sg9
F1.9358589777741746
sg10
S'B'
sg11
F0
sg12
S'Vergil'
p1399
sba(isaltybot
Fighter
p1400
(dp1401
g4
I0
sg5
S'Dare devil (3) - $86,341\r\n'
p1402
sg7
I0
sg8
I1
sg9
F-1.9358589777741746
sg10
S'B'
sg11
F0
sg12
S'Dare devil'
p1403
sba(isaltybot
Fighter
p1404
(dp1405
g4
I0
sg5
S'Sion tatari (1) - $144,088'
p1406
sg7
I0
sg8
I1
sg9
F-2.185442229748487
sg10
S'S'
sg11
F0
sg12
S'Sion tatari'
p1407
sba(isaltybot
Fighter
p1408
(dp1409
g4
I0
sg5
S'Titan the great (3) - $255,496\r\n'
p1410
sg7
I1
sg8
I0
sg9
F2.2410553737928374
sg10
S'A'
sg11
F0
sg12
S'Titan the great'
p1411
sba(isaltybot
Fighter
p1412
(dp1413
g4
I0
sg5
S'Al azif (-4) - $96,917'
p1414
sg7
I0
sg8
I1
sg9
F-8.290186448197943
sg10
S'S'
sg11
F0
sg12
S'Al azif'
p1415
sba(isaltybot
Fighter
p1416
(dp1417
g4
I0
sg5
S'Kohaku iqs (1) - $803,460\r\n'
p1418
sg7
I1
sg8
I0
sg9
F8.290186448197943
sg10
S'S'
sg11
F0
sg12
S'Kohaku iqs'
p1419
sba(isaltybot
Fighter
p1420
(dp1421
g4
I0
sg5
S'Mizore s. (1) - $109,377'
p1422
sg7
I0
sg8
I1
sg9
F-13.724320469568557
sg10
S'S'
sg11
F0
sg12
S'Mizore s.'
p1423
sba(isaltybot
Fighter
p1424
(dp1425
g4
I0
sg5
S'Washizuka b style (6) - $1,501,125\r\n'
p1426
sg7
I1
sg8
I0
sg9
F13.724320469568557
sg10
S'S'
sg11
F0
sg12
S'Washizuka b style'
p1427
sba(isaltybot
Fighter
p1428
(dp1429
g4
I0
sg5
S'Cody EX (4) - $138,214'
p1430
sg7
I0
sg8
I1
sg9
F-1.1124343409495421
sg10
S'A'
sg11
F0
sg12
S'Cody EX'
p1431
sba(isaltybot
Fighter
p1432
(dp1433
g4
I0
sg5
S'Black magician girl (-1) - $153,754\r\n'
p1434
sg7
I1
sg8
I0
sg9
F1.1124343409495421
sg10
S'A'
sg11
F0
sg12
S'Black magician girl'
p1435
sba(isaltybot
Fighter
p1436
(dp1437
g4
I0
sg5
S'Tung fu rue (-6) - $218,915'
p1438
sg7
I1
sg8
I0
sg9
F1.5709385517355205
sg10
S'B'
sg11
F0
sg12
S'Tung fu rue'
p1439
sba(isaltybot
Fighter
p1440
(dp1441
g4
I0
sg5
S'Sakata gintoki (-4) - $139,353\r\n'
p1442
sg7
I0
sg8
I1
sg9
F-1.5709385517355205
sg10
S'B'
sg11
F0
sg12
S'Sakata gintoki'
p1443
sba(isaltybot
Fighter
p1444
(dp1445
g4
I0
sg5
S'New rubber soul (3) - $793,702'
p1446
sg7
I1
sg8
I0
sg9
F10.723818788591194
sg10
S'S'
sg11
F0
sg12
S'New rubber soul'
p1447
sba(isaltybot
Fighter
p1448
(dp1449
g4
I0
sg5
S'Spitfire_m (-5) - $74,013\r\n'
p1450
sg7
I0
sg8
I1
sg9
F-10.723818788591194
sg10
S'S'
sg11
F0
sg12
S'Spitfire_m'
p1451
sba(isaltybot
Fighter
p1452
(dp1453
g4
I0
sg5
S'Fakir (-5) - $95,177'
p1454
sg7
I1
sg8
I0
sg9
F-4.6572386185738148
sg10
S'A'
sg11
F0
sg12
S'Fakir'
p1455
sba(isaltybot
Fighter
p1456
(dp1457
g4
I0
sg5
S'Utsuho_b (-1) - $443,262\r\n'
p1458
sg7
I0
sg8
I1
sg9
F4.6572386185738148
sg10
S'A'
sg11
F0
sg12
S'Utsuho_b'
p1459
sba(isaltybot
Fighter
p1460
(dp1461
g4
I0
sg5
S'Bebum ryo (3) - $400,662'
p1462
sg7
I0
sg8
I1
sg9
F3.7587669099574086
sg10
S'S'
sg11
F0
sg12
S'Bebum ryo'
p1463
sba(isaltybot
Fighter
p1464
(dp1465
g4
I0
sg5
S'Beatrice (-1) - $106,594\r\n'
p1466
sg7
I1
sg8
I0
sg9
F-3.7587669099574086
sg10
S'S'
sg11
F0
sg12
S'Beatrice'
p1467
sba(isaltybot
Fighter
p1468
(dp1469
g4
I0
sg5
S'Gill sf3 (1) - $1,220,914'
p1470
sg7
I1
sg8
I0
sg9
F5.0202055921052633
sg10
S'S'
sg11
F0
sg12
S'Gill sf3'
p1471
sba(isaltybot
Fighter
p1472
(dp1473
g4
I0
sg5
S'Kaede ngbc (-3) - $243,200\r\n'
p1474
sg7
I0
sg8
I1
sg9
F-5.0202055921052633
sg10
S'S'
sg11
F0
sg12
S'Kaede ngbc'
p1475
sba(isaltybot
Fighter
p1476
(dp1477
g4
I0
sg5
S'Sailor jupiter EX2 (-1) - $120,903'
p1478
sg7
I0
sg8
I1
sg9
F-1.8921035871731884
sg10
S'A'
sg11
F0
sg12
S'Sailor jupiter EX2'
p1479
sba(isaltybot
Fighter
p1480
(dp1481
g4
I0
sg5
S'S.sinclair EX (-1) - $510,853'
p1482
sg7
I1
sg8
I0
sg9
F2.1835897260537465
sg10
S'S'
sg11
F0
sg12
S'S.sinclair EX'
p1483
sba(isaltybot
Fighter
p1484
(dp1485
g4
I0
sg5
S'Robo-ky EX (-4) - $418,775'
p1486
sg7
I1
sg8
I1
sg9
F-1.8331917945533491
sg10
S'S'
sg11
F0
sg12
S'Robo-ky EX'
p1487
sba(isaltybot
Fighter
p1488
(dp1489
g4
I0
sg5
S'Evil q (-2) - $213,452'
p1490
sg7
I0
sg8
I1
sg9
F1.0526336553587896
sg10
S'A'
sg11
F0
sg12
S'Evil q'
p1491
sba(isaltybot
Fighter
p1492
(dp1493
g4
I0
sg5
S'Kasumi ex (5) - $202,779\r\n'
p1494
sg7
I1
sg8
I0
sg9
F-1.0526336553587896
sg10
S'A'
sg11
F0
sg12
S'Kasumi ex'
p1495
sba(isaltybot
Fighter
p1496
(dp1497
g4
I0
sg5
S'Dhaos (-5) - $358,350'
p1498
sg7
I0
sg8
I1
sg9
F1.7575912147414989
sg10
S'X'
sg11
F0
sg12
S'Dhaos'
p1499
sba(isaltybot
Fighter
p1500
(dp1501
g4
I0
sg5
S'Black demonica (1) - $203,887\r\n'
p1502
sg7
I1
sg8
I0
sg9
F-1.7575912147414989
sg10
S'X'
sg11
F0
sg12
S'Black demonica'
p1503
sba(isaltybot
Fighter
p1504
(dp1505
g4
I0
sg5
S'Jean_pau (1) - $268,246'
p1506
sg7
I1
sg8
I0
sg9
F1.4637135498515803
sg10
S'S'
sg11
F0
sg12
S'Jean_pau'
p1507
sba(isaltybot
Fighter
p1508
(dp1509
g4
I0
sg5
S'Naruto kun (-1) - $183,264\r\n'
p1510
sg7
I0
sg8
I1
sg9
F-1.4637135498515803
sg10
S'S'
sg11
F0
sg12
S'Naruto kun'
p1511
sba(isaltybot
Fighter
p1512
(dp1513
g4
I0
sg5
S'Jhons lee (3) - $124,053'
p1514
sg7
I0
sg8
I0
sg9
F-1.5015195118215601
sg10
S'B'
sg11
F0
sg12
S'Jhons lee'
p1515
sba(isaltybot
Fighter
p1516
(dp1517
g4
I0
sg5
S'Luise EX2 (2) - $186,268\r\n'
p1518
sg7
I0
sg8
I0
sg9
F1.5015195118215601
sg10
S'B'
sg11
F0
sg12
S'Luise EX2'
p1519
sba(isaltybot
Fighter
p1520
(dp1521
g4
I0
sg5
S'Aner rolange EX3 (3) - $282,993'
p1522
sg7
I1
sg8
I0
sg9
F4.8052876451810089
sg10
S'B'
sg11
F0
sg12
S'Aner rolange EX3'
p1523
sba(isaltybot
Fighter
p1524
(dp1525
g4
I0
sg5
S'Young Heihachi (-1) - $58,892\r\n'
p1526
sg7
I0
sg8
I1
sg9
F-4.8052876451810089
sg10
S'B'
sg11
F0
sg12
S'Young Heihachi'
p1527
sba(isaltybot
Fighter
p1528
(dp1529
g4
I0
sg5
S'Fire_fairy (-3) - $301,416'
p1530
sg7
I1
sg8
I0
sg9
F2.0683181225554108
sg10
S'X'
sg11
F0
sg12
S'Fire_fairy'
p1531
sba(isaltybot
Fighter
p1532
(dp1533
g4
I0
sg5
S'Kiruo_v1.18 (-1) - $79,226'
p1534
sg7
I0
sg8
I2
sg9
F-4.3469225480118583
sg10
S'X'
sg11
F0
sg12
S'Kiruo_v1.18'
p1535
sba(isaltybot
Fighter
p1536
(dp1537
g4
I0
sg5
S'Mega tigerzord (-1) - $173,994'
p1538
sg7
I1
sg8
I0
sg9
F-1.0594273365748244
sg10
S'B'
sg11
F0
sg12
S'Mega tigerzord'
p1539
sba(isaltybot
Fighter
p1540
(dp1541
g4
I0
sg5
S'Fat albert (-4) - $184,334\r\n'
p1542
sg7
I0
sg8
I1
sg9
F1.0594273365748244
sg10
S'B'
sg11
F0
sg12
S'Fat albert'
p1543
sba(isaltybot
Fighter
p1544
(dp1545
g4
I0
sg5
S'Mech gouki (1) - $419,485'
p1546
sg7
I0
sg8
I1
sg9
F1.0420848404149607
sg10
S'B'
sg11
F0
sg12
S'Mech gouki'
p1547
sba(isaltybot
Fighter
p1548
(dp1549
g4
I0
sg5
S'Master taekuk (2) - $402,544\r\n'
p1550
sg7
I1
sg8
I0
sg9
F-1.0420848404149607
sg10
S'B'
sg11
F0
sg12
S'Master taekuk'
p1551
sba(isaltybot
Fighter
p1552
(dp1553
g4
I0
sg5
S'Hisame_shizumaru_ph_ai (-2) - $524,914\r\n'
p1554
sg7
I1
sg8
I0
sg9
F6.6255269734683058
sg10
S'X'
sg11
F0
sg12
S'Hisame_shizumaru_ph_ai'
p1555
sba(isaltybot
Fighter
p1556
(dp1557
g4
I0
sg5
S'Flan ex (-3) - $196,434'
p1558
sg7
I0
sg8
I1
sg9
F-4.2660944642984413
sg10
S'X'
sg11
F0
sg12
S'Flan ex'
p1559
sba(isaltybot
Fighter
p1560
(dp1561
g4
I0
sg5
S'Hige (-3) - $838,006\r\n'
p1562
sg7
I1
sg8
I0
sg9
F4.2660944642984413
sg10
S'X'
sg11
F0
sg12
S'Hige'
p1563
sba(isaltybot
Fighter
p1564
(dp1565
g4
I0
sg5
S'Pyro (2) - $155,017'
p1566
sg7
I1
sg8
I0
sg9
F1.2148286887558384
sg10
S'B'
sg11
F0
sg12
S'Pyro'
p1567
sba(isaltybot
Fighter
p1568
(dp1569
g4
I0
sg5
S'Goten gt nex (2) - $127,604\r\n'
p1570
sg7
I0
sg8
I1
sg9
F-1.2148286887558384
sg10
S'B'
sg11
F0
sg12
S'Goten gt nex'
p1571
sba(isaltybot
Fighter
p1572
(dp1573
g4
I0
sg5
S'Mercurius (-4) - $297,337'
p1574
sg7
I1
sg8
I0
sg9
F2.5813640546594203
sg10
S'A'
sg11
F0
sg12
S'Mercurius'
p1575
sba(isaltybot
Fighter
p1576
(dp1577
g4
I0
sg5
S"Billy 'big bang' blitz (4) - $488,981"
p1578
sg7
I1
sg8
I0
sg9
F9.5060362759773707
sg10
S'S'
sg11
F0
sg12
S"Billy 'big bang' blitz"
p1579
sba(isaltybot
Fighter
p1580
(dp1581
g4
I0
sg5
S'Foz (-4) - $51,439\r\n'
p1582
sg7
I0
sg8
I1
sg9
F-9.5060362759773707
sg10
S'S'
sg11
F0
sg12
S'Foz'
p1583
sba(isaltybot
Fighter
p1584
(dp1585
g4
I0
sg5
S'Sakura Cosplay (-7) - $48,444'
p1586
sg7
I0
sg8
I0
sg9
F-39.756873916274458
sg10
S'B'
sg11
F0
sg12
S'Sakura Cosplay'
p1587
sba(isaltybot
Fighter
p1588
(dp1589
g4
I0
sg5
S'Usada hikaru (1) - $1,925,982\r\n'
p1590
sg7
I0
sg8
I0
sg9
F39.756873916274458
sg10
S'B'
sg11
F0
sg12
S'Usada hikaru'
p1591
sba(isaltybot
Fighter
p1592
(dp1593
g4
I0
sg5
S'Yu-lan (2) - $125,428'
p1594
sg7
I0
sg8
I1
sg9
F-1.1554198424594189
sg10
S'A'
sg11
F0
sg12
S'Yu-lan'
p1595
sba(isaltybot
Fighter
p1596
(dp1597
g4
I0
sg5
S'Gekka suika (-5) - $144,922\r\n'
p1598
sg7
I1
sg8
I0
sg9
F1.1554198424594189
sg10
S'A'
sg11
F0
sg12
S'Gekka suika'
p1599
sba(isaltybot
Fighter
p1600
(dp1601
g4
I0
sg5
S'Franky CM (-1) - $79,449'
p1602
sg7
I0
sg8
I1
sg9
F-3.0476280381124998
sg10
S'B'
sg11
F0
sg12
S'Franky CM'
p1603
sba(isaltybot
Fighter
p1604
(dp1605
g4
I0
sg5
S'Diablo_skeleton EX3 (1) - $727,529\r\n'
p1606
sg7
I2
sg8
I0
sg9
F5.6938949526585976
sg10
S'B'
sg11
F0
sg12
S'Diablo_skeleton EX3'
p1607
sba(isaltybot
Fighter
p1608
(dp1609
g4
I0
sg5
S'Randy m. green EX (2) - $237,277'
p1610
sg7
I1
sg8
I0
sg9
F1.6114435125131583
sg10
S'B'
sg11
F0
sg12
S'Randy m. green EX'
p1611
sba(isaltybot
Fighter
p1612
(dp1613
g4
I0
sg5
S'Pucca-toppo (-1) - $147,245\r\n'
p1614
sg7
I0
sg8
I1
sg9
F-1.6114435125131583
sg10
S'B'
sg11
F0
sg12
S'Pucca-toppo'
p1615
sba(isaltybot
Fighter
p1616
(dp1617
g4
I0
sg5
S'Bloodbane (29) - $487,306'
p1618
sg7
I0
sg8
I0
sg9
F3.7943906313265021
sg10
S'S'
sg11
F0
sg12
S'Bloodbane'
p1619
sba(isaltybot
Fighter
p1620
(dp1621
g4
I0
sg5
S'Mawile (1) - $128,428\r\n'
p1622
sg7
I0
sg8
I0
sg9
F-3.7943906313265021
sg10
S'S'
sg11
F0
sg12
S'Mawile'
p1623
sba(isaltybot
Fighter
p1624
(dp1625
g4
I0
sg5
S'Kotiya sanae (-1) - $116,341'
p1626
sg7
I0
sg8
I1
sg9
F1.0056618778417441
sg10
S'S'
sg11
F0
sg12
S'Kotiya sanae'
p1627
sba(isaltybot
Fighter
p1628
(dp1629
g4
I0
sg5
S'Samwell han (1) - $119,687'
p1630
sg7
I1
sg8
I1
sg9
F-3.0399485874541297
sg10
S'S'
sg11
F0
sg12
S'Samwell han'
p1631
sba(isaltybot
Fighter
p1632
(dp1633
g4
I0
sg5
S'Zankuro EX2 (-1) - $108,961'
p1634
sg7
I0
sg8
I1
sg9
F-2.302750525417351
sg10
S'S'
sg11
F0
sg12
S'Zankuro EX2'
p1635
sba(isaltybot
Fighter
p1636
(dp1637
g4
I0
sg5
S'Physalis (3) - $370,715'
p1638
sg7
I4
sg8
I0
sg9
F1.5980617816222815
sg10
S'S'
sg11
F0
sg12
S'Physalis'
p1639
sba(isaltybot
Fighter
p1640
(dp1641
g4
I0
sg5
S'Saint kyo (-1) - $262,548'
p1642
sg7
I0
sg8
I1
sg9
F1.9007449558021849
sg10
S'S'
sg11
F0
sg12
S'Saint kyo'
p1643
sba(isaltybot
Fighter
p1644
(dp1645
g4
I0
sg5
S'Saizo (-1) - $148,858\r\n:xblade13!xblade13@xblade13.tmi.twitch.tv PRIVMSG #saltybet :red always breaking screens\r\n'
p1646
sg7
I1
sg8
I2
sg9
F-1.8891655343384985
sg10
S'S'
sg11
F0
sg12
S'Saizo'
p1647
sba(isaltybot
Fighter
p1648
(dp1649
g4
I0
sg5
S'Shimo EX (-2) - $261,292\r\n'
p1650
sg7
I0
sg8
I1
sg9
F1.6712633679578366
sg10
S'S'
sg11
F0
sg12
S'Shimo EX'
p1651
sba(isaltybot
Fighter
p1652
(dp1653
g4
I0
sg5
S'Umvc_aya (5) - $405,745'
p1654
sg7
I0
sg8
I1
sg9
F2.4445562390422886
sg10
S'S'
sg11
F0
sg12
S'Umvc_aya'
p1655
sba(isaltybot
Fighter
p1656
(dp1657
g4
I0
sg5
S'Blue mary (3) - $142,280'
p1658
sg7
I2
sg8
I1
sg9
F-2.470514296949323
sg10
S'S'
sg11
F0
sg12
S'Blue mary'
p1659
sba(isaltybot
Fighter
p1660
(dp1661
g4
I0
sg5
S'Reimu-q (2) - $234,301\r\n'
p1662
sg7
I1
sg8
I1
sg9
F1.6165643217289143
sg10
S'S'
sg11
F0
sg12
S'Reimu-q'
p1663
sba(isaltybot
Fighter
p1664
(dp1665
g4
I0
sg5
S'Soushihan k.s.k 12p color (-2) - $203,618\r\n'
p1666
sg7
I0
sg8
I1
sg9
F-1.9889842744747517
sg10
S'S'
sg11
F0
sg12
S'Soushihan k.s.k 12p color'
p1667
sba(isaltybot
Fighter
p1668
(dp1669
g4
I0
sg5
S'A.b.a (3) - $542,908\r\n'
p1670
sg7
I3
sg8
I2
sg9
F0.42071716755785538
sg10
S'S'
sg11
F0
sg12
S'A.b.a'
p1671
sba(isaltybot
Fighter
p1672
(dp1673
g4
I0
sg5
S'Ratking (2) - $150,382\r\n'
p1674
sg7
I0
sg8
I1
sg9
F-4.1327751991594734
sg10
S'S'
sg11
F0
sg12
S'Ratking'
p1675
sba(isaltybot
Fighter
p1676
(dp1677
g4
I0
sg5
S'Sunflower fairy (-1) - $146,903'
p1678
sg7
I0
sg8
I1
sg9
F-4.2850860772074091
sg10
S'S'
sg11
F0
sg12
S'Sunflower fairy'
p1679
sba(isaltybot
Fighter
p1680
(dp1681
g4
I0
sg5
S'Judgment EX3 (1) - $101,246\r\n'
p1682
sg7
I1
sg8
I1
sg9
F-0.56477873213291696
sg10
S'S'
sg11
F0
sg12
S'Judgment EX3'
p1683
sba(isaltybot
Fighter
p1684
(dp1685
g4
I0
sg5
S'Kencyan- $382,382'
p1686
sg7
I0
sg8
I1
sg9
F1.1206778309877317
sg10
S'S'
sg11
F0
sg12
S'Kencyan'
p1687
sba(isaltybot
Fighter
p1688
(dp1689
g4
I0
sg5
S'Gatocyu- $341,206\r\n'
p1690
sg7
I1
sg8
I0
sg9
F-1.1206778309877317
sg10
S'S'
sg11
F0
sg12
S'Gatocyu'
p1691
sba(isaltybot
Fighter
p1692
(dp1693
g4
I0
sg5
S'Supermario64- $181,746'
p1694
sg7
I1
sg8
I0
sg9
F1.382845490721226
sg10
S'Unknown'
p1695
sg11
F0
sg12
S'Supermario64'
p1696
sba(isaltybot
Fighter
p1697
(dp1698
g4
I0
sg5
S'Rare nabeatu- $131,429\r\n'
p1699
sg7
I0
sg8
I1
sg9
F-1.382845490721226
sg10
g1695
sg11
F0
sg12
S'Rare nabeatu'
p1700
sba(isaltybot
Fighter
p1701
(dp1702
g4
I0
sg5
S'Lucario- $170,574'
p1703
sg7
I1
sg8
I0
sg9
F1.958482117228314
sg10
g1695
sg11
F0
sg12
S'Lucario'
p1704
sba(isaltybot
Fighter
p1705
(dp1706
g4
I0
sg5
S'Ditto- $87,095\r\n'
p1707
sg7
I0
sg8
I1
sg9
F-1.958482117228314
sg10
g1695
sg11
F0
sg12
S'Ditto'
p1708
sba(isaltybot
Fighter
p1709
(dp1710
g4
I0
sg5
S'Mr.satan- $136,721'
p1711
sg7
I0
sg8
I1
sg9
F-2.6122468384520299
sg10
g1695
sg11
F0
sg12
S'Mr.satan'
p1712
sba(isaltybot
Fighter
p1713
(dp1714
g4
I0
sg5
S'Perfect cell- $357,149\r\n'
p1715
sg7
I1
sg8
I0
sg9
F2.6122468384520299
sg10
g1695
sg11
F0
sg12
S'Perfect cell'
p1716
sba(isaltybot
Fighter
p1717
(dp1718
g4
I0
sg5
S'G-gonzales- $1,050,253'
p1719
sg7
I0
sg8
I1
sg9
F5.6304474859406746
sg10
g1695
sg11
F0
sg12
S'G-gonzales'
p1720
sba(isaltybot
Fighter
p1721
(dp1722
g4
I0
sg5
S'Athena type_h- $186,531\r\n'
p1723
sg7
I1
sg8
I0
sg9
F-5.6304474859406746
sg10
g1695
sg11
F0
sg12
S'Athena type_h'
p1724
sba(isaltybot
Fighter
p1725
(dp1726
g4
I0
sg5
S'Ace other kula- $96,739'
p1727
sg7
I0
sg8
I1
sg9
F-7.7942608461943994
sg10
S'W'
sg11
F0
sg12
S'Ace other kula'
p1728
sba(isaltybot
Fighter
p1729
(dp1730
g4
I0
sg5
S'World breaker- $754,009\r\n'
p1731
sg7
I1
sg8
I0
sg9
F7.7942608461943994
sg10
S'W'
sg11
F0
sg12
S'World breaker'
p1732
sba(isaltybot
Fighter
p1733
(dp1734
g4
I0
sg5
S'Majic-pot (1) - $151,841'
p1735
sg7
I1
sg8
I0
sg9
F1.1368918372542267
sg10
S'B'
sg11
F0
sg12
S'Majic-pot'
p1736
sba(isaltybot
Fighter
p1737
(dp1738
g4
I0
sg5
S'Lilith aensland (1) - $133,558\r\n'
p1739
sg7
I0
sg8
I1
sg9
F-1.1368918372542267
sg10
S'B'
sg11
F0
sg12
S'Lilith aensland'
p1740
sba(isaltybot
Fighter
p1741
(dp1742
g4
I0
sg5
S'Fernandeath 2 (3) - $808,213'
p1743
sg7
I1
sg8
I0
sg9
F2.9005530413686427
sg10
S'S'
sg11
F0
sg12
S'Fernandeath 2'
p1744
sba(isaltybot
Fighter
p1745
(dp1746
g4
I0
sg5
S'Namazu (3) - $278,641\r\n'
p1747
sg7
I0
sg8
I1
sg9
F-2.9005530413686427
sg10
S'S'
sg11
F0
sg12
S'Namazu'
p1748
sba(isaltybot
Fighter
p1749
(dp1750
g4
I0
sg5
S'Sheana (-2) - $94,240'
p1751
sg7
I1
sg8
I0
sg9
F-10.975116723259763
sg10
S'S'
sg11
F0
sg12
S'Sheana'
p1752
sba(isaltybot
Fighter
p1753
(dp1754
g4
I0
sg5
S'Dinotank (7) - $1,034,295\r\n'
p1755
sg7
I0
sg8
I1
sg9
F10.975116723259763
sg10
S'S'
sg11
F0
sg12
S'Dinotank'
p1756
sba(isaltybot
Fighter
p1757
(dp1758
g4
I0
sg5
S'Psylocke EX2 (4) - $394,450'
p1759
sg7
I1
sg8
I0
sg9
F1.4402240389074088
sg10
S'S'
sg11
F0
sg12
S'Psylocke EX2'
p1760
sba(isaltybot
Fighter
p1761
(dp1762
g4
I0
sg5
S'Peeking lord pirate (-3) - $132,517'
p1763
sg7
I0
sg8
I1
sg9
F-5.0689722828014521
sg10
S'B'
sg11
F0
sg12
S'Peeking lord pirate'
p1764
sba(isaltybot
Fighter
p1765
(dp1766
g4
I0
sg5
S'Club ace (-1) - $671,725\r\n'
p1767
sg7
I1
sg8
I0
sg9
F5.0689722828014521
sg10
S'B'
sg11
F0
sg12
S'Club ace'
p1768
sba(isaltybot
Fighter
p1769
(dp1770
g4
I0
sg5
S'Solid snake (1) - $67,880'
p1771
sg7
I0
sg8
I0
sg9
F-6.6591779611078374
sg10
S'B'
sg11
F0
sg12
S'Solid snake'
p1772
sba(isaltybot
Fighter
p1773
(dp1774
g4
I0
sg5
S'Ferroman (4) - $452,025\r\n'
p1775
sg7
I0
sg8
I0
sg9
F6.6591779611078374
sg10
S'B'
sg11
F0
sg12
S'Ferroman'
p1776
sba(isaltybot
Fighter
p1777
(dp1778
g4
I0
sg5
S'Elita one (-7) - $162,811'
p1779
sg7
I0
sg8
I1
sg9
F-4.1331973883828486
sg10
S'B'
sg11
F0
sg12
S'Elita one'
p1780
sba(isaltybot
Fighter
p1781
(dp1782
g4
I0
sg5
S'Syaoran (3) - $672,930\r\n'
p1783
sg7
I1
sg8
I0
sg9
F4.1331973883828486
sg10
S'B'
sg11
F0
sg12
S'Syaoran'
p1784
sba(isaltybot
Fighter
p1785
(dp1786
g4
I0
sg5
S'Deluxe kung fu man (1) - $489,154\r\n'
p1787
sg7
I0
sg8
I1
sg9
F3.4499456928046492
sg10
S'S'
sg11
F0
sg12
S'Deluxe kung fu man'
p1788
sba(isaltybot
Fighter
p1789
(dp1790
g4
I0
sg5
S'Torozo (5) - $158,487'
p1791
sg7
I0
sg8
I1
sg9
F-2.0245635288698756
sg10
S'A'
sg11
F0
sg12
S'Torozo'
p1792
sba(isaltybot
Fighter
p1793
(dp1794
g4
I0
sg5
S'Sayuri bernstein (4) - $320,867\r\n'
p1795
sg7
I1
sg8
I0
sg9
F2.0245635288698756
sg10
S'A'
sg11
F0
sg12
S'Sayuri bernstein'
p1796
sba(isaltybot
Fighter
p1797
(dp1798
g4
I0
sg5
S'Seth SF4 (-4) - $125,243'
p1799
sg7
I0
sg8
I0
sg9
F-3.1160144678744519
sg10
S'B'
sg11
F0
sg12
S'Seth SF4'
p1800
sba(isaltybot
Fighter
p1801
(dp1802
g4
I0
sg5
S'Yami_miko (-1) - $390,259\r\n'
p1803
sg7
I0
sg8
I0
sg9
F3.1160144678744519
sg10
S'B'
sg11
F0
sg12
S'Yami_miko'
p1804
sba(isaltybot
Fighter
p1805
(dp1806
g4
I0
sg5
S'Real zeroko (4) - $796,434'
p1807
sg7
I1
sg8
I0
sg9
F2.4749193603520179
sg10
S'S'
sg11
F0
sg12
S'Real zeroko'
p1808
sba(isaltybot
Fighter
p1809
(dp1810
g4
I0
sg5
S'Dragon EX (1) - $356,363'
p1811
sg7
I1
sg8
I0
sg9
F-1.5234690470110532
sg10
S'S'
sg11
F0
sg12
S'Dragon EX'
p1812
sba(isaltybot
Fighter
p1813
(dp1814
g4
I0
sg5
S'S.geist (4) - $351,614'
p1815
sg7
I1
sg8
I0
sg9
F-1.1667282872695626
sg10
S'S'
sg11
F0
sg12
S'S.geist'
p1816
sba(isaltybot
Fighter
p1817
(dp1818
g4
I0
sg5
S'Real gloria (6) - $410,238\r\n'
p1819
sg7
I0
sg8
I1
sg9
F1.1667282872695626
sg10
S'S'
sg11
F0
sg12
S'Real gloria'
p1820
sba(isaltybot
Fighter
p1821
(dp1822
g4
I0
sg5
S'Hasshie (5) - $973,368'
p1823
sg7
I0
sg8
I1
sg9
F4.43050200958593
sg10
S'B'
sg11
F0
sg12
S'Hasshie'
p1824
sba(isaltybot
Fighter
p1825
(dp1826
g4
I0
sg5
S'Shogun EX3 (0) - $219,697\r\n'
p1827
sg7
I1
sg8
I0
sg9
F-4.43050200958593
sg10
S'B'
sg11
F0
sg12
S'Shogun EX3'
p1828
sba(isaltybot
Fighter
p1829
(dp1830
g4
I0
sg5
S'Ray mcdogall (2) - $756,026'
p1831
sg7
I0
sg8
I1
sg9
F1.2173939647676404
sg10
S'S'
sg11
F0
sg12
S'Ray mcdogall'
p1832
sba(isaltybot
Fighter
p1833
(dp1834
g4
I0
sg5
S'Kohaku K (-4) - $87,232'
p1835
sg7
I0
sg8
I1
sg9
F-8.3401618672046958
sg10
S'B'
sg11
F0
sg12
S'Kohaku K'
p1836
sba(isaltybot
Fighter
p1837
(dp1838
g4
I0
sg5
S'Nash (1) - $312,960'
p1839
sg7
I1
sg8
I0
sg9
F-1.8408135224948876
sg10
S'A'
sg11
F0
sg12
S'Nash'
p1840
sba(isaltybot
Fighter
p1841
(dp1842
g4
I0
sg5
S'Katana (-1) - $576,101\r\n'
p1843
sg7
I0
sg8
I1
sg9
F1.8408135224948876
sg10
S'A'
sg11
F0
sg12
S'Katana'
p1844
sba(isaltybot
Fighter
p1845
(dp1846
g4
I0
sg5
S'Homura & friends (11) - $5,759,162'
p1847
sg7
I1
sg8
I0
sg9
F36.379475452914569
sg10
S'S'
sg11
F0
sg12
S'Homura & friends'
p1848
sba(isaltybot
Fighter
p1849
(dp1850
g4
I0
sg5
S'Mc hisui (-4) - $158,308\r\n'
p1851
sg7
I0
sg8
I1
sg9
F-36.379475452914569
sg10
S'S'
sg11
F0
sg12
S'Mc hisui'
p1852
sba(isaltybot
Fighter
p1853
(dp1854
g4
I0
sg5
S'Piccolo (5) - $134,164'
p1855
sg7
I0
sg8
I1
sg9
F0
sg10
S'B'
sg11
F0
sg12
S'Piccolo'
p1856
sba(isaltybot
Fighter
p1857
(dp1858
g4
I0
sg5
S'Squall EX2 (2) - $250,432\r\n:shinigamihunter!shinigamihunter@shinigamihunter.tmi.twitch.tv PRIVMSG #saltybet :ayy yajiBRObe in the back\r\n'
p1859
sg7
I1
sg8
I0
sg9
F0
sg10
S'B'
sg11
F0
sg12
S'Squall EX2'
p1860
sba(isaltybot
Fighter
p1861
(dp1862
g4
I0
sg5
S'Jupiter (-2) - $505,670'
p1863
sg7
I0
sg8
I1
sg9
F2.1773221267287854
sg10
S'A'
sg11
F0
sg12
S'Jupiter'
p1864
sba(isaltybot
Fighter
p1865
(dp1866
g4
I0
sg5
S'Yurika kirishima (-6) - $232,244\r\n'
p1867
sg7
I1
sg8
I0
sg9
F-2.1773221267287854
sg10
S'A'
sg11
F0
sg12
S'Yurika kirishima'
p1868
sba(isaltybot
Fighter
p1869
(dp1870
g4
I0
sg5
S'Hugo (-1) - $2,885,548'
p1871
sg7
I1
sg8
I0
sg9
F60.604204734001215
sg10
S'B'
sg11
F0
sg12
S'Hugo'
p1872
sba(isaltybot
Fighter
p1873
(dp1874
g4
I0
sg5
S'Honda asuka (-5) - $47,613\r\n'
p1875
sg7
I0
sg8
I1
sg9
F-60.604204734001215
sg10
S'B'
sg11
F0
sg12
S'Honda asuka'
p1876
sba(isaltybot
Fighter
p1877
(dp1878
g4
I0
sg5
S'Kid trunks (2) - $147,801'
p1879
sg7
I0
sg8
I1
sg9
F-1.2024478860088903
sg10
S'B'
sg11
F0
sg12
S'Kid trunks'
p1880
sba(isaltybot
Fighter
p1881
(dp1882
g4
I0
sg5
S'Ape man (-1) - $177,723\r\n'
p1883
sg7
I1
sg8
I0
sg9
F1.2024478860088903
sg10
S'B'
sg11
F0
sg12
S'Ape man'
p1884
sba(isaltybot
Fighter
p1885
(dp1886
g4
I0
sg5
S'Strawbelly jam (4) - $779,364'
p1887
sg7
I1
sg8
I0
sg9
F5.482224504438598
sg10
S'B'
sg11
F0
sg12
S'Strawbelly jam'
p1888
sba(isaltybot
Fighter
p1889
(dp1890
g4
I0
sg5
S'Practice Vegeta (-2) - $142,162\r\n'
p1891
sg7
I0
sg8
I1
sg9
F-5.482224504438598
sg10
S'B'
sg11
F0
sg12
S'Practice Vegeta'
p1892
sba(isaltybot
Fighter
p1893
(dp1894
g4
I0
sg5
S'Lightning bd (-1) - $229,973'
p1895
sg7
I0
sg8
I1
sg9
F-8.4256977993068745
sg10
S'S'
sg11
F0
sg12
S'Lightning bd'
p1896
sba(isaltybot
Fighter
p1897
(dp1898
g4
I0
sg5
S'Arrange_mishio (-3) - $1,937,683\r\n'
p1899
sg7
I1
sg8
I0
sg9
F8.4256977993068745
sg10
S'S'
sg11
F0
sg12
S'Arrange_mishio'
p1900
sba(isaltybot
Fighter
p1901
(dp1902
g4
I0
sg5
S'Gigapowier loves dark ruler (-3) - $637,857'
p1903
sg7
I0
sg8
I1
sg9
F0
sg10
S'S'
sg11
F0
sg12
S'Gigapowier loves dark ruler'
p1904
sba(isaltybot
Fighter
p1905
(dp1906
g4
I0
sg5
S'Takano_miyo (3) - $279,389\r\n:dakota2005!dakota2005@dakota2005.tmi.twitch.tv PRIVMSG #saltybet :!callsalty\r\n'
p1907
sg7
I1
sg8
I0
sg9
F0
sg10
S'S'
sg11
F0
sg12
S'Takano_miyo'
p1908
sba(isaltybot
Fighter
p1909
(dp1910
g4
I0
sg5
S'Alyssa ex (-2) - $1,114,455'
p1911
sg7
I1
sg8
I1
sg9
F-1.7476879692426679
sg10
S'S'
sg11
F0
sg12
S'Alyssa ex'
p1912
sba(isaltybot
Fighter
p1913
(dp1914
g4
I0
sg5
S'Dbloodbane (11) - $1,308,270\r\n'
p1915
sg7
I1
sg8
I0
sg9
F7.2624374104872826
sg10
S'S'
sg11
F0
sg12
S'Dbloodbane'
p1916
sba(isaltybot
Fighter
p1917
(dp1918
g4
I0
sg5
S'Mecha dragon (1) - $3,467,535'
p1919
sg7
I0
sg8
I0
sg9
F44.550389290027496
sg10
S'X'
sg11
F0
sg12
S'Mecha dragon'
p1920
sba(isaltybot
Fighter
p1921
(dp1922
g4
I0
sg5
S'Famardy (-3) - $77,834\r\n'
p1923
sg7
I0
sg8
I0
sg9
F-44.550389290027496
sg10
S'X'
sg11
F0
sg12
S'Famardy'
p1924
sba(isaltybot
Fighter
p1925
(dp1926
g4
I0
sg5
S'Gehorsam (1) - $191,484'
p1927
sg7
I0
sg8
I1
sg9
F1.7804680744232755
sg10
S'A'
sg11
F0
sg12
S'Gehorsam'
p1928
sba(isaltybot
Fighter
p1929
(dp1930
g4
I0
sg5
S'Phantomsheet (1) - $147,856\r\n'
p1931
sg7
I1
sg8
I1
sg9
F-1.6480423101258244
sg10
S'A'
sg11
F0
sg12
S'Phantomsheet'
p1932
sba(isaltybot
Fighter
p1933
(dp1934
g4
I0
sg5
S'Evil ryu sf3 (-1) - $113,810'
p1935
sg7
I0
sg8
I1
sg9
F-45.173455759599335
sg10
S'S'
sg11
F0
sg12
S'Evil ryu sf3'
p1936
sba(isaltybot
Fighter
p1937
(dp1938
g4
I0
sg5
S'Shin golem (6) - $5,141,191\r\n'
p1939
sg7
I1
sg8
I0
sg9
F45.173455759599335
sg10
S'S'
sg11
F0
sg12
S'Shin golem'
p1940
sba(isaltybot
Fighter
p1941
(dp1942
g4
I0
sg5
S'Existence-less (22) - $6,171,037'
p1943
sg7
I1
sg8
I0
sg9
F51.853967800484
sg10
S'S'
sg11
F0
sg12
S'Existence-less'
p1944
sba(isaltybot
Fighter
p1945
(dp1946
g4
I0
sg5
S'Elena_n (-5) - $119,008\r\n'
p1947
sg7
I0
sg8
I1
sg9
F-51.853967800484
sg10
S'S'
sg11
F0
sg12
S'Elena_n'
p1948
sba(isaltybot
Fighter
p1949
(dp1950
g4
I0
sg5
S'Goryujin (8) - $433,802'
p1951
sg7
I1
sg8
I0
sg9
F3.0246123382418562
sg10
S'A'
sg11
F0
sg12
S'Goryujin'
p1952
sba(isaltybot
Fighter
p1953
(dp1954
g4
I0
sg5
S'Lf2 - deep (1) - $143,424\r\n'
p1955
sg7
I0
sg8
I1
sg9
F-3.0246123382418562
sg10
S'A'
sg11
F0
sg12
S'Lf2 - deep'
p1956
sba(isaltybot
Fighter
p1957
(dp1958
g4
I0
sg5
S'Walkyrie (1) - $114,114'
p1959
sg7
I0
sg8
I1
sg9
F-2.530320556636346
sg10
S'B'
sg11
F0
sg12
S'Walkyrie'
p1960
sba(isaltybot
Fighter
p1961
(dp1962
g4
I0
sg5
S'Nikumaru (1) - $288,745\r\n'
p1963
sg7
I1
sg8
I0
sg9
F2.530320556636346
sg10
S'B'
sg11
F0
sg12
S'Nikumaru'
p1964
sba(isaltybot
Fighter
p1965
(dp1966
g4
I0
sg5
S'Mvc2 megaman (-1) - $897,636'
p1967
sg7
I1
sg8
I0
sg9
F8.4409505092013575
sg10
S'S'
sg11
F0
sg12
S'Mvc2 megaman'
p1968
sba(isaltybot
Fighter
p1969
(dp1970
g4
I0
sg5
S'Paprika (-1) - $106,343\r\n'
p1971
sg7
I0
sg8
I1
sg9
F-8.4409505092013575
sg10
S'S'
sg11
F0
sg12
S'Paprika'
p1972
sba(isaltybot
Fighter
p1973
(dp1974
g4
I0
sg5
S'Deathscythe (1) - $371,912'
p1975
sg7
I0
sg8
I1
sg9
F3.8861871871767275
sg10
S'B'
sg11
F0
sg12
S'Deathscythe'
p1976
sba(isaltybot
Fighter
p1977
(dp1978
g4
I0
sg5
S'Awakened torao (-1) - $95,701\r\n'
p1979
sg7
I1
sg8
I0
sg9
F-3.8861871871767275
sg10
S'B'
sg11
F0
sg12
S'Awakened torao'
p1980
sba(isaltybot
Fighter
p1981
(dp1982
g4
I0
sg5
S'Chizuruxxx (2) - $1,241,452'
p1983
sg7
I1
sg8
I0
sg9
F6.9392851952465593
sg10
S'S'
sg11
F0
sg12
S'Chizuruxxx'
p1984
sba(isaltybot
Fighter
p1985
(dp1986
g4
I0
sg5
S'Daisy EX3 (-1) - $178,902\r\n'
p1987
sg7
I0
sg8
I1
sg9
F-6.9392851952465593
sg10
S'S'
sg11
F0
sg12
S'Daisy EX3'
p1988
sba(isaltybot
Fighter
p1989
(dp1990
g4
I0
sg5
S'Tain-ren (3) - $197,163'
p1991
sg7
I0
sg8
I1
sg9
F0
sg10
S'A'
sg11
F0
sg12
S'Tain-ren'
p1992
sba(isaltybot
Fighter
p1993
(dp1994
g4
I0
sg5
S'Miduma EX3 (2) - $286,816\r\n:spextrum!spextrum@spextrum.tmi.twitch.tv PRIVMSG #saltybet :All in on the car\r\n'
p1995
sg7
I1
sg8
I0
sg9
F0
sg10
S'A'
sg11
F0
sg12
S'Miduma EX3'
p1996
sba(isaltybot
Fighter
p1997
(dp1998
g4
I0
sg5
S'Kenbo (-1) - $94,258'
p1999
sg7
I0
sg8
I1
sg9
F-4.2297099450444522
sg10
S'A'
sg11
F0
sg12
S'Kenbo'
p2000
sba(isaltybot
Fighter
p2001
(dp2002
g4
I0
sg5
S'Daiyousei_hsts (2) - $398,684\r\n'
p2003
sg7
I1
sg8
I0
sg9
F4.2297099450444522
sg10
S'A'
sg11
F0
sg12
S'Daiyousei_hsts'
p2004
sba(isaltybot
Fighter
p2005
(dp2006
g4
I0
sg5
S'Genpaku (-4) - $132,473'
p2007
sg7
I0
sg8
I1
sg9
F-6.2669978033259603
sg10
S'B'
sg11
F0
sg12
S'Genpaku'
p2008
sba(isaltybot
Fighter
p2009
(dp2010
g4
I0
sg5
S'Bishop (-1) - $830,208\r\n'
p2011
sg7
I1
sg8
I0
sg9
F6.2669978033259603
sg10
S'B'
sg11
F0
sg12
S'Bishop'
p2012
sba(isaltybot
Fighter
p2013
(dp2014
g4
I0
sg5
S'Revlius (5) - $233,561'
p2015
sg7
I0
sg8
I1
sg9
F-1.1559335676761102
sg10
S'A'
sg11
F0
sg12
S'Revlius'
p2016
sba(isaltybot
Fighter
p2017
(dp2018
g4
I0
sg5
S'Jagyuta EX2 (2) - $269,981\r\n'
p2019
sg7
I1
sg8
I0
sg9
F1.1559335676761102
sg10
S'A'
sg11
F0
sg12
S'Jagyuta EX2'
p2020
sba(isaltybot
Fighter
p2021
(dp2022
g4
I0
sg5
S'Etomo shuko EX3 (-2) - $91,079'
p2023
sg7
I0
sg8
I1
sg9
F-4.7093073046476137
sg10
S'A'
sg11
F0
sg12
S'Etomo shuko EX3'
p2024
sba(isaltybot
Fighter
p2025
(dp2026
g4
I0
sg5
S'Makoto(*zenkai*) (-1) - $428,919\r\n'
p2027
sg7
I1
sg8
I0
sg9
F4.7093073046476137
sg10
S'A'
sg11
F0
sg12
S'Makoto(*zenkai*)'
p2028
sba(isaltybot
Fighter
p2029
(dp2030
g4
I0
sg5
S'Giant Ultraman (3) - $88,957'
p2031
sg7
I0
sg8
I1
sg9
F-24.961644389986173
sg10
S'S'
sg11
F0
sg12
S'Giant Ultraman'
p2032
sba(isaltybot
Fighter
p2033
(dp2034
g4
I0
sg5
S'Magneto_cota (1) - $2,220,513\r\n'
p2035
sg7
I1
sg8
I0
sg9
F24.961644389986173
sg10
S'S'
sg11
F0
sg12
S'Magneto_cota'
p2036
sba(isaltybot
Fighter
p2037
(dp2038
g4
I0
sg5
S'Ohaou (-3) - $342,781'
p2039
sg7
I0
sg8
I1
sg9
F-2.2184747696050833
sg10
S'S'
sg11
F0
sg12
S'Ohaou'
p2040
sba(isaltybot
Fighter
p2041
(dp2042
g4
I0
sg5
S'Tobikage (2) - $760,451\r\n'
p2043
sg7
I1
sg8
I0
sg9
F2.2184747696050833
sg10
S'S'
sg11
F0
sg12
S'Tobikage'
p2044
sba(isaltybot
Fighter
p2045
(dp2046
g4
I0
sg5
S'Haggar ex (-2) - $101,567'
p2047
sg7
I0
sg8
I1
sg9
F-5.8362952533795429
sg10
S'A'
sg11
F0
sg12
S'Haggar ex'
p2048
sba(isaltybot
Fighter
p2049
(dp2050
g4
I0
sg5
S'Unyuho-l (1) - $592,775\r\n'
p2051
sg7
I1
sg8
I0
sg9
F5.8362952533795429
sg10
S'A'
sg11
F0
sg12
S'Unyuho-l'
p2052
sba(isaltybot
Fighter
p2053
(dp2054
g4
I0
sg5
S'Deluxe chipp (1) - $368,259'
p2055
sg7
I1
sg8
I0
sg9
F1.5058084143294665
sg10
S'S'
sg11
F0
sg12
S'Deluxe chipp'
p2056
sba(isaltybot
Fighter
p2057
(dp2058
g4
I0
sg5
S'Asahina mikuru EX (-2) - $244,559\r\n'
p2059
sg7
I0
sg8
I1
sg9
F-1.5058084143294665
sg10
S'S'
sg11
F0
sg12
S'Asahina mikuru EX'
p2060
sba(isaltybot
Fighter
p2061
(dp2062
g4
I0
sg5
S'Celesty (-1) - $406,256'
p2063
sg7
I0
sg8
I1
sg9
F1.3386097116553703
sg10
S'A'
sg11
F0
sg12
S'Celesty'
p2064
sba(isaltybot
Fighter
p2065
(dp2066
g4
I0
sg5
S'Scharlachrot (-2) - $201,657'
p2067
sg7
I0
sg8
I0
sg9
F-1.8068651224604155
sg10
S'S'
sg11
F0
sg12
S'Scharlachrot'
p2068
sba(isaltybot
Fighter
p2069
(dp2070
g4
I0
sg5
S'Nrvnqsr chaos (1) - $364,119'
p2071
sg7
I1
sg8
I0
sg9
F2.1867039005494999
sg10
S'B'
sg11
F0
sg12
S'Nrvnqsr chaos'
p2072
sba(isaltybot
Fighter
p2073
(dp2074
g4
I0
sg5
S'Vegalunker (-1) - $166,515\r\n'
p2075
sg7
I0
sg8
I1
sg9
F-2.1867039005494999
sg10
S'B'
sg11
F0
sg12
S'Vegalunker'
p2076
sba(isaltybot
Fighter
p2077
(dp2078
g4
I0
sg5
S'Liza (1) - $224,093'
p2079
sg7
I1
sg8
I0
sg9
F1.5156165458283735
sg10
S'A'
sg11
F0
sg12
S'Liza'
p2080
sba(isaltybot
Fighter
p2081
(dp2082
g4
I0
sg5
S'Weregarurumon (-2) - $148,471'
p2083
sg7
I0
sg8
I1
sg9
F-3.1798802459739615
sg10
S'A'
sg11
F0
sg12
S'Weregarurumon'
p2084
sba(isaltybot
Fighter
p2085
(dp2086
g4
I0
sg5
S'Terry rogers (1) - $472,120\r\n'
p2087
sg7
I1
sg8
I0
sg9
F3.1798802459739615
sg10
S'A'
sg11
F0
sg12
S'Terry rogers'
p2088
sba(isaltybot
Fighter
p2089
(dp2090
g4
I0
sg5
S'Hawkman (-2) - $477,943'
p2091
sg7
I1
sg8
I0
sg9
F6.0373781011570919
sg10
S'B'
sg11
F0
sg12
S'Hawkman'
p2092
sba(isaltybot
Fighter
p2093
(dp2094
g4
I0
sg5
S'Bang EX2 (-3) - $79,164\r\n'
p2095
sg7
I0
sg8
I1
sg9
F-6.0373781011570919
sg10
S'B'
sg11
F0
sg12
S'Bang EX2'
p2096
sba(isaltybot
Fighter
p2097
(dp2098
g4
I0
sg5
S'C. shrd (1) - $217,037'
p2099
sg7
I0
sg8
I1
sg9
F1.1352554412357005
sg10
S'A'
sg11
F0
sg12
S'C. shrd'
p2100
sba(isaltybot
Fighter
p2101
(dp2102
g4
I0
sg5
S'Nu-13 EX (-2) - $191,179\r\n'
p2103
sg7
I1
sg8
I0
sg9
F-1.1352554412357005
sg10
S'A'
sg11
F0
sg12
S'Nu-13 EX'
p2104
sba(isaltybot
Fighter
p2105
(dp2106
g4
I0
sg5
S'Ikemen (-2) - $395,019'
p2107
sg7
I1
sg8
I0
sg9
F3.2151961582288786
sg10
S'B'
sg11
F0
sg12
S'Ikemen'
p2108
sba(isaltybot
Fighter
p2109
(dp2110
g4
I0
sg5
S'Dirty kf man (-1) - $122,860\r\n'
p2111
sg7
I0
sg8
I1
sg9
F-3.2151961582288786
sg10
S'B'
sg11
F0
sg12
S'Dirty kf man'
p2112
sba(isaltybot
Fighter
p2113
(dp2114
g4
I0
sg5
S'Real Ryu (2) - $870,850'
p2115
sg7
I1
sg8
I0
sg9
F4.5041247510926068
sg10
S'A'
sg11
F0
sg12
S'Real Ryu'
p2116
sba(isaltybot
Fighter
p2117
(dp2118
g4
I0
sg5
S'Zeldia 0D (-2) - $193,345\r\n'
p2119
sg7
I0
sg8
I1
sg9
F-4.5041247510926068
sg10
S'A'
sg11
F0
sg12
S'Zeldia 0D'
p2120
sba(isaltybot
Fighter
p2121
(dp2122
g4
I0
sg5
S'Queen the spade (-6) - $448,749'
p2123
sg7
I0
sg8
I1
sg9
F2.8139673422293567
sg10
S'A'
sg11
F0
sg12
S'Queen the spade'
p2124
sba(isaltybot
Fighter
p2125
(dp2126
g4
I0
sg5
S'Headdy (1) - $159,472\r\n'
p2127
sg7
I1
sg8
I0
sg9
F-2.8139673422293567
sg10
S'A'
sg11
F0
sg12
S'Headdy'
p2128
sba(isaltybot
Fighter
p2129
(dp2130
g4
I0
sg5
S'Alex_a (-1) - $797,413'
p2131
sg7
I1
sg8
I0
sg9
F8.1411871605341606
sg10
S'B'
sg11
F0
sg12
S'Alex_a'
p2132
sba(isaltybot
Fighter
p2133
(dp2134
g4
I0
sg5
S'Shadowroo (pf 3) (-1) - $97,948\r\n'
p2135
sg7
I0
sg8
I1
sg9
F-8.1411871605341606
sg10
S'B'
sg11
F0
sg12
S'Shadowroo (pf 3)'
p2136
sba(isaltybot
Fighter
p2137
(dp2138
g4
I0
sg5
S'Cloud (3d) (-2) - $37,971'
p2139
sg7
I0
sg8
I0
sg9
F0
sg10
S'B'
sg11
F0
sg12
S'Cloud (3d)'
p2140
sba(isaltybot
Fighter
p2141
(dp2142
g4
I0
sg5
S'Gen kiba (2) - $805,980\r\n:xblade13!xblade13@xblade13.tmi.twitch.tv PRIVMSG #saltybet :!song\r\n'
p2143
sg7
I0
sg8
I0
sg9
F0
sg10
S'B'
sg11
F0
sg12
S'Gen kiba'
p2144
sba(isaltybot
Fighter
p2145
(dp2146
g4
I0
sg5
S'Broly lssj3 (-2) - $1,308,929'
p2147
sg7
I0
sg8
I1
sg9
F4.6951198952597881
sg10
S'B'
sg11
F0
sg12
S'Broly lssj3'
p2148
sba(isaltybot
Fighter
p2149
(dp2150
g4
I0
sg5
S'Captain ameriken (-1) - $278,785\r\n'
p2151
sg7
I1
sg8
I0
sg9
F-4.6951198952597881
sg10
S'B'
sg11
F0
sg12
S'Captain ameriken'
p2152
sba(isaltybot
Fighter
p2153
(dp2154
g4
I0
sg5
S'Ramon 71113 (3) - $485,758'
p2155
sg7
I1
sg8
I0
sg9
F1.7208130818608209
sg10
S'A'
sg11
F0
sg12
S'Ramon 71113'
p2156
sba(isaltybot
Fighter
p2157
(dp2158
g4
I0
sg5
S'Ultimate aizen (-2) - $289,923\r\n'
p2159
sg7
I0
sg8
I2
sg9
F-0.27928905587310504
sg10
S'A'
sg11
F0
sg12
S'Ultimate aizen'
p2160
sba(isaltybot
Fighter
p2161
(dp2162
g4
I0
sg5
S'Chameleon (-1) - $195,922'
p2163
sg7
I0
sg8
I1
sg9
F-1.6225130409040331
sg10
S'B'
sg11
F0
sg12
S'Chameleon'
p2164
sba(isaltybot
Fighter
p2165
(dp2166
g4
I0
sg5
S'Ryu_a (-1) - $317,886\r\n'
p2167
sg7
I1
sg8
I0
sg9
F1.6225130409040331
sg10
S'B'
sg11
F0
sg12
S'Ryu_a'
p2168
sba(isaltybot
Fighter
p2169
(dp2170
g4
I0
sg5
S'Okina (-3) - $206,979'
p2171
sg7
I0
sg8
I1
sg9
F-2.4820295778798815
sg10
S'S'
sg11
F0
sg12
S'Okina'
p2172
sba(isaltybot
Fighter
p2173
(dp2174
g4
I0
sg5
S'Airou ver2.11 (1) - $513,728\r\n'
p2175
sg7
I1
sg8
I0
sg9
F2.4820295778798815
sg10
S'S'
sg11
F0
sg12
S'Airou ver2.11'
p2176
sba(isaltybot
Fighter
p2177
(dp2178
g4
I0
sg5
S'Raizen (2) - $82,043'
p2179
sg7
I0
sg8
I1
sg9
F-59.462416050120062
sg10
S'S'
sg11
F0
sg12
S'Raizen'
p2180
sba(isaltybot
Fighter
p2181
(dp2182
g4
I0
sg5
S'Rugal b. EX (2) - $4,878,475\r\n'
p2183
sg7
I1
sg8
I0
sg9
F59.462416050120062
sg10
S'S'
sg11
F0
sg12
S'Rugal b. EX'
p2184
sba(isaltybot
Fighter
p2185
(dp2186
g4
I0
sg5
S'Mature CVS (-2) - $209,422'
p2187
sg7
I1
sg8
I0
sg9
F-1.7356485947035174
sg10
S'B'
sg11
F0
sg12
S'Mature CVS'
p2188
sba(isaltybot
Fighter
p2189
(dp2190
g4
I0
sg5
S'Capella (2) - $363,483\r\n'
p2191
sg7
I0
sg8
I1
sg9
F1.7356485947035174
sg10
S'B'
sg11
F0
sg12
S'Capella'
p2192
sba(isaltybot
Fighter
p2193
(dp2194
g4
I0
sg5
S'Lion magnus (-2) - $249,453'
p2195
sg7
I1
sg8
I0
sg9
F-1.1622349701146109
sg10
S'A'
sg11
F0
sg12
S'Lion magnus'
p2196
sba(isaltybot
Fighter
p2197
(dp2198
g4
I0
sg5
S'Dandy j (2) - $291,719'
p2199
sg7
I1
sg8
I0
sg9
F-1.6268326711664307
sg10
S'A'
sg11
F0
sg12
S'Dandy j'
p2200
sba(isaltybot
Fighter
p2201
(dp2202
g4
I0
sg5
S'Akane inuwaka (3) - $474,578\r\n'
p2203
sg7
I0
sg8
I1
sg9
F1.6268326711664307
sg10
S'A'
sg11
F0
sg12
S'Akane inuwaka'
p2204
sba(isaltybot
Fighter
p2205
(dp2206
g4
I0
sg5
S'Psychotic ryu (0) - $564,744'
p2207
sg7
I1
sg8
I0
sg9
F-1.6663107531908263
sg10
S'A'
sg11
F0
sg12
S'Psychotic ryu'
p2208
sba(isaltybot
Fighter
p2209
(dp2210
g4
I0
sg5
S'Meirin EX (-1) - $941,039\r\n'
p2211
sg7
I0
sg8
I1
sg9
F1.6663107531908263
sg10
S'A'
sg11
F0
sg12
S'Meirin EX'
p2212
sba(isaltybot
Fighter
p2213
(dp2214
g4
I0
sg5
S'Pepsi man (-6) - $77,319'
p2215
sg7
I0
sg8
I1
sg9
F-9.2091853231417886
sg10
S'B'
sg11
F0
sg12
S'Pepsi man'
p2216
sba(isaltybot
Fighter
p2217
(dp2218
g4
I0
sg5
S'Joe higashi (1) - $167,866\r\n'
p2219
sg7
I1
sg8
I1
sg9
F3.5144761400596889
sg10
S'B'
sg11
F0
sg12
S'Joe higashi'
p2220
sba(isaltybot
Fighter
p2221
(dp2222
g4
I0
sg5
S'Pantyhose taro (-1) - $138,078'
p2223
sg7
I1
sg8
I0
sg9
F-1.3460362983241356
sg10
S'B'
sg11
F0
sg12
S'Pantyhose taro'
p2224
sba(isaltybot
Fighter
p2225
(dp2226
g4
I0
sg5
S'Another kyo (-4) - $185,858\r\n'
p2227
sg7
I0
sg8
I1
sg9
F1.3460362983241356
sg10
S'B'
sg11
F0
sg12
S'Another kyo'
p2228
sba(isaltybot
Fighter
p2229
(dp2230
g4
I0
sg5
S'Sailor jupiter k (4) - $118,155'
p2231
sg7
I0
sg8
I1
sg9
F-54.427971732046885
sg10
S'S'
sg11
F0
sg12
S'Sailor jupiter k'
p2232
sba(isaltybot
Fighter
p2233
(dp2234
g4
I0
sg5
S'Deluxe adon (2) - $6,430,937\r\n'
p2235
sg7
I1
sg8
I0
sg9
F54.427971732046885
sg10
S'S'
sg11
F0
sg12
S'Deluxe adon'
p2236
sba(isaltybot
Fighter
p2237
(dp2238
g4
I0
sg5
S'La mascara (-3) - $214,121'
p2239
sg7
I0
sg8
I1
sg9
F-2.3844321668589257
sg10
S'B'
sg11
F0
sg12
S'La mascara'
p2240
sba(isaltybot
Fighter
p2241
(dp2242
g4
I0
sg5
S'Goenitz (-4) - $510,557\r\n'
p2243
sg7
I1
sg8
I0
sg9
F2.3844321668589257
sg10
S'B'
sg11
F0
sg12
S'Goenitz'
p2244
sba(isaltybot
Fighter
p2245
(dp2246
g4
I0
sg5
S'Batsu EX2 (-5) - $97,149'
p2247
sg7
I0
sg8
I1
sg9
F-15.802962459726812
sg10
S'A'
sg11
F0
sg12
S'Batsu EX2'
p2248
sba(isaltybot
Fighter
p2249
(dp2250
g4
I0
sg5
S'Tsu- (0) - $620,957\r\n'
p2251
sg7
I1
sg8
I1
sg9
F8.6428781613898824
sg10
S'S'
sg11
F0
sg12
S'Tsu-'
p2252
sba(isaltybot
Fighter
p2253
(dp2254
g4
I0
sg5
S'Superman (-6) - $243,652'
p2255
sg7
I1
sg8
I0
sg9
F-4.6299640470835453
sg10
S'B'
sg11
F0
sg12
S'Superman'
p2256
sba(isaltybot
Fighter
p2257
(dp2258
g4
I0
sg5
S'Supergirl (-4) - $1,128,100\r\n'
p2259
sg7
I0
sg8
I1
sg9
F4.6299640470835453
sg10
S'B'
sg11
F0
sg12
S'Supergirl'
p2260
sba(isaltybot
Fighter
p2261
(dp2262
g4
I0
sg5
S'Barbatos_goetia (-3) - $281,496'
p2263
sg7
I0
sg8
I0
sg9
F-3.0061848125728252
sg10
S'X'
sg11
F0
sg12
S'Barbatos_goetia'
p2264
sba(isaltybot
Fighter
p2265
(dp2266
g4
I0
sg5
S'Barom1 (6) - $846,229\r\n'
p2267
sg7
I0
sg8
I0
sg9
F3.0061848125728252
sg10
S'X'
sg11
F0
sg12
S'Barom1'
p2268
sba(isaltybot
Fighter
p2269
(dp2270
g4
I0
sg5
S'Aoc (2) - $401,252'
p2271
sg7
I1
sg8
I0
sg9
F1.0070423595669176
sg10
S'S'
sg11
F0
sg12
S'Aoc'
p2272
sba(isaltybot
Fighter
p2273
(dp2274
g4
I0
sg5
S'Zankuro ex (-7) - $398,446\r\n'
p2275
sg7
I0
sg8
I1
sg9
F-1.0070423595669176
sg10
S'S'
sg11
F0
sg12
S'Zankuro ex'
p2276
sba(isaltybot
Fighter
p2277
(dp2278
g4
I0
sg5
S'Super goku (-3) - $170,507'
p2279
sg7
I1
sg8
I1
sg9
F-2.0691956636103876
sg10
S'B'
sg11
F0
sg12
S'Super goku'
p2280
sba(isaltybot
Fighter
p2281
(dp2282
g4
I0
sg5
S'Sonic 2 style sonic (3) - $1,218,468'
p2283
sg7
I1
sg8
I0
sg9
F10.12630581664963
sg10
S'S'
sg11
F0
sg12
S'Sonic 2 style sonic'
p2284
sba(isaltybot
Fighter
p2285
(dp2286
g4
I0
sg5
S'Akiko EX (2) - $120,327\r\n'
p2287
sg7
I0
sg8
I1
sg9
F-10.12630581664963
sg10
S'S'
sg11
F0
sg12
S'Akiko EX'
p2288
sba(isaltybot
Fighter
p2289
(dp2290
g4
I0
sg5
S'Z gundam (-3) - $150,419'
p2291
sg7
I0
sg8
I1
sg9
F-1.4271534845996849
sg10
S'A'
sg11
F0
sg12
S'Z gundam'
p2292
sba(isaltybot
Fighter
p2293
(dp2294
g4
I0
sg5
S'Syuzo matsuoka (1) - $214,671\r\n'
p2295
sg7
I1
sg8
I0
sg9
F1.4271534845996849
sg10
S'A'
sg11
F0
sg12
S'Syuzo matsuoka'
p2296
sba(isaltybot
Fighter
p2297
(dp2298
g4
I0
sg5
S'Ultimate sula (3) - $292,544\r\n'
p2299
sg7
I0
sg8
I1
sg9
F1.7157301459764116
sg10
S'B'
sg11
F0
sg12
S'Ultimate sula'
p2300
sba(isaltybot
Fighter
p2301
(dp2302
g4
I0
sg5
S'Rouwe_n (3) - $557,813'
p2303
sg7
I0
sg8
I1
sg9
F1.8079407522647351
sg10
S'A'
sg11
F0
sg12
S'Rouwe_n'
p2304
sba(isaltybot
Fighter
p2305
(dp2306
g4
I0
sg5
S'Pekomaru (-1) - $308,535\r\n'
p2307
sg7
I1
sg8
I0
sg9
F-1.8079407522647351
sg10
S'A'
sg11
F0
sg12
S'Pekomaru'
p2308
sba(isaltybot
Fighter
p2309
(dp2310
g4
I0
sg5
S'Mai maino (3) - $482,939'
p2311
sg7
I1
sg8
I0
sg9
F2.5265451539660781
sg10
S'A'
sg11
F0
sg12
S'Mai maino'
p2312
sba(isaltybot
Fighter
p2313
(dp2314
g4
I0
sg5
S'Krauser 98 (-3) - $191,146\r\n'
p2315
sg7
I0
sg8
I1
sg9
F-2.5265451539660781
sg10
S'A'
sg11
F0
sg12
S'Krauser 98'
p2316
sba(isaltybot
Fighter
p2317
(dp2318
g4
I0
sg5
S'Old robo-ky (1) - $184,847'
p2319
sg7
I0
sg8
I1
sg9
F-3.1448332945625301
sg10
S'S'
sg11
F0
sg12
S'Old robo-ky'
p2320
sba(isaltybot
Fighter
p2321
(dp2322
g4
I0
sg5
S'Tenma-sama (-1) - $581,313\r\n'
p2323
sg7
I1
sg8
I0
sg9
F3.1448332945625301
sg10
S'S'
sg11
F0
sg12
S'Tenma-sama'
p2324
sba(isaltybot
Fighter
p2325
(dp2326
g4
I0
sg5
S'Ridley zm (-1) - $223,467'
p2327
sg7
I0
sg8
I1
sg9
F-1.1848595094577723
sg10
S'A'
sg11
F0
sg12
S'Ridley zm'
p2328
sba(isaltybot
Fighter
p2329
(dp2330
g4
I0
sg5
S'Sentinel (-1) - $264,777\r\n'
p2331
sg7
I1
sg8
I0
sg9
F1.1848595094577723
sg10
S'A'
sg11
F0
sg12
S'Sentinel'
p2332
sba(isaltybot
Fighter
p2333
(dp2334
g4
I0
sg5
S'Arcbeetle (2) - $440,663'
p2335
sg7
I1
sg8
I0
sg9
F2.6919759308470019
sg10
S'S'
sg11
F0
sg12
S'Arcbeetle'
p2336
sba(isaltybot
Fighter
p2337
(dp2338
g4
I0
sg5
S'Arima_miyako (-1) - $163,695\r\n'
p2339
sg7
I0
sg8
I1
sg9
F-2.6919759308470019
sg10
S'S'
sg11
F0
sg12
S'Arima_miyako'
p2340
sba(isaltybot
Fighter
p2341
(dp2342
g4
I0
sg5
S'Chronoforce (1) - $1,062,986'
p2343
sg7
I1
sg8
I0
sg9
F13.468817313296674
sg10
S'B'
sg11
F0
sg12
S'Chronoforce'
p2344
sba(isaltybot
Fighter
p2345
(dp2346
g4
I0
sg5
S'Bubblum (1) - $78,922\r\n'
p2347
sg7
I0
sg8
I1
sg9
F-13.468817313296674
sg10
S'B'
sg11
F0
sg12
S'Bubblum'
p2348
sba(isaltybot
Fighter
p2349
(dp2350
g4
I0
sg5
S'Bloodia (-1) - $938,328'
p2351
sg7
I0
sg8
I0
sg9
F6.1803260332619789
sg10
S'S'
sg11
F0
sg12
S'Bloodia'
p2352
sba(isaltybot
Fighter
p2353
(dp2354
g4
I0
sg5
S'Misuzu (-6) - $151,825\r\n'
p2355
sg7
I0
sg8
I0
sg9
F-6.1803260332619789
sg10
S'S'
sg11
F0
sg12
S'Misuzu'
p2356
sba(isaltybot
Fighter
p2357
(dp2358
g4
I0
sg5
S'Gigant (1) - $434,704'
p2359
sg7
I1
sg8
I0
sg9
F1.7793932844587985
sg10
S'A'
sg11
F0
sg12
S'Gigant'
p2360
sba(isaltybot
Fighter
p2361
(dp2362
g4
I0
sg5
S'Carnage MMV (4) - $889,320'
p2363
sg7
I1
sg8
I0
sg9
F7.1925269925997819
sg10
S'B'
sg11
F0
sg12
S'Carnage MMV'
p2364
sba(isaltybot
Fighter
p2365
(dp2366
g4
I0
sg5
S'Mizuki EX2 (1) - $507,530'
p2367
sg7
I1
sg8
I0
sg9
F3.3977358692668687
sg10
S'A'
sg11
F0
sg12
S'Mizuki EX2'
p2368
sba(isaltybot
Fighter
p2369
(dp2370
g4
I0
sg5
S'Noriko nijou (-2) - $149,373\r\n'
p2371
sg7
I0
sg8
I1
sg9
F-3.3977358692668687
sg10
S'A'
sg11
F0
sg12
S'Noriko nijou'
p2372
sba(isaltybot
Fighter
p2373
(dp2374
g4
I0
sg5
S'Injya (-1) - $485,436'
p2375
sg7
I1
sg8
I0
sg9
F3.9217961043472642
sg10
S'S'
sg11
F0
sg12
S'Injya'
p2376
sba(isaltybot
Fighter
p2377
(dp2378
g4
I0
sg5
S'Doraemon EX3 (-1) - $123,779\r\n'
p2379
sg7
I0
sg8
I1
sg9
F-3.9217961043472642
sg10
S'S'
sg11
F0
sg12
S'Doraemon EX3'
p2380
sba(isaltybot
Fighter
p2381
(dp2382
g4
I0
sg5
S'Sekkimaru (-1) - $243,787'
p2383
sg7
I0
sg8
I1
sg9
F-2.3053116039821648
sg10
S'X'
sg11
F0
sg12
S'Sekkimaru'
p2384
sba(isaltybot
Fighter
p2385
(dp2386
g4
I0
sg5
S'D kanna (2) - $562,005\r\n'
p2387
sg7
I1
sg8
I0
sg9
F2.3053116039821648
sg10
S'X'
sg11
F0
sg12
S'D kanna'
p2388
sba(isaltybot
Fighter
p2389
(dp2390
g4
I0
sg5
S'Erim (-2) - $930,169'
p2391
sg7
I1
sg8
I0
sg9
F7.0963014388379442
sg10
S'B'
sg11
F0
sg12
S'Erim'
p2392
sba(isaltybot
Fighter
p2393
(dp2394
g4
I0
sg5
S'Omega Cloud Strife (-1) - $131,078\r\n'
p2395
sg7
I0
sg8
I1
sg9
F-7.0963014388379442
sg10
S'B'
sg11
F0
sg12
S'Omega Cloud Strife'
p2396
sba(isaltybot
Fighter
p2397
(dp2398
g4
I0
sg5
S'Minotaur (-1) - $444,099'
p2399
sg7
I0
sg8
I1
sg9
F2.0881187141184601
sg10
S'B'
sg11
F0
sg12
S'Minotaur'
p2400
sba(isaltybot
Fighter
p2401
(dp2402
g4
I0
sg5
S'Unknown (1) - $212,679\r\n'
p2403
sg7
I1
sg8
I0
sg9
F-2.0881187141184601
sg10
S'B'
sg11
F0
sg12
S'Unknown'
p2404
sba(isaltybot
Fighter
p2405
(dp2406
g4
I0
sg5
S'Devil_daigo EX (1) - $817,909'
p2407
sg7
I0
sg8
I1
sg9
F3.1264917471311819
sg10
S'A'
sg11
F0
sg12
S'Devil_daigo EX'
p2408
sba(isaltybot
Fighter
p2409
(dp2410
g4
I0
sg5
S'Blitztank-n (-8) - $261,606\r\n'
p2411
sg7
I1
sg8
I0
sg9
F-3.1264917471311819
sg10
S'A'
sg11
F0
sg12
S'Blitztank-n'
p2412
sba(isaltybot
Fighter
p2413
(dp2414
g4
I0
sg5
S'Omega red (1) - $535,743'
p2415
sg7
I0
sg8
I1
sg9
F1.5756220222339863
sg10
S'B'
sg11
F0
sg12
S'Omega red'
p2416
sba(isaltybot
Fighter
p2417
(dp2418
g4
I0
sg5
S'D.hibiki (1) - $340,020\r\n'
p2419
sg7
I1
sg8
I0
sg9
F-1.5756220222339863
sg10
S'B'
sg11
F0
sg12
S'D.hibiki'
p2420
sba(isaltybot
Fighter
p2421
(dp2422
g4
I0
sg5
S'Dhalsim R (-1) - $180,941'
p2423
sg7
I0
sg8
I1
sg9
F-5.5743916525276198
sg10
S'A'
sg11
F0
sg12
S'Dhalsim R'
p2424
sba(isaltybot
Fighter
p2425
(dp2426
g4
I0
sg5
S'Tiberius (2) - $1,008,636\r\n'
p2427
sg7
I1
sg8
I0
sg9
F5.5743916525276198
sg10
S'A'
sg11
F0
sg12
S'Tiberius'
p2428
sba(isaltybot
Fighter
p2429
(dp2430
g4
I0
sg5
S'Mokou fujiwara EX3 (9) - $1,712,875'
p2431
sg7
I1
sg8
I0
sg9
F13.633740597763362
sg10
S'B'
sg11
F0
sg12
S'Mokou fujiwara EX3'
p2432
sba(isaltybot
Fighter
p2433
(dp2434
g4
I0
sg5
S'Ultraman (-1) - $115,093'
p2435
sg7
I0
sg8
I1
sg9
F-2.2819545932419869
sg10
S'B'
sg11
F0
sg12
S'Ultraman'
p2436
sba(isaltybot
Fighter
p2437
(dp2438
g4
I0
sg5
S'Ash crimson (6) - $312,248'
p2439
sg7
I1
sg8
I1
sg9
F0.16704631868038211
sg10
S'B'
sg11
F0
sg12
S'Ash crimson'
p2440
sba(isaltybot
Fighter
p2441
(dp2442
g4
I0
sg5
S'Segalow (2) - $608,216\r\n'
p2443
sg7
I2
sg8
I0
sg9
F2.0640474994518168
sg10
S'B'
sg11
F0
sg12
S'Segalow'
p2444
sba(isaltybot
Fighter
p2445
(dp2446
g4
I0
sg5
S'K.m.mioh (1) - $176,380'
p2447
sg7
I0
sg8
I1
sg9
F-2.5642873341648711
sg10
S'B'
sg11
F0
sg12
S'K.m.mioh'
p2448
sba(isaltybot
Fighter
p2449
(dp2450
g4
I0
sg5
S'Wario 64 (4) - $617,221'
p2451
sg7
I1
sg8
I1
sg9
F2.5642873341648711
sg10
S'B'
sg11
F0
sg12
S'Wario 64'
p2452
sba(isaltybot
Fighter
p2453
(dp2454
g4
I0
sg5
S'Samurai pizza cats (1) - $136,675'
p2455
sg7
I0
sg8
I1
sg9
F-4.3991512712639471
sg10
S'B'
sg11
F0
sg12
S'Samurai pizza cats'
p2456
sba(isaltybot
Fighter
p2457
(dp2458
g4
I0
sg5
S'Axearmor (1) - $293,382\r\n:das_observer!das_observer@das_observer.tmi.twitch.tv JOIN #saltybet\r\n:ttol!ttol@ttol.tmi.twitch.tv JOIN #saltybet\r\n:cashkiid!cashkiid@cashkiid.tmi.twitch.tv JOIN #saltybet\r\n:seducer_mccoon!seducer_mccoon@seducer_mccoon.tmi.twitch.tv JOIN #saltybet\r\n:shadowx2015!shadowx2015@shadowx2015.tmi.twitch.tv PART #saltybet\r\n:kingoffish12!kingoffish12@kingoffish12.tmi.twitch.tv PART #saltybet\r\n:shanicstar!shanicstar@shanicstar.tmi.twitch.tv PART #saltybet\r\n:daftpansy!daftpansy@daftpansy.tmi.twitch.tv PART #saltybet\r\n:nicacarda!nicacarda@nicacarda.tmi.twitch.tv PART #saltybet\r\n:freehealthcare!freehealthcare@freehealthcare.tmi.twitch.tv PART #saltybet\r\n:kiradinosaur!kiradinosaur@kiradinosaur.tmi.twitch.tv PART #saltybet\r\n:icebyte1!icebyte1@icebyte1.tmi.twitch.tv PART #saltybet\r\n:nandominator!nandominator@nandominator.tmi.twitch.tv PART #saltybet\r\n:junior_md!junior_md@junior_md.tmi.twitch.tv PART #s'
p2459
sg7
I2
sg8
I0
sg9
F4.3991512712639471
sg10
S'B'
sg11
F0
sg12
S'Axearmor'
p2460
sba(isaltybot
Fighter
p2461
(dp2462
g4
I0
sg5
S'Son goku (2) - $352,059'
p2463
sg7
I0
sg8
I1
sg9
F-1.057052937149739
sg10
S'B'
sg11
F0
sg12
S'Son goku'
p2464
sba(isaltybot
Fighter
p2465
(dp2466
g4
I0
sg5
S'Luke EX (1) - $429,096'
p2467
sg7
I1
sg8
I1
sg9
F-0.19039423914554732
sg10
S'B'
sg11
F0
sg12
S'Luke EX'
p2468
sba(isaltybot
Fighter
p2469
(dp2470
g4
I0
sg5
S'Evil ryu (4) - $616,972\r\n'
p2471
sg7
I2
sg8
I0
sg9
F2.3839759905802511
sg10
S'B'
sg11
F0
sg12
S'Evil ryu'
p2472
sba(isaltybot
Fighter
p2473
(dp2474
g4
I0
sg5
S'Mudman EX3 (-3) - $221,859\r\n'
p2475
sg7
I0
sg8
I1
sg9
F-3.3301105657196688
sg10
S'B'
sg11
F0
sg12
S'Mudman EX3'
p2476
sba(isaltybot
Fighter
p2477
(dp2478
g4
I0
sg5
S'Orochimaru (4) - $724,261'
p2479
sg7
I1
sg8
I0
sg9
F3.0076534637841248
sg10
S'B'
sg11
F0
sg12
S'Orochimaru'
p2480
sba(isaltybot
Fighter
p2481
(dp2482
g4
I0
sg5
S'Kaptain k.rool (-4) - $240,806\r\n'
p2483
sg7
I0
sg8
I1
sg9
F-3.0076534637841248
sg10
S'B'
sg11
F0
sg12
S'Kaptain k.rool'
p2484
sba(isaltybot
Fighter
p2485
(dp2486
g4
I0
sg5
S'Goku z2 (-1) - $620,658'
p2487
sg7
I0
sg8
I1
sg9
F2.2122034067457701
sg10
S'B'
sg11
F0
sg12
S'Goku z2'
p2488
sba(isaltybot
Fighter
p2489
(dp2490
g4
I0
sg5
S'Ssj goku z2 ex (2) - $280,561\r\n'
p2491
sg7
I1
sg8
I0
sg9
F-2.2122034067457701
sg10
S'B'
sg11
F0
sg12
S'Ssj goku z2 ex'
p2492
sba.