(lp1
(isaltybot
Fighter
p2
(dp3
S'streak'
p4
I0
sS'string'
p5
S'Blue eyes white karin (1) - $538,526'
p6
sS'wins'
p7
I1
sS'loses'
p8
I0
sS'bet_ratio'
p9
F8.1369233791154834
sS'wlRatio'
p10
F0
sS'name'
p11
S'Blue eyes white karin'
p12
sba(isaltybot
Fighter
p13
(dp14
g4
I0
sg5
S'Kisume EX (-4) - $66,183\r\n'
p15
sg7
I0
sg8
I1
sg9
F0.12289657323880369
sg10
F0
sg11
S'Kisume EX'
p16
sba(isaltybot
Fighter
p17
(dp18
g4
I0
sg5
S'Daimon 71113 (-5) - $167,183'
p19
sg7
I0
sg8
I1
sg9
F0.60794260321893245
sg10
F0
sg11
S'Daimon 71113'
p20
sba(isaltybot
Fighter
p21
(dp22
g4
I0
sg5
S'Rera EX3 (1) - $274,998\r\n'
p23
sg7
I1
sg8
I0
sg9
F1.6448921241992307
sg10
F0
sg11
S'Rera EX3'
p24
sba(isaltybot
Fighter
p25
(dp26
g4
I0
sg5
S'Gaira EX2 (2) - $179,146'
p27
sg7
I1
sg8
I0
sg9
F6.5061194842927188
sg10
F0
sg11
S'Gaira EX2'
p28
sba(isaltybot
Fighter
p29
(dp30
g4
I0
sg5
S'Death force (-1) - $27,535\r\n'
p31
sg7
I0
sg8
I1
sg9
F0.15370145021379211
sg10
F0
sg11
S'Death force'
p32
sba(isaltybot
Fighter
p33
(dp34
g4
I0
sg5
S'Lupin the 3rd (-3) - $130,147'
p35
sg7
I0
sg8
I1
sg9
F1.1540924004611155
sg10
F0
sg11
S'Lupin the 3rd'
p36
sba(isaltybot
Fighter
p37
(dp38
g4
I0
sg5
S'Conker (2) - $112,770\r\n'
p39
sg7
I1
sg8
I0
sg9
F0.86648174756237173
sg10
F0
sg11
S'Conker'
p40
sba(isaltybot
Fighter
p41
(dp42
g4
I0
sg5
S'Perfect storm x (1) - $104,813'
p43
sg7
I0
sg8
I1
sg9
F0.07644468366912309
sg10
F0
sg11
S'Perfect storm x'
p44
sba(isaltybot
Fighter
p45
(dp46
g4
I0
sg5
S'Ash of blueblood (3) - $1,371,096\r\n'
p47
sg7
I2
sg8
I0
sg9
F14.93230671059713
sS'tier'
p48
S'S'
sg10
F0
sg11
S'Ash of blueblood'
p49
sba(isaltybot
Fighter
p50
(dp51
g4
I0
sg5
S'Hydron (1) - $77,060'
p52
sg7
I1
sg8
I0
sg9
F0.32262926522922336
sg10
F0
sg11
S'Hydron'
p53
sba(isaltybot
Fighter
p54
(dp55
g4
I0
sg5
S'Donatello 0d (2) - $238,850\r\n'
p56
sg7
I0
sg8
I1
sg9
F3.0995328315598236
sg10
F0
sg11
S'Donatello 0d'
p57
sba(isaltybot
Fighter
p58
(dp59
g4
I0
sg5
S'Kazama sogetsu (-1) - $507,868'
p60
sg7
I1
sg8
I0
sg9
F3.5299007478662183
sg10
F0
sg11
S'Kazama sogetsu'
p61
sba(isaltybot
Fighter
p62
(dp63
g4
I0
sg5
S'Xiaoyen (1) - $143,876\r\n'
p64
sg7
I0
sg8
I1
sg9
F0.28329408428961855
sg10
F0
sg11
S'Xiaoyen'
p65
sba(isaltybot
Fighter
p66
(dp67
g4
I0
sg5
S'Trishula,doragon of the ice barrier (-1) - $67,099'
p68
sg7
I0
sg8
I1
sg9
F0.2281619259737831
sg10
F0
sg11
S'Trishula,doragon of the ice barrier'
p69
sba(isaltybot
Fighter
p70
(dp71
g4
I0
sg5
S'Mike EX2 (2) - $294,085\r\n'
p72
sg7
I1
sg8
I0
sg9
F4.3828522034605584
sg10
F0
sg11
S'Mike EX2'
p73
sba(isaltybot
Fighter
p74
(dp75
g4
I0
sg5
S'Eriol hiiragizawa (-5) - $74,010'
p76
sg7
I1
sg8
I0
sg9
F0.25156185206082893
sg10
F0
sg11
S'Eriol hiiragizawa'
p77
sba(isaltybot
Fighter
p78
(dp79
g4
I0
sg5
S'Dimlos EX (-2) - $294,202\r\n'
p80
sg7
I0
sg8
I1
sg9
F3.9751655181732199
sg10
F0
sg11
S'Dimlos EX'
p81
sba(isaltybot
Fighter
p82
(dp83
g4
I0
sg5
S'Wiler (-1) - $300,146'
p84
sg7
I1
sg8
I0
sg9
F1.0270039075598623
sg10
F0
sg11
S'Wiler'
p85
sba(isaltybot
Fighter
p86
(dp87
g4
I0
sg5
S'Mysty_monkstyle (2) - $292,254\r\n'
p88
sg7
I1
sg8
I1
sg9
F1.5703826678362436
sg48
S'A'
sg10
F0
sg11
S'Mysty_monkstyle'
p89
sba(isaltybot
Fighter
p90
(dp91
g4
I0
sg5
S'Titan the great (-4) - $129,922'
p92
sg7
I1
sg8
I0
sg9
F0.75875722712141569
sg10
F0
sg11
S'Titan the great'
p93
sba(isaltybot
Fighter
p94
(dp95
g4
I0
sg5
S'Princess silver (-1) - $171,230\r\n'
p96
sg7
I0
sg8
I1
sg9
F1.317944612921599
sg10
F0
sg11
S'Princess silver'
p97
sba(isaltybot
Fighter
p98
(dp99
g4
I0
sg5
S'Gengetu EX (1) - $2,526,438'
p100
sg7
I1
sg8
I0
sg9
F48.091483610614077
sg10
F0
sg11
S'Gengetu EX'
p101
sba(isaltybot
Fighter
p102
(dp103
g4
I0
sg5
S'Jotaro kujo (-6) - $52,534\r\n'
p104
sg7
I0
sg8
I1
sg9
F0.020793702437977898
sg10
F0
sg11
S'Jotaro kujo'
p105
sba(isaltybot
Fighter
p106
(dp107
g4
I0
sg5
S'Prometheus (-2) - $251,986'
p108
sg7
I2
sg8
I0
sg9
F1.7923370764649149
sg48
S'A'
sg10
F0
sg11
S'Prometheus'
p109
sba(isaltybot
Fighter
p110
(dp111
g4
I0
sg5
S'Android 16 ai-barbatos (1) - $115,576\r\n'
p112
sg7
I1
sg8
I1
sg9
F0.74441883200885695
sg48
S'A'
sg10
F0
sg11
S'Android 16 ai-barbatos'
p113
sba(isaltybot
Fighter
p114
(dp115
g4
I0
sg5
S'Mr.karateka (-1) - $110,261'
p116
sg7
I0
sg8
I2
sg9
F0.12786107473962385
sg48
S'S'
sg10
F0
sg11
S'Mr.karateka'
p117
sba(isaltybot
Fighter
p118
(dp119
g4
I0
sg5
S'S.geist (-1) - $901,389\r\n'
p120
sg7
I1
sg8
I1
sg9
F8.1144907702077145
sg48
S'S'
sg10
F0
sg11
S'S.geist'
p121
sba(isaltybot
Fighter
p122
(dp123
g4
I0
sg5
S'Hina (0) - $149,709'
p124
sg7
I0
sg8
I1
sg9
F0.99905239204276253
sg10
F0
sg11
S'Hina'
p125
sba(isaltybot
Fighter
p126
(dp127
g4
I0
sg5
S'Demonica (-3) - $149,851\r\n'
p128
sg7
I2
sg8
I1
sg9
F4.5170885571258701
sg48
S'A'
sg10
F0
sg11
S'Demonica'
p129
sba(isaltybot
Fighter
p130
(dp131
g4
I0
sg5
S'Jotaro (-1) - $223,724'
p132
sg7
I1
sg8
I0
sg9
F1.3507782594520183
sg10
F0
sg11
S'Jotaro'
p133
sba(isaltybot
Fighter
p134
(dp135
g4
I0
sg5
S'Gulool ja ja (-5) - $165,626\r\n'
p136
sg7
I1
sg8
I1
sg9
F0.9571849065300585
sg10
F0
sg11
S'Gulool ja ja'
p137
sba(isaltybot
Fighter
p138
(dp139
g4
I0
sg5
S'Hikaru EX3 (-5) - $117,742'
p140
sg7
I0
sg8
I1
sg9
F0.30446396479097226
sg10
F0
sg11
S'Hikaru EX3'
p141
sba(isaltybot
Fighter
p142
(dp143
g4
I0
sg5
S'Legion EX3 (7) - $386,719\r\n'
p144
sg7
I1
sg8
I0
sg9
F3.2844609400214027
sg10
F0
sg11
S'Legion EX3'
p145
sba(isaltybot
Fighter
p146
(dp147
g4
I0
sg5
S'Shaq Diesel (1) - $36,190'
p148
sg7
I1
sg8
I1
sg9
F0.15202109311356041
sg48
S'B'
sg10
F0
sg11
S'Shaq Diesel'
p149
sba(isaltybot
Fighter
p150
(dp151
g4
I0
sg5
S'Nucrear cirno (5) - $384,823\r\n'
p152
sg7
I1
sg8
I1
sg9
F9.811979881561987
sg48
S'B'
sg10
F0
sg11
S'Nucrear cirno'
p153
sba(isaltybot
Fighter
p154
(dp155
g4
I0
sg5
S'Han EX3 (-5) - $198,498'
p156
sg7
I1
sg8
I2
sg9
F1.1228152779283713
sg48
S'S'
sg10
F0
sg11
S'Han EX3'
p157
sba(isaltybot
Fighter
p158
(dp159
g4
I0
sg5
S'Zeeky h. bomb (1) - $185,356\r\n'
p160
sg7
I1
sg8
I0
sg9
F0.93379278380638597
sg10
F0
sg11
S'Zeeky h. bomb'
p161
sba(isaltybot
Fighter
p162
(dp163
g4
I0
sg5
S'Kingjoe (2) - $435,347'
p164
sg7
I2
sg8
I0
sg9
F5.7938023330307864
sg48
S'S'
sg10
F0
sg11
S'Kingjoe'
p165
sba(isaltybot
Fighter
p166
(dp167
g4
I0
sg5
S'Person-lichkeit (-2) - $57,327\r\n'
p168
sg7
I0
sg8
I1
sg9
F0.13168116468012872
sg10
F0
sg11
S'Person-lichkeit'
p169
sba(isaltybot
Fighter
p170
(dp171
g4
I0
sg5
S'Devilbat-schilt (-1) - $242,046'
p172
sg7
I0
sg8
I1
sg9
F1.1969143280998888
sg10
F0
sg11
S'Devilbat-schilt'
p173
sba(isaltybot
Fighter
p174
(dp175
g4
I0
sg5
S'94_flan (1) - $202,225\r\n'
p176
sg7
I1
sg8
I0
sg9
F0.83548168529948852
sg10
F0
sg11
S'94_flan'
p177
sba(isaltybot
Fighter
p178
(dp179
g4
I0
sg5
S'Young_rugal (5) - $348,855'
p180
sg7
I1
sg8
I0
sg9
F3.8776746512532649
sg10
F0
sg11
S'Young_rugal'
p181
sba(isaltybot
Fighter
p182
(dp183
g4
I0
sg5
S'Condor EX (-5) - $89,965\r\n'
p184
sg7
I0
sg8
I2
sg9
F0.19317668754273021
sg48
S'A'
sg10
F0
sg11
S'Condor EX'
p185
sba(isaltybot
Fighter
p186
(dp187
g4
I0
sg5
S'Majin boo EX3 (1) - $149,719'
p188
sg7
I0
sg8
I1
sg9
F2.9473984684134891
sg10
F0
sg11
S'Majin boo EX3'
p189
sba(isaltybot
Fighter
p190
(dp191
g4
I0
sg5
S'Birdie sfa (1) - $50,797\r\n'
p192
sg7
I1
sg8
I0
sg9
F0.33928225542516316
sg10
F0
sg11
S'Birdie sfa'
p193
sba(isaltybot
Fighter
p194
(dp195
g4
I0
sg5
S'Donovan (2) - $150,537'
p196
sg7
I1
sg8
I1
sg9
F1.6719636753314724
sg48
S'A'
sg10
F0
sg11
S'Donovan'
p197
sba(isaltybot
Fighter
p198
(dp199
g4
I0
sg5
S'Himekawa kotone (1) - $194,641\r\n'
p200
sg7
I1
sg8
I0
sg9
F1.2929778061207544
sg10
F0
sg11
S'Himekawa kotone'
p201
sba(isaltybot
Fighter
p202
(dp203
g4
I0
sg5
S'The atom (2) - $61,047'
p204
sg7
I0
sg8
I1
sg9
F0.13611280192105737
sg10
F0
sg11
S'The atom'
p205
sba(isaltybot
Fighter
p206
(dp207
g4
I0
sg5
S'Xeona (7) - $448,503\r\n'
p208
sg7
I1
sg8
I1
sg9
F11.091831270254845
sg48
S'B'
sg10
F0
sg11
S'Xeona'
p209
sba(isaltybot
Fighter
p210
(dp211
g4
I0
sg5
S'Miko (1) - $319,977'
p212
sg7
I1
sg8
I0
sg9
F7.0847799132052076
sg10
F0
sg11
S'Miko'
p213
sba(isaltybot
Fighter
p214
(dp215
g4
I0
sg5
S'Jill ex (1) - $45,164\r\n'
p216
sg7
I0
sg8
I3
sg9
F0.3615573697463641
sg48
S'A'
sg10
F0
sg11
S'Jill ex'
p217
sba(isaltybot
Fighter
p218
(dp219
g4
I0
sg5
S'Chintao FF (2) - $73,708'
p220
sg7
I1
sg8
I1
sg9
F0.64737077089108563
sg48
S'S'
sg10
F0
sg11
S'Chintao FF'
p221
sba(isaltybot
Fighter
p222
(dp223
g4
I0
sg5
S'Zuepia (2) - $213,110\r\n'
p224
sg7
I1
sg8
I0
sg9
F2.8912736744993759
sg10
F0
sg11
S'Zuepia'
p225
sba(isaltybot
Fighter
p226
(dp227
g4
I0
sg5
S'Gundam epyon (1) - $145,835'
p228
sg7
I1
sg8
I1
sg9
F1.2915198124121243
sg48
S'S'
sg10
F0
sg11
S'Gundam epyon'
p229
sba(isaltybot
Fighter
p230
(dp231
g4
I0
sg5
S'Meta jade (-2) - $149,167\r\n'
p232
sg7
I0
sg8
I1
sg9
F1.0228477388829842
sg10
F0
sg11
S'Meta jade'
p233
sba(isaltybot
Fighter
p234
(dp235
g4
I0
sg5
S'Ryu Evil (-4) - $56,603'
p236
sg7
I0
sg8
I1
sg9
F0.23595496250349121
sg10
F0
sg11
S'Ryu Evil'
p237
sba(isaltybot
Fighter
p238
(dp239
g4
I0
sg5
S'Ken sf3 (7) - $239,889\r\n'
p240
sg7
I1
sg8
I0
sg9
F4.2380969206579158
sg10
F0
sg11
S'Ken sf3'
p241
sba(isaltybot
Fighter
p242
(dp243
g4
I0
sg5
S'Dk (5) - $87,828'
p244
sg7
I0
sg8
I4
sg9
F0.49027954415113678
sg48
S'A'
sg10
F0
sg11
S'Dk'
p245
sba(isaltybot
Fighter
p246
(dp247
g4
I0
sg5
S'Shadow agent (6) - $305,153\r\n'
p248
sg7
I1
sg8
I0
sg9
F3.4744386755932051
sg10
F0
sg11
S'Shadow agent'
p249
sba(isaltybot
Fighter
p250
(dp251
g4
I0
sg5
S'Makoto EX3 (1) - $163,513'
p252
sg7
I0
sg8
I1
sg9
F0.67674740083438178
sg10
F0
sg11
S'Makoto EX3'
p253
sba(isaltybot
Fighter
p254
(dp255
g4
I0
sg5
S'Komepo (-1) - $241,616\r\n'
p256
sg7
I1
sg8
I1
sg9
F1.9617305000844762
sg48
S'A'
sg10
F0
sg11
S'Komepo'
p257
sba(isaltybot
Fighter
p258
(dp259
g4
I0
sg5
S'El stinger (-2) - $319,927'
p260
sg7
I0
sg8
I1
sg9
F6.0722189534420252
sg10
F0
sg11
S'El stinger'
p261
sba(isaltybot
Fighter
p262
(dp263
g4
I0
sg5
S'Underdog (-1) - $52,687\r\n'
p264
sg7
I1
sg8
I0
sg9
F0.16468444363870507
sg10
F0
sg11
S'Underdog'
p265
sba(isaltybot
Fighter
p266
(dp267
g4
I0
sg5
S'Lomias (4) - $332,896'
p268
sg7
I0
sg8
I1
sg9
F2.0234993769565084
sg10
F0
sg11
S'Lomias'
p269
sba(isaltybot
Fighter
p270
(dp271
g4
I0
sg5
S'Juri pf (-3) - $164,515\r\n'
p272
sg7
I1
sg8
I0
sg9
F0.49419338171681249
sg10
F0
sg11
S'Juri pf'
p273
sba(isaltybot
Fighter
p274
(dp275
g4
I0
sg5
S'Drunken master (-1) - $284,404'
p276
sg7
I0
sg8
I1
sg9
F1.7792597782838266
sg10
F0
sg11
S'Drunken master'
p277
sba(isaltybot
Fighter
p278
(dp279
g4
I0
sg5
S'Natsuka fuou (2) - $159,844\r\n'
p280
sg7
I1
sg8
I0
sg9
F0.56203147635054362
sg10
F0
sg11
S'Natsuka fuou'
p281
sba(isaltybot
Fighter
p282
(dp283
g4
I0
sg5
S'Leo FM (-9) - $42,411'
p284
sg7
I0
sg8
I1
sg9
F0.16287179093300563
sg10
F0
sg11
S'Leo FM'
p285
sba(isaltybot
Fighter
p286
(dp287
g4
I0
sg5
S'Captain america (1) - $260,395\r\n'
p288
sg7
I1
sg8
I0
sg9
F6.1397986371460238
sg10
F0
sg11
S'Captain america'
p289
sba(isaltybot
Fighter
p290
(dp291
g4
I0
sg5
S'Hisame shizumaru (2) - $431,014'
p292
sg7
I0
sg8
I1
sg9
F1.310642619740495
sg10
F0
sg11
S'Hisame shizumaru'
p293
sba(isaltybot
Fighter
p294
(dp295
g4
I0
sg5
S'Nash shadow (4) - $328,857\r\n'
p296
sg7
I1
sg8
I0
sg9
F0.76298449702329851
sg10
F0
sg11
S'Nash shadow'
p297
sba(isaltybot
Fighter
p298
(dp299
g4
I0
sg5
S'Evil homer (1) - $86,802'
p300
sg7
I1
sg8
I1
sg9
F2.2847277274638453
sg10
F0
sg11
S'Evil homer'
p301
sba(isaltybot
Fighter
p302
(dp303
g4
I0
sg5
S'Trish (-9) - $28,410\r\n'
p304
sg7
I0
sg8
I1
sg9
F0.32729660606898459
sg10
F0
sg11
S'Trish'
p305
sba(isaltybot
Fighter
p306
(dp307
g4
I0
sg5
S'Vixen (-2) - $45,051'
p308
sg7
I0
sg8
I1
sg9
F0.38589232943595014
sg10
F0
sg11
S'Vixen'
p309
sba(isaltybot
Fighter
p310
(dp311
g4
I0
sg5
S'Rosa_obsn (3) - $116,745\r\n'
p312
sg7
I2
sg8
I1
sg9
F1.8252470484152266
sg10
F0
sg11
S'Rosa_obsn'
p313
sba(isaltybot
Fighter
p314
(dp315
g4
I0
sg5
S'Bruce shotoman (-4) - $54,186'
p316
sg7
I1
sg8
I1
sg9
F0.38629485274100622
sg10
F0
sg11
S'Bruce shotoman'
p317
sba(isaltybot
Fighter
p318
(dp319
g4
I0
sg5
S'Rogue SP (-4) - $135,466\r\n'
p320
sg7
I0
sg8
I1
sg9
F2.5000184549514635
sg10
F0
sg11
S'Rogue SP'
p321
sba(isaltybot
Fighter
p322
(dp323
g4
I0
sg5
S'Reject no. 253 (-3) - $150,982'
p324
sg7
I4
sg8
I0
sg9
F1.2360217339239714
sg10
F0
sg11
S'Reject no. 253'
p325
sba(isaltybot
Fighter
p326
(dp327
g4
I0
sg5
S'Houoh (3) - $104,600\r\n'
p328
sg7
I0
sg8
I1
sg9
F0.69279781695831288
sg10
F0
sg11
S'Houoh'
p329
sba(isaltybot
Fighter
p330
(dp331
g4
I0
sg5
S'Hayato (1) - $97,533'
p332
sg7
I0
sg8
I2
sg9
F1.1376752103603855
sg48
S'B'
sg10
F0
sg11
S'Hayato'
p333
sba(isaltybot
Fighter
p334
(dp335
g4
I0
sg5
S'Number muncher (1) - $137,004\r\n'
p336
sg7
I2
sg8
I1
sg9
F1.6306012796275211
sg48
S'B'
sg10
F0
sg11
S'Number muncher'
p337
sba(isaltybot
Fighter
p338
(dp339
g4
I0
sg5
S'Elisabeth (6) - $213,989'
p340
sg7
I3
sg8
I1
sg9
F1.4382149553749275
sg10
F0
sg11
S'Elisabeth'
p341
sba(isaltybot
Fighter
p342
(dp343
g4
I0
sg5
S'Squall (-2) - $124,978\r\n'
p344
sg7
I0
sg8
I2
sg9
F1.748249892825283
sg48
S'B'
sg10
F0
sg11
S'Squall'
p345
sba(isaltybot
Fighter
p346
(dp347
g4
I0
sg5
S'Reptile mk2 (-2) - $204,502'
p348
sg7
I0
sg8
I1
sg9
F1.4318261380981054
sg10
F0
sg11
S'Reptile mk2'
p349
sba(isaltybot
Fighter
p350
(dp351
g4
I0
sg5
S'Akiha (4) - $142,826\r\n'
p352
sg7
I2
sg8
I1
sg9
F1.0506358972871972
sg48
S'B'
sg10
F0
sg11
S'Akiha'
p353
sba(isaltybot
Fighter
p354
(dp355
g4
I0
sg5
S'Shadow kouma (2) - $50,106'
p356
sg7
I0
sg8
I1
sg9
F0.19813906035597489
sg10
F0
sg11
S'Shadow kouma'
p357
sba(isaltybot
Fighter
p358
(dp359
g4
I0
sg5
S'Captain agent (2) - $252,883\r\n'
p360
sg7
I2
sg8
I1
sg9
F3.2615612193804293
sg10
F0
sg11
S'Captain agent'
p361
sba(isaltybot
Fighter
p362
(dp363
g4
I0
sg5
S'Godmars- $310,707'
p364
sg7
I1
sg8
I0
sg9
F0.67232660444846437
sg10
F0
sg11
S'Godmars'
p365
sba(isaltybot
Fighter
p366
(dp367
g4
I0
sg5
S'Albion- $462,137\r\n'
p368
sg7
I0
sg8
I1
sg9
F1.4873723475814835
sg10
F0
sg11
S'Albion'
p369
sba(isaltybot
Fighter
p370
(dp371
g4
I0
sg5
S'Stupid little drill tank- $248,516'
p372
sg7
I1
sg8
I1
sg9
F1.2147252866027343
sg48
S'S'
sg10
F0
sg11
S'Stupid little drill tank'
p373
sba(isaltybot
Fighter
p374
(dp375
g4
I0
sg5
S'Koopa clown car- $211,206\r\n'
p376
sg7
I0
sg8
I1
sg9
F0.8498688213233756
sg10
F0
sg11
S'Koopa clown car'
p377
sba(isaltybot
Fighter
p378
(dp379
g4
I0
sg5
S'Son of sun- $94,766'
p380
sg7
I0
sg8
I1
sg9
F0.016744218919097997
sg10
F0
sg11
S'Son of sun'
p381
sba(isaltybot
Fighter
p382
(dp383
g4
I0
sg5
S'Rare akuma- $5,659,625\r\n'
p384
sg7
I1
sg8
I0
sg9
F59.72210497435789
sg10
F0
sg11
S'Rare akuma'
p385
sba(isaltybot
Fighter
p386
(dp387
g4
I0
sg5
S'Pikkon (1) - $79,536'
p388
sg7
I0
sg8
I1
sg9
F0.37506366122795437
sg10
F0
sg11
S'Pikkon'
p389
sba(isaltybot
Fighter
p390
(dp391
g4
I0
sg5
S'Freedom gundam (2) - $212,060\r\n'
p392
sg7
I1
sg8
I0
sg9
F2.6662140414403539
sg10
F0
sg11
S'Freedom gundam'
p393
sba(isaltybot
Fighter
p394
(dp395
g4
I0
sg5
S'Marcia (-1) - $119,076'
p396
sg7
I0
sg8
I1
sg9
F0.71894509316170163
sg10
F0
sg11
S'Marcia'
p397
sba(isaltybot
Fighter
p398
(dp399
g4
I0
sg5
S'Yunfei (-2) - $76,482'
p400
sg7
I0
sg8
I1
sg9
F0.078379408726449898
sg10
F0
sg11
S'Yunfei'
p401
sba(isaltybot
Fighter
p402
(dp403
g4
I0
sg5
S'Filea EX3 (2) - $975,792\r\n'
p404
sg7
I1
sg8
I0
sg9
F12.758452969326116
sg10
F0
sg11
S'Filea EX3'
p405
sba(isaltybot
Fighter
p406
(dp407
g4
I0
sg5
S'Yukari Tanizaki (-3) - $75,805'
p408
sg7
I0
sg8
I1
sg9
F0.13204927656401877
sg10
F0
sg11
S'Yukari Tanizaki'
p409
sba(isaltybot
Fighter
p410
(dp411
g4
I0
sg5
S'Yuiran (-2) - $574,066\r\n'
p412
sg7
I1
sg8
I0
sg9
F7.5729305454785303
sg10
F0
sg11
S'Yuiran'
p413
sba(isaltybot
Fighter
p414
(dp415
g4
I0
sg5
S'Dragon_warrior(dnf) +q (-2) - $66,006'
p416
sg7
I0
sg8
I1
sg9
F0.022736988304949704
sg10
F0
sg11
S'Dragon_warrior(dnf) +q'
p417
sba(isaltybot
Fighter
p418
(dp419
g4
I0
sg5
S'Spidermanu (1) - $2,903,023\r\n'
p420
sg7
I2
sg8
I0
sg9
F57.60955087254829
sg48
S'S'
sg10
F0
sg11
S'Spidermanu'
p421
sba(isaltybot
Fighter
p422
(dp423
g4
I0
sg5
S'Hakurou (1) - $234,058'
p424
sg7
I2
sg8
I0
sg9
F5.4149413060122971
sg48
S'B'
sg10
F0
sg11
S'Hakurou'
p425
sba(isaltybot
Fighter
p426
(dp427
g4
I0
sg5
S'Pocket Akuma (-1) - $298,446\r\n'
p428
sg7
I0
sg8
I1
sg9
F1.275094207418674
sg10
F0
sg11
S'Pocket Akuma'
p429
sba(isaltybot
Fighter
p430
(dp431
g4
I0
sg5
S'Original the character (9) - $28,313'
p432
sg7
I1
sg8
I0
sg9
F0.27073312997829391
sg48
S'S'
sg10
F0
sg11
S'Original the character'
p433
sba(isaltybot
Fighter
p434
(dp435
g4
I0
sg5
S'Uroboros (3) - $104,579\r\n'
p436
sg7
I0
sg8
I1
sg9
F3.693674283897856
sg48
S'S'
sg10
F0
sg11
S'Uroboros'
p437
sba(isaltybot
Fighter
p438
(dp439
g4
I0
sg5
S'Kyosuke shigure (1) - $298,239'
p440
sg7
I0
sg8
I1
sg9
F1.0046588244805563
sg48
S'A'
sg10
F0
sg11
S'Kyosuke shigure'
p441
sba(isaltybot
Fighter
p442
(dp443
g4
I0
sg5
S'Kill bill uma-ex (4) - $296,856\r\n'
p444
sg7
I1
sg8
I0
sg9
F0.99536277951575747
sg48
S'A'
sg10
F0
sg11
S'Kill bill uma-ex'
p445
sba(isaltybot
Fighter
p446
(dp447
g4
I0
sg5
S'A-agito (-1) - $514,810'
p448
sg7
I1
sg8
I0
sg9
F1.307546949370368
sg48
S'S'
sg10
F0
sg11
S'A-agito'
p449
sba(isaltybot
Fighter
p450
(dp451
g4
I0
sg5
S'D4?roll? (-1) - $393,722\r\n'
p452
sg7
I1
sg8
I1
sg9
F2.2334534671195065
sg48
S'S'
sg10
F0
sg11
S'D4?roll?'
p453
sba(isaltybot
Fighter
p454
(dp455
g4
I0
sg5
S'Chinese gouki (-4) - $261,041'
p456
sg7
I0
sg8
I1
sg9
F0.59744079170214126
sg48
S'S'
sg10
F0
sg11
S'Chinese gouki'
p457
sba(isaltybot
Fighter
p458
(dp459
g4
I0
sg5
S'Triceratops (1) - $436,932\r\n'
p460
sg7
I1
sg8
I0
sg9
F1.6738060304703093
sg48
S'S'
sg10
F0
sg11
S'Triceratops'
p461
sba(isaltybot
Fighter
p462
(dp463
g4
I0
sg5
S'Saku (-1) - $410,443'
p464
sg7
I1
sg8
I0
sg9
F1.5304529725859857
sg48
S'A'
sg10
F0
sg11
S'Saku'
p465
sba(isaltybot
Fighter
p466
(dp467
g4
I0
sg5
S'Khan ex (-1) - $268,184\r\n'
p468
sg7
I0
sg8
I2
sg9
F3.3180013626656351
sg48
S'A'
sg10
F0
sg11
S'Khan ex'
p469
sba(isaltybot
Fighter
p470
(dp471
g4
I0
sg5
S'Zero Hotaru (-8) - $74,053'
p472
sg7
I0
sg8
I1
sg9
F0.12805822825086982
sg48
S'B'
sg10
F0
sg11
S'Zero Hotaru'
p473
sba(isaltybot
Fighter
p474
(dp475
g4
I0
sg5
S'Ronove (3) - $578,276\r\n'
p476
sg7
I1
sg8
I0
sg9
F7.8089476456051745
sg48
S'B'
sg10
F0
sg11
S'Ronove'
p477
sba(isaltybot
Fighter
p478
(dp479
g4
I0
sg5
S'General bush (-1) - $58,021'
p480
sg7
I0
sg8
I2
sg9
F0.098276535001392107
sg48
S'B'
sg10
F0
sg11
S'General bush'
p481
sba(isaltybot
Fighter
p482
(dp483
g4
I0
sg5
S'Strawbelly jam (4) - $934,235\r\n'
p484
sg7
I1
sg8
I0
sg9
F16.101670084969236
sg48
S'B'
sg10
F0
sg11
S'Strawbelly jam'
p485
sba(isaltybot
Fighter
p486
(dp487
g4
I0
sg5
S'Mahvel ryu (-1) - $2,072,244'
p488
sg7
I1
sg8
I0
sg9
F35.070471161657188
sg48
S'S'
sg10
F0
sg11
S'Mahvel ryu'
p489
sba(isaltybot
Fighter
p490
(dp491
g4
I0
sg5
S'Sittara (1) - $59,088\r\n'
p492
sg7
I0
sg8
I2
sg9
F0.21218310894333439
sg48
S'S'
sg10
F0
sg11
S'Sittara'
p493
sba(isaltybot
Fighter
p494
(dp495
g4
I0
sg5
S'Sentinel (6) - $247,899\r\n'
p496
sg7
I0
sg8
I1
sg9
F0.98378084496757756
sg48
S'A'
sg10
F0
sg11
S'Sentinel'
p497
sba(isaltybot
Fighter
p498
(dp499
g4
I0
sg5
S'Lucario (-3) - $310,654'
p500
sg7
I0
sg8
I1
sg9
F1.9444677428440877
sg48
S'A'
sg10
F0
sg11
S'Lucario'
p501
sba(isaltybot
Fighter
p502
(dp503
g4
I0
sg5
S'Rugal (-2) - $159,763\r\n'
p504
sg7
I1
sg8
I0
sg9
F0.51427955217058208
sg48
S'A'
sg10
F0
sg11
S'Rugal'
p505
sba(isaltybot
Fighter
p506
(dp507
g4
I0
sg5
S'Venom GG (1) - $328,885'
p508
sg7
I1
sg8
I0
sg9
F0.84579103970950165
sg48
S'S'
sg10
F0
sg11
S'Venom GG'
p509
sba(isaltybot
Fighter
p510
(dp511
g4
I0
sg5
S'Shingo EX2 (-3) - $388,849\r\n'
p512
sg7
I0
sg8
I1
sg9
F1.182325128844429
sg48
S'S'
sg10
F0
sg11
S'Shingo EX2'
p513
sba(isaltybot
Fighter
p514
(dp515
g4
I0
sg5
S'Shinsaku maekawa (4) - $535,189'
p516
sg7
I1
sg8
I0
sg9
F3.4688336520076484
sg48
S'B'
sg10
F0
sg11
S'Shinsaku maekawa'
p517
sba(isaltybot
Fighter
p518
(dp519
g4
I0
sg5
S'Radel (1) - $154,285\r\n'
p520
sg7
I0
sg8
I1
sg9
F0.28828133612611617
sg48
S'B'
sg10
F0
sg11
S'Radel'
p521
sba(isaltybot
Fighter
p522
(dp523
g4
I0
sg5
S'Orochimaru (-3) - $130,297'
p524
sg7
I1
sg8
I0
sg9
F0.37998874297529578
sg48
S'B'
sg10
F0
sg11
S'Orochimaru'
p525
sba(isaltybot
Fighter
p526
(dp527
g4
I0
sg5
S'Thin nen (3) - $342,897\r\n'
p528
sg7
I0
sg8
I1
sg9
F2.631656906912669
sg48
S'B'
sg10
F0
sg11
S'Thin nen'
p529
sba(isaltybot
Fighter
p530
(dp531
g4
I0
sg5
S'Sailor mercury EX (-2) - $552,028'
p532
sg7
I2
sg8
I0
sg9
F6.5817038956270855
sg48
S'B'
sg10
F0
sg11
S'Sailor mercury EX'
p533
sba(isaltybot
Fighter
p534
(dp535
g4
I0
sg5
S'Regina (1) - $93,222\r\n'
p536
sg7
I0
sg8
I1
sg9
F0.16887186881824834
sg48
S'B'
sg10
F0
sg11
S'Regina'
p537
sba(isaltybot
Fighter
p538
(dp539
g4
I0
sg5
S'Mariabell armitage (2) - $521,811'
p540
sg7
I1
sg8
I0
sg9
F1.6877856447444601
sg48
S'A'
sg10
F0
sg11
S'Mariabell armitage'
p541
sba(isaltybot
Fighter
p542
(dp543
g4
I0
sg5
S'Munch (-3) - $309,169\r\n'
p544
sg7
I0
sg8
I1
sg9
F0.59249230085222426
sg48
S'A'
sg10
F0
sg11
S'Munch'
p545
sba(isaltybot
Fighter
p546
(dp547
g4
I0
sg5
S'Nightwolf (-1) - $634,005'
p548
sg7
I1
sg8
I0
sg9
F6.1255338061100266
sg48
S'B'
sg10
F0
sg11
S'Nightwolf'
p549
sba(isaltybot
Fighter
p550
(dp551
g4
I0
sg5
S'Holy god earth (-1) - $103,502\r\n'
p552
sg7
I0
sg8
I1
sg9
F0.16325107846152634
sg48
S'B'
sg10
F0
sg11
S'Holy god earth'
p553
sba(isaltybot
Fighter
p554
(dp555
g4
I0
sg5
S'E-terry 71113 (-2) - $263,579'
p556
sg7
I0
sg8
I1
sg9
F0.763417346826468
sg48
S'A'
sg10
F0
sg11
S'E-terry 71113'
p557
sba(isaltybot
Fighter
p558
(dp559
g4
I0
sg5
S'Samchay ex (4) - $345,262\r\n'
p560
sg7
I1
sg8
I0
sg9
F1.309899498821985
sg48
S'A'
sg10
F0
sg11
S'Samchay ex'
p561
sba(isaltybot
Fighter
p562
(dp563
g4
I0
sg5
S'Super androide 17 hd (2) - $231,409'
p564
sg7
I0
sg8
I1
sg9
F0.61830088760400359
sg48
S'S'
sg10
F0
sg11
S'Super androide 17 hd'
p565
sba(isaltybot
Fighter
p566
(dp567
g4
I0
sg5
S'Mageko EX (1) - $374,266\r\n'
p568
sg7
I1
sg8
I1
sg9
F6.6757361131624746
sg48
S'S'
sg10
F0
sg11
S'Mageko EX'
p569
sba(isaltybot
Fighter
p570
(dp571
g4
I0
sg5
S'Arrange_unknown (-4) - $336,915'
p572
sg7
I0
sg8
I1
sg9
F3.1872835979036194
sg48
S'S'
sg10
F0
sg11
S'Arrange_unknown'
p573
sba(isaltybot
Fighter
p574
(dp575
g4
I0
sg5
S'Fang 0d (-3) - $105,706\r\n'
p576
sg7
I1
sg8
I0
sg9
F0.31374679073356782
sg48
S'S'
sg10
F0
sg11
S'Fang 0d'
p577
sba(isaltybot
Fighter
p578
(dp579
g4
I0
sg5
S'Kung fu head (-1) - $488,934'
p580
sg7
I0
sg8
I1
sg9
F2.0540424727456048
sg48
S'S'
sg10
F0
sg11
S'Kung fu head'
p581
sba(isaltybot
Fighter
p582
(dp583
g4
I0
sg5
S'Kim sueil (1) - $238,035\r\n'
p584
sg7
I1
sg8
I0
sg9
F0.48684485022518376
sg48
S'S'
sg10
F0
sg11
S'Kim sueil'
p585
sba(isaltybot
Fighter
p586
(dp587
g4
I0
sg5
S'Vegeta ssj5 (-1) - $256,994'
p588
sg7
I0
sg8
I1
sg9
F0.83401700525735056
sg48
S'B'
sg10
F0
sg11
S'Vegeta ssj5'
p589
sba(isaltybot
Fighter
p590
(dp591
g4
I0
sg5
S'The Sailor Man (-5) - $308,140\r\n'
p592
sg7
I1
sg8
I1
sg9
F0.86609371538701707
sg48
S'B'
sg10
F0
sg11
S'The Sailor Man'
p593
sba(isaltybot
Fighter
p594
(dp595
g4
I0
sg5
S'Trunks EX3 (3) - $382,201'
p596
sg7
I0
sg8
I1
sg9
F1.8224433646927556
sg48
S'A'
sg10
F0
sg11
S'Trunks EX3'
p597
sba(isaltybot
Fighter
p598
(dp599
g4
I0
sg5
S'Miyuki (1) - $209,719\r\n'
p600
sg7
I3
sg8
I0
sg9
F2.7037884978342426
sg48
S'A'
sg10
F0
sg11
S'Miyuki'
p601
sba(isaltybot
Fighter
p602
(dp603
g4
I0
sg5
S'Killer whale (-2) - $1,665,713'
p604
sg7
I4
sg8
I0
sg9
F17.726048987573439
sg48
S'S'
sg10
F0
sg11
S'Killer whale'
p605
sba(isaltybot
Fighter
p606
(dp607
g4
I0
sg5
S'Another blood k (3) - $104,157\r\n'
p608
sg7
I0
sg8
I1
sg9
F0.06252997965435822
sg48
S'S'
sg10
F0
sg11
S'Another blood k'
p609
sba(isaltybot
Fighter
p610
(dp611
g4
I0
sg5
S'Ivy (-6) - $349,733'
p612
sg7
I0
sg8
I1
sg9
F2.205473750591203
sg48
S'B'
sg10
F0
sg11
S'Ivy'
p613
sba(isaltybot
Fighter
p614
(dp615
g4
I0
sg5
S'Blaze EX2 (-5) - $158,575\r\n'
p616
sg7
I1
sg8
I0
sg9
F0.4534173212136115
sg48
S'B'
sg10
F0
sg11
S'Blaze EX2'
p617
sba(isaltybot
Fighter
p618
(dp619
g4
I0
sg5
S'Seikimatsukyu-seisya kenshirou (-2) - $754,863'
p620
sg7
I0
sg8
I1
sg9
F7.5622420356641955
sg48
S'X'
sg10
F0
sg11
S'Seikimatsukyu-seisya kenshirou'
p621
sba(isaltybot
Fighter
p622
(dp623
g4
I0
sg5
S'Himan zellode (-1) - $99,820\r\n'
p624
sg7
I1
sg8
I0
sg9
F0.13223591565621842
sg48
S'X'
sg10
F0
sg11
S'Himan zellode'
p625
sba(isaltybot
Fighter
p626
(dp627
g4
I0
sg5
S'Oyashiro_chie (4) - $1,114,440'
p628
sg7
I1
sg8
I0
sg9
F10.523711495967818
sg48
S'S'
sg10
F0
sg11
S'Oyashiro_chie'
p629
sba(isaltybot
Fighter
p630
(dp631
g4
I0
sg5
S'Atari dragon EX2 (2) - $105,898\r\n'
p632
sg7
I0
sg8
I2
sg9
F0.55802225913906056
sg48
S'S'
sg10
F0
sg11
S'Atari dragon EX2'
p633
sba(isaltybot
Fighter
p634
(dp635
g4
I0
sg5
S'Sasquatch (-4) - $222,900'
p636
sg7
I0
sg8
I1
sg9
F0.44867240070934122
sg48
S'S'
sg10
F0
sg11
S'Sasquatch'
p637
sba(isaltybot
Fighter
p638
(dp639
g4
I0
sg5
S'Haohmaru (3) - $496,799\r\n'
p640
sg7
I2
sg8
I0
sg9
F4.6230904866321012
sg48
S'S'
sg10
F0
sg11
S'Haohmaru'
p641
sba(isaltybot
Fighter
p642
(dp643
g4
I0
sg5
S'Peach mizuki (1) - $422,950'
p644
sg7
I1
sg8
I0
sg9
F2.4535766702826876
sg48
S'B'
sg10
F0
sg11
S'Peach mizuki'
p645
sba(isaltybot
Fighter
p646
(dp647
g4
I0
sg5
S'Galvatron (1) - $172,381\r\n'
p648
sg7
I0
sg8
I1
sg9
F0.40756827048114436
sg48
S'B'
sg10
F0
sg11
S'Galvatron'
p649
sba(isaltybot
Fighter
p650
(dp651
g4
I0
sg5
S'Millia (12) - $2,510,450'
p652
sg7
I1
sg8
I0
sg9
F43.689632968448166
sg48
S'S'
sg10
F0
sg11
S'Millia'
p653
sba(isaltybot
Fighter
p654
(dp655
g4
I0
sg5
S'Lin EX (1) - $57,461\r\n'
p656
sg7
I0
sg8
I1
sg9
F0.022888725128960945
sg48
S'S'
sg10
F0
sg11
S'Lin EX'
p657
sba(isaltybot
Fighter
p658
(dp659
g4
I0
sg5
S'Makendo (-1) - $231,634'
p660
sg7
I0
sg8
I1
sg9
F0.99024012790861715
sg48
S'A'
sg10
F0
sg11
S'Makendo'
p661
sba(isaltybot
Fighter
p662
(dp663
g4
I0
sg5
S'Sheng long (-3) - $233,917\r\n'
p664
sg7
I1
sg8
I0
sg9
F1.0098560660352107
sg48
S'A'
sg10
F0
sg11
S'Sheng long'
p665
sba(isaltybot
Fighter
p666
(dp667
g4
I0
sg5
S'Demoniho (2) - $405,394'
p668
sg7
I1
sg8
I0
sg9
F9.3767405282879217
sg48
S'B'
sg10
F0
sg11
S'Demoniho'
p669
sba(isaltybot
Fighter
p670
(dp671
g4
I0
sg5
S'Carol (1) - $43,234\r\n'
p672
sg7
I0
sg8
I1
sg9
F0.10664686699852489
sg48
S'B'
sg10
F0
sg11
S'Carol'
p673
sba(isaltybot
Fighter
p674
(dp675
g4
I0
sg5
S'Reika EX3 (1) - $105,474'
p676
sg7
I0
sg8
I1
sg9
F0.2661999237799107
sg48
S'B'
sg10
F0
sg11
S'Reika EX3'
p677
sba(isaltybot
Fighter
p678
(dp679
g4
I0
sg5
S'Zangoose (-1) - $396,221\r\n'
p680
sg7
I1
sg8
I0
sg9
F3.7565750801145308
sg48
S'B'
sg10
F0
sg11
S'Zangoose'
p681
sba(isaltybot
Fighter
p682
(dp683
g4
I0
sg5
S'Vita (5) - $175,417'
p684
sg7
I0
sg8
I1
sg9
F0.51689773547655182
sg48
S'B'
sg10
F0
sg11
S'Vita'
p685
sba(isaltybot
Fighter
p686
(dp687
g4
I0
sg5
S'Chizuru 71113 (1) - $339,365\r\n'
p688
sg7
I1
sg8
I0
sg9
F1.9346186515560067
sg48
S'B'
sg10
F0
sg11
S'Chizuru 71113'
p689
sba(isaltybot
Fighter
p690
(dp691
g4
I0
sg5
S'Orsted (-5) - $79,132'
p692
sg7
I0
sg8
I1
sg9
F0.30585015924059245
sg48
S'S'
sg10
F0
sg11
S'Orsted'
p693
sba(isaltybot
Fighter
p694
(dp695
g4
I0
sg5
S'Ciel EX3 (2) - $258,728\r\n'
p696
sg7
I1
sg8
I1
sg9
F7.0411200770340709
sg48
S'S'
sg10
F0
sg11
S'Ciel EX3'
p697
sba(isaltybot
Fighter
p698
(dp699
g4
I0
sg5
S'Clayface (-3) - $252,684'
p700
sg7
I1
sg8
I2
sg9
F0.95465026256731389
sg48
S'B'
sg10
F0
sg11
S'Clayface'
p701
sba(isaltybot
Fighter
p702
(dp703
g4
I0
sg5
S'Nico robin (1) - $73,845\r\n'
p704
sg7
I0
sg8
I1
sg9
F0.29224248468442798
sg48
S'B'
sg10
F0
sg11
S'Nico robin'
p705
sba(isaltybot
Fighter
p706
(dp707
g4
I0
sg5
S'Wonder Woman Reloaded (-2) - $298,049'
p708
sg7
I0
sg8
I1
sg9
F1.8895792256534778
sg48
S'A'
sg10
F0
sg11
S'Wonder Woman Reloaded'
p709
sba(isaltybot
Fighter
p710
(dp711
g4
I0
sg5
S'Rin_tohsaka (-1) - $157,733\r\n'
p712
sg7
I1
sg8
I0
sg9
F0.52921835000285189
sg48
S'A'
sg10
F0
sg11
S'Rin_tohsaka'
p713
sba(isaltybot
Fighter
p714
(dp715
g4
I0
sg5
S'Lloyd irving (-2) - $152,768'
p716
sg7
I0
sg8
I1
sg9
F0.39340344660644205
sg48
S'A'
sg10
F0
sg11
S'Lloyd irving'
p717
sba(isaltybot
Fighter
p718
(dp719
g4
I0
sg5
S'Haggar ex (1) - $388,324\r\n'
p720
sg7
I1
sg8
I0
sg9
F2.5419197737746124
sg48
S'A'
sg10
F0
sg11
S'Haggar ex'
p721
sba(isaltybot
Fighter
p722
(dp723
g4
I0
sg5
S'Etomo shuko EX3 (1) - $128,934'
p724
sg7
I1
sg8
I0
sg9
F2.8547958551058366
sg48
S'A'
sg10
F0
sg11
S'Etomo shuko EX3'
p725
sba(isaltybot
Fighter
p726
(dp727
g4
I0
sg5
S'John anderson (-6) - $84,077'
p728
sg7
I0
sg8
I1
sg9
F0.14722197902257086
sg48
S'A'
sg10
F0
sg11
S'John anderson'
p729
sba(isaltybot
Fighter
p730
(dp731
g4
I0
sg5
S'Fujibayashi suzu (-1) - $571,090\r\n'
p732
sg7
I1
sg8
I0
sg9
F6.7924640508105663
sg48
S'A'
sg10
F0
sg11
S'Fujibayashi suzu'
p733
sba(isaltybot
Fighter
p734
(dp735
g4
I0
sg5
S'Jin CVS (-2) - $330,472'
p736
sg7
I1
sg8
I1
sg9
F0.88799750072744532
sg48
S'B'
sg10
F0
sg11
S'Jin CVS'
p737
sba(isaltybot
Fighter
p738
(dp739
g4
I0
sg5
S'Leo (-4) - $414,170\r\n'
p740
sg7
I0
sg8
I1
sg9
F1.2532680529666658
sg48
S'B'
sg10
F0
sg11
S'Leo'
p741
sba(isaltybot
Fighter
p742
(dp743
g4
I0
sg5
S'Balrog_a (-4) - $93,166'
p744
sg7
I0
sg8
I1
sg9
F0.16080514764261994
sg48
S'B'
sg10
F0
sg11
S'Balrog_a'
p745
sba(isaltybot
Fighter
p746
(dp747
g4
I0
sg5
S'Yoshi EX2 (1) - $579,372\r\n'
p748
sg7
I1
sg8
I0
sg9
F6.2187063950368158
sg48
S'B'
sg10
F0
sg11
S'Yoshi EX2'
p749
sba(isaltybot
Fighter
p750
(dp751
g4
I0
sg5
S'T ninja (2) - $108,606'
p752
sg7
I0
sg8
I1
sg9
F0.33703137073574913
sg48
S'B'
sg10
F0
sg11
S'T ninja'
p753
sba(isaltybot
Fighter
p754
(dp755
g4
I0
sg5
S'Sf4 omni (5) - $322,243\r\n'
p756
sg7
I1
sg8
I0
sg9
F2.9670828499346262
sg48
S'B'
sg10
F0
sg11
S'Sf4 omni'
p757
sba(isaltybot
Fighter
p758
(dp759
g4
I0
sg5
S'Geese EX2 (4) - $917,641'
p760
sg7
I1
sg8
I0
sg9
F24.294212644286773
sg48
S'B'
sg10
F0
sg11
S'Geese EX2'
p761
sba(isaltybot
Fighter
p762
(dp763
g4
I0
sg5
S'Mr2.bon kure (-1) - $37,772\r\n'
p764
sg7
I0
sg8
I1
sg9
F0.041162066646978503
sg48
S'B'
sg10
F0
sg11
S'Mr2.bon kure'
p765
sba(isaltybot
Fighter
p766
(dp767
g4
I0
sg5
S'Charlotte (1) - $110,432'
p768
sg7
I0
sg8
I2
sg9
F0.61294759211558991
sg48
S'A'
sg10
F0
sg11
S'Charlotte'
p769
sba(isaltybot
Fighter
p770
(dp771
g4
I0
sg5
S'Gen shougo (-1) - $499,778\r\n'
p772
sg7
I2
sg8
I0
sg9
F4.7213465030206683
sg48
S'A'
sg10
F0
sg11
S'Gen shougo'
p773
sba(isaltybot
Fighter
p774
(dp775
g4
I0
sg5
S'The Colonel (0) - $167,181'
p776
sg7
I1
sg8
I0
sg9
F1.3397845843150455
sg48
S'A'
sg10
F0
sg11
S'The Colonel'
p777
sba(isaltybot
Fighter
p778
(dp779
g4
I0
sg5
S'The manticore, the queen, and the dragon (-1) - $124,782\r\n'
p780
sg7
I0
sg8
I1
sg9
F0.74638864464263288
sg48
S'A'
sg10
F0
sg11
S'The manticore, the queen, and the dragon'
p781
sba(isaltybot
Fighter
p782
(dp783
g4
I0
sg5
S'Dokuro chan (1) - $969,525'
p784
sg7
I1
sg8
I0
sg9
F7.073365580336624
sg48
S'S'
sg10
F0
sg11
S'Dokuro chan'
p785
sba(isaltybot
Fighter
p786
(dp787
g4
I0
sg5
S'Nanaya_reaver (2) - $137,067\r\n'
p788
sg7
I0
sg8
I1
sg9
F0.14137541579639515
sg48
S'S'
sg10
F0
sg11
S'Nanaya_reaver'
p789
sba(isaltybot
Fighter
p790
(dp791
g4
I0
sg5
S'Yorihime watatsuki (4) - $8,263,138'
p792
sg7
I2
sg8
I0
sg9
F98.500149876682599
sg48
S'X'
sg10
F0
sg11
S'Yorihime watatsuki'
p793
sba(isaltybot
Fighter
p794
(dp795
g4
I0
sg5
S'Super homer (-1) - $137,951\r\n'
p796
sg7
I0
sg8
I1
sg9
F0.016694747201365875
sg48
S'X'
sg10
F0
sg11
S'Super homer'
p797
sba(isaltybot
Fighter
p798
(dp799
g4
I0
sg5
S'Missing iq gomes (-1) - $349,852'
p800
sg7
I0
sg8
I2
sg9
F2.5008835786442871
sg48
S'A'
sg10
F0
sg11
S'Missing iq gomes'
p801
sba(isaltybot
Fighter
p802
(dp803
g4
I0
sg5
S'Gigant (1) - $191,114\r\n'
p804
sg7
I1
sg8
I0
sg9
F0.5462709945919989
sg48
S'A'
sg10
F0
sg11
S'Gigant'
p805
sba(isaltybot
Fighter
p806
(dp807
g4
I0
sg5
S'Sugoi cirno (-2) - $555,300'
p808
sg7
I1
sg8
I0
sg9
F3.0395086866563763
sg48
S'A'
sg10
F0
sg11
S'Sugoi cirno'
p809
sba(isaltybot
Fighter
p810
(dp811
g4
I0
sg5
S'Gustoff EX3 (-1) - $182,694\r\n'
p812
sg7
I0
sg8
I2
sg9
F1.090054303151861
sg48
S'A'
sg10
F0
sg11
S'Gustoff EX3'
p813
sba(isaltybot
Fighter
p814
(dp815
g4
I0
sg5
S'Haru-chan (1) - $2,372,514'
p816
sg7
I1
sg8
I0
sg9
F11.725788675104901
sg48
S'B'
sg10
F0
sg11
S'Haru-chan'
p817
sba(isaltybot
Fighter
p818
(dp819
g4
I0
sg5
S'Keith wayne (-1) - $202,333\r\n'
p820
sg7
I0
sg8
I1
sg9
F0.085282110031805927
sg48
S'B'
sg10
F0
sg11
S'Keith wayne'
p821
sba(isaltybot
Fighter
p822
(dp823
g4
I0
sg5
S'Orochi(rance) (-1) - $197,922'
p824
sg7
I0
sg8
I1
sg9
F0.47546544310183292
sg48
S'X'
sg10
F0
sg11
S'Orochi(rance)'
p825
sba(isaltybot
Fighter
p826
(dp827
g4
I0
sg5
S'Remilia (-5) - $416,270\r\n'
p828
sg7
I1
sg8
I0
sg9
F2.1032022716019441
sg48
S'X'
sg10
F0
sg11
S'Remilia'
p829
sba(isaltybot
Fighter
p830
(dp831
g4
I0
sg5
S'Galactus (2) - $793,608'
p832
sg7
I1
sg8
I0
sg9
F7.1975403814585395
sg48
S'S'
sg10
F0
sg11
S'Galactus'
p833
sba(isaltybot
Fighter
p834
(dp835
g4
I0
sg5
S'Ssj three broli (1) - $49,035'
p836
sg7
I0
sg8
I1
sg9
F0.096806099564091225
sg48
S'B'
sg10
F0
sg11
S'Ssj three broli'
p837
sba(isaltybot
Fighter
p838
(dp839
g4
I0
sg5
S'Athena asamiya (5) - $506,528\r\n'
p840
sg7
I1
sg8
I0
sg9
F10.329927602732742
sg48
S'B'
sg10
F0
sg11
S'Athena asamiya'
p841
sba(isaltybot
Fighter
p842
(dp843
g4
I0
sg5
S'Aoba (-4) - $92,636'
p844
sg7
I0
sg8
I1
sg9
F0.082543637120221836
sg48
S'S'
sg10
F0
sg11
S'Aoba'
p845
sba(isaltybot
Fighter
p846
(dp847
g4
I0
sg5
S'Dark eternal champion (5) - $1,122,267\r\n'
p848
sg7
I1
sg8
I0
sg9
F12.11480417980051
sg48
S'S'
sg10
F0
sg11
S'Dark eternal champion'
p849
sba(isaltybot
Fighter
p850
(dp851
g4
I0
sg5
S'Kaede kasiwagi (-2) - $367,175'
p852
sg7
I1
sg8
I0
sg9
F0.92621321507671039
sg48
S'S'
sg10
F0
sg11
S'Kaede kasiwagi'
p853
sba(isaltybot
Fighter
p854
(dp855
g4
I0
sg5
S'Tin star (-3) - $396,426\r\n'
p856
sg7
I0
sg8
I1
sg9
F1.0796650098726766
sg48
S'S'
sg10
F0
sg11
S'Tin star'
p857
sba(isaltybot
Fighter
p858
(dp859
g4
I0
sg5
S'Pocket Sakura (2) - $257,881'
p860
sg7
I1
sg8
I0
sg9
F1.1163438020822061
sg48
S'B'
sg10
F0
sg11
S'Pocket Sakura'
p861
sba(isaltybot
Fighter
p862
(dp863
g4
I0
sg5
S'Ralf 2k2 (1) - $231,005\r\n'
p864
sg7
I0
sg8
I1
sg9
F0.89578138753921377
sg48
S'B'
sg10
F0
sg11
S'Ralf 2k2'
p865
sba(isaltybot
Fighter
p866
(dp867
g4
I0
sg5
S'Kogasa_f (-1) - $107,350'
p868
sg7
I2
sg8
I0
sg9
F1.2877234527927786
sg48
S'B'
sg10
F0
sg11
S'Kogasa_f'
p869
sba(isaltybot
Fighter
p870
(dp871
g4
I0
sg5
S'Axearmor (-1) - $250,366\r\n'
p872
sg7
I0
sg8
I1
sg9
F2.3322403353516536
sg48
S'B'
sg10
F0
sg11
S'Axearmor'
p873
sba(isaltybot
Fighter
p874
(dp875
g4
I0
sg5
S'Kisarah-n (-1) - $630,867'
p876
sg7
I1
sg8
I0
sg9
F9.743721619868408
sg48
S'A'
sg10
F0
sg11
S'Kisarah-n'
p877
sba(isaltybot
Fighter
p878
(dp879
g4
I0
sg5
S'Toyohime EX2 (-6) - $64,746\r\n'
p880
sg7
I0
sg8
I1
sg9
F0.10263018988154397
sg48
S'A'
sg10
F0
sg11
S'Toyohime EX2'
p881
sba(isaltybot
Fighter
p882
(dp883
g4
I0
sg5
S'Geese (-8) - $136,741'
p884
sg7
I0
sg8
I1
sg9
F0.004318792934943548
sg48
S'B'
sg10
F0
sg11
S'Geese'
p885
sba(isaltybot
Fighter
p886
(dp887
g4
I0
sg5
S'Annoying orange (3) - $31,661,856\r\n'
p888
sg7
I1
sg8
I0
sg9
F231.546178541915
sg48
S'B'
sg10
F0
sg11
S'Annoying orange'
p889
sba(isaltybot
Fighter
p890
(dp891
g4
I0
sg5
S'Saizo (-3) - $573,624'
p892
sg7
I1
sg8
I0
sg9
F4.0823553692540901
sg48
S'S'
sg10
F0
sg11
S'Saizo'
p893
sba(isaltybot
Fighter
p894
(dp895
g4
I0
sg5
S'Baby bonnie hood EX3 (-2) - $140,513\r\n'
p896
sg7
I0
sg8
I1
sg9
F0.2449566266404474
sg48
S'S'
sg10
F0
sg11
S'Baby bonnie hood EX3'
p897
sba(isaltybot
Fighter
p898
(dp899
g4
I0
sg5
S'Mictlan (8) - $185,096'
p900
sg7
I1
sg8
I0
sg9
F0.39991703324719768
sg48
S'S'
sg10
F0
sg11
S'Mictlan'
p901
sba(isaltybot
Fighter
p902
(dp903
g4
I0
sg5
S'Regin (1) - $462,836\r\n'
p904
sg7
I0
sg8
I1
sg9
F2.5005186497817351
sg48
S'S'
sg10
F0
sg11
S'Regin'
p905
sba(isaltybot
Fighter
p906
(dp907
g4
I0
sg5
S'Antlar (2) - $672,323'
p908
sg7
I2
sg8
I0
sg9
F6.7057186821579871
sg48
S'S'
sg10
F0
sg11
S'Antlar'
p909
sba(isaltybot
Fighter
p910
(dp911
g4
I0
sg5
S'Amiba EX (-1) - $212,476\r\n'
p912
sg7
I0
sg8
I1
sg9
F0.31603262122521469
sg48
S'S'
sg10
F0
sg11
S'Amiba EX'
p913
sba(isaltybot
Fighter
p914
(dp915
g4
I0
sg5
S'Shishin (5) - $355,812'
p916
sg7
I1
sg8
I0
sg9
F1.1712047399605003
sg48
S'A'
sg10
F0
sg11
S'Shishin'
p917
sba(isaltybot
Fighter
p918
(dp919
g4
I0
sg5
S'Jin EX (1) - $303,800\r\n'
p920
sg7
I0
sg8
I1
sg9
F0.85382168111249757
sg48
S'A'
sg10
F0
sg11
S'Jin EX'
p921
sba(isaltybot
Fighter
p922
(dp923
g4
I0
sg5
S'Yami_miko EX (9) - $562,325'
p924
sg7
I0
sg8
I1
sg9
F3.8406242529795445
sg48
S'S'
sg10
F0
sg11
S'Yami_miko EX'
p925
sba(isaltybot
Fighter
p926
(dp927
g4
I0
sg5
S'Nail (1) - $146,415\r\n'
p928
sg7
I1
sg8
I0
sg9
F0.26037433868314586
sg48
S'S'
sg10
F0
sg11
S'Nail'
p929
sba(isaltybot
Fighter
p930
(dp931
g4
I0
sg5
S'Ochamaro (-5) - $456,877'
p932
sg7
I1
sg8
I0
sg9
F2.0766003672526954
sg48
S'B'
sg10
F0
sg11
S'Ochamaro'
p933
sba(isaltybot
Fighter
p934
(dp935
g4
I0
sg5
S'Finn and jake (-3) - $220,012\r\n'
p936
sg7
I0
sg8
I1
sg9
F0.48155630508867814
sg48
S'B'
sg10
F0
sg11
S'Finn and jake'
p937
sba(isaltybot
Fighter
p938
(dp939
g4
I0
sg5
S'Alien baltan 6th (-7) - $192,518\r\n'
p940
sg7
I1
sg8
I0
sg9
F0.77467044375412453
sg48
S'S'
sg10
F0
sg11
S'Alien baltan 6th'
p941
sba(isaltybot
Fighter
p942
(dp943
g4
I0
sg5
S'Cyborg EX (-1) - $242,912'
p944
sg7
I0
sg8
I1
sg9
F0.75616042634259317
sg48
S'B'
sg10
F0
sg11
S'Cyborg EX'
p945
sba(isaltybot
Fighter
p946
(dp947
g4
I0
sg5
S'Hatchetman (1) - $321,244\r\n'
p948
sg7
I1
sg8
I0
sg9
F1.3224706889737847
sg48
S'B'
sg10
F0
sg11
S'Hatchetman'
p949
sba(isaltybot
Fighter
p950
(dp951
g4
I0
sg5
S'Godman (-7) - $163,318'
p952
sg7
I0
sg8
I1
sg9
F0.29220281972375295
sg48
S'B'
sg10
F0
sg11
S'Godman'
p953
sba(isaltybot
Fighter
p954
(dp955
g4
I0
sg5
S'Eagle (-1) - $558,920\r\n'
p956
sg7
I1
sg8
I0
sg9
F3.4222804589818634
sg48
S'B'
sg10
F0
sg11
S'Eagle'
p957
sba(isaltybot
Fighter
p958
(dp959
g4
I0
sg5
S'Deidara nzc (1) - $675,903'
p960
sg7
I1
sg8
I0
sg9
F9.3122675043399195
sg48
S'B'
sg10
F0
sg11
S'Deidara nzc'
p961
sba(isaltybot
Fighter
p962
(dp963
g4
I0
sg5
S'Bad mr frosty (-8) - $72,582\r\n'
p964
sg7
I0
sg8
I1
sg9
F0.10738523131277714
sg48
S'B'
sg10
F0
sg11
S'Bad mr frosty'
p965
sba(isaltybot
Fighter
p966
(dp967
g4
I0
sg5
S'Rider (-6) - $249,268'
p968
sg7
I1
sg8
I1
sg9
F2.290928157944943
sg48
S'S'
sg10
F0
sg11
S'Rider'
p969
sba(isaltybot
Fighter
p970
(dp971
g4
I0
sg5
S'Gallon EX2 (1) - $436,060\r\n'
p972
sg7
I2
sg8
I0
sg9
F2.1777240404721034
sg48
S'S'
sg10
F0
sg11
S'Gallon EX2'
p973
sba(isaltybot
Fighter
p974
(dp975
g4
I0
sg5
S'Dragon rider (-6) - $63,735\r\n'
p976
sg7
I0
sg8
I1
sg9
F0.44624228081721817
sg48
S'B'
sg10
F0
sg11
S'Dragon rider'
p977
sba(isaltybot
Fighter
p978
(dp979
g4
I0
sg5
S'Generals (2) - $99,128'
p980
sg7
I0
sg8
I1
sg9
F0.12736706043793669
sg48
S'X'
sg10
F0
sg11
S'Generals'
p981
sba(isaltybot
Fighter
p982
(dp983
g4
I0
sg5
S'Circuit-geese (-3) - $778,286\r\n'
p984
sg7
I1
sg8
I0
sg9
F7.8513235412799611
sg48
S'X'
sg10
F0
sg11
S'Circuit-geese'
p985
sba(isaltybot
Fighter
p986
(dp987
g4
I0
sg5
S'Phobos(yanagi_ai) (-1) - $100,265'
p988
sg7
I0
sg8
I1
sg9
F0.058563131248233147
sg48
S'X'
sg10
F0
sg11
S'Phobos(yanagi_ai)'
p989
sba(isaltybot
Fighter
p990
(dp991
g4
I0
sg5
S'Kaeru (4) - $1,712,084\r\n'
p992
sg7
I1
sg8
I0
sg9
F17.075589687328581
sg48
S'X'
sg10
F0
sg11
S'Kaeru'
p993
sba(isaltybot
Fighter
p994
(dp995
g4
I0
sg5
S'Crilin sposato (-5) - $172,337'
p996
sg7
I0
sg8
I1
sg9
F0.35005931246292971
sg48
S'B'
sg10
F0
sg11
S'Crilin sposato'
p997
sba(isaltybot
Fighter
p998
(dp999
g4
I0
sg5
S'Maxime (-2) - $492,308\r\n'
p1000
sg7
I1
sg8
I0
sg9
F2.8566587558098377
sg48
S'B'
sg10
F0
sg11
S'Maxime'
p1001
sba(isaltybot
Fighter
p1002
(dp1003
g4
I0
sg5
S'Dark donald (26) - $2,704,032'
p1004
sg7
I1
sg8
I0
sg9
F1.6539949561090963
sg48
S'X'
sg10
F0
sg11
S'Dark donald'
p1005
sba(isaltybot
Fighter
p1006
(dp1007
g4
I0
sg5
S'Mother (1) - $1,634,849\r\n'
p1008
sg7
I0
sg8
I1
sg9
F0.60459676512703997
sg48
S'X'
sg10
F0
sg11
S'Mother'
p1009
sba(isaltybot
Fighter
p1010
(dp1011
g4
I0
sg5
S'Leona (-1) - $246,304'
p1012
sg7
I1
sg8
I1
sg9
F2.0107315585239638
sg48
S'B'
sg10
F0
sg11
S'Leona'
p1013
sba(isaltybot
Fighter
p1014
(dp1015
g4
I0
sg5
S'Kensou EX3 (3) - $358,391\r\n'
p1016
sg7
I1
sg8
I0
sg9
F1.4550758412368456
sg48
S'B'
sg10
F0
sg11
S'Kensou EX3'
p1017
sba(isaltybot
Fighter
p1018
(dp1019
g4
I0
sg5
S'Toguro 100% (3) - $395,581'
p1020
sg7
I0
sg8
I1
sg9
F1.3398715612488907
sg48
S'S'
sg10
F0
sg11
S'Toguro 100%'
p1021
sba(isaltybot
Fighter
p1022
(dp1023
g4
I0
sg5
S'Jin chonrei (1) - $295,238\r\n'
p1024
sg7
I1
sg8
I0
sg9
F0.74634019328531953
sg48
S'S'
sg10
F0
sg11
S'Jin chonrei'
p1025
sba(isaltybot
Fighter
p1026
(dp1027
g4
I0
sg5
S'Sachiko (-2) - $254,321'
p1028
sg7
I1
sg8
I0
sg9
F1.9328682064494556
sg48
S'B'
sg10
F0
sg11
S'Sachiko'
p1029
sba(isaltybot
Fighter
p1030
(dp1031
g4
I0
sg5
S'Frankenroid (-1) - $131,577\r\n'
p1032
sg7
I0
sg8
I1
sg9
F0.51736584867156077
sg48
S'B'
sg10
F0
sg11
S'Frankenroid'
p1033
sba(isaltybot
Fighter
p1034
(dp1035
g4
I0
sg5
S'Dudley EX3 (-3) - $66,358'
p1036
sg7
I0
sg8
I1
sg9
F0.13003239150413762
sg48
S'B'
sg10
F0
sg11
S'Dudley EX3'
p1037
sba(isaltybot
Fighter
p1038
(dp1039
g4
I0
sg5
S'Alucard RAI (-2) - $510,319\r\n'
p1040
sg7
I1
sg8
I0
sg9
F7.6903915127038189
sg48
S'B'
sg10
F0
sg11
S'Alucard RAI'
p1041
sba(isaltybot
Fighter
p1042
(dp1043
g4
I0
sg5
S'Lililen (2) - $121,999'
p1044
sg7
I0
sg8
I1
sg9
F0.6963373496726617
sg48
S'B'
sg10
F0
sg11
S'Lililen'
p1045
sba(isaltybot
Fighter
p1046
(dp1047
g4
I0
sg5
S'Noah (-3) - $175,201\r\n'
p1048
sg7
I1
sg8
I0
sg9
F1.436085541684768
sg48
S'B'
sg10
F0
sg11
S'Noah'
p1049
sba(isaltybot
Fighter
p1050
(dp1051
g4
I0
sg5
S'Kou EX (-2) - $344,094'
p1052
sg7
I0
sg8
I1
sg9
F3.3439975121235386
sg48
S'A'
sg10
F0
sg11
S'Kou EX'
p1053
sba(isaltybot
Fighter
p1054
(dp1055
g4
I0
sg5
S'Shoujo genkai (1) - $102,899\r\n'
p1056
sg7
I1
sg8
I0
sg9
F0.2990432846838364
sg48
S'A'
sg10
F0
sg11
S'Shoujo genkai'
p1057
sba(isaltybot
Fighter
p1058
(dp1059
g4
I0
sg5
S'Spacemouse deluxe (11) - $3,088,630'
p1060
sg7
I3
sg8
I0
sg9
F121.95338132341053
sg48
S'S'
sg10
F0
sg11
S'Spacemouse deluxe'
p1061
sba(isaltybot
Fighter
p1062
(dp1063
g4
I0
sg5
S'Suika_ibuki (-4) - $134,616\r\n'
p1064
sg7
I0
sg8
I1
sg9
F0.043584372359266085
sg48
S'S'
sg10
F0
sg11
S'Suika_ibuki'
p1065
sba(isaltybot
Fighter
p1066
(dp1067
g4
I0
sg5
S'Namazu (-6) - $780,160'
p1068
sg7
I1
sg8
I1
sg9
F7.9134956707516153
sg48
S'S'
sg10
F0
sg11
S'Namazu'
p1069
sba(isaltybot
Fighter
p1070
(dp1071
g4
I0
sg5
S'Vegeta gt (-6) - $150,129\r\n'
p1072
sg7
I0
sg8
I1
sg9
F0.19243360336341264
sg48
S'S'
sg10
F0
sg11
S'Vegeta gt'
p1073
sba(isaltybot
Fighter
p1074
(dp1075
g4
I0
sg5
S'Supermario64 (5) - $268,678'
p1076
sg7
I0
sg8
I1
sg9
F0.39387227055831237
sg48
S'S'
sg10
F0
sg11
S'Supermario64'
p1077
sba(isaltybot
Fighter
p1078
(dp1079
g4
I0
sg5
S'Blue colonel (4) - $682,145\r\n'
p1080
sg7
I1
sg8
I0
sg9
F2.5388941409419452
sg48
S'S'
sg10
F0
sg11
S'Blue colonel'
p1081
sba(isaltybot
Fighter
p1082
(dp1083
g4
I0
sg5
S'Turbo bonkers (-1) - $216,304'
p1084
sg7
I0
sg8
I1
sg9
F0.8867280218090885
sg48
S'B'
sg10
F0
sg11
S'Turbo bonkers'
p1085
sba(isaltybot
Fighter
p1086
(dp1087
g4
I0
sg5
S'Tloz link (1) - $243,935\r\n'
p1088
sg7
I1
sg8
I0
sg9
F1.1277415119461498
sg48
S'B'
sg10
F0
sg11
S'Tloz link'
p1089
sba(isaltybot
Fighter
p1090
(dp1091
g4
I0
sg5
S'Dream bison (-5) - $187,971'
p1092
sg7
I0
sg8
I1
sg9
F0.27520570407894351
sg48
S'S'
sg10
F0
sg11
S'Dream bison'
p1093
sba(isaltybot
Fighter
p1094
(dp1095
g4
I0
sg5
S'Eleking (1) - $683,020\r\n'
p1096
sg7
I1
sg8
I0
sg9
F3.6336456155470791
sg48
S'S'
sg10
F0
sg11
S'Eleking'
p1097
sba(isaltybot
Fighter
p1098
(dp1099
g4
I0
sg5
S'Namek gohan (-3) - $72,998'
p1100
sg7
I0
sg8
I2
sg9
F0.20226612925962403
sg48
S'B'
sg10
F0
sg11
S'Namek gohan'
p1101
sba(isaltybot
Fighter
p1102
(dp1103
g4
I0
sg5
S'Cammy_a (1) - $836,337\r\n'
p1104
sg7
I1
sg8
I1
sg9
F12.972011534583833
sg48
S'B'
sg10
F0
sg11
S'Cammy_a'
p1105
sba(isaltybot
Fighter
p1106
(dp1107
g4
I0
sg5
S'Suwako ai (-1) - $3,980,749'
p1108
sg7
I1
sg8
I0
sg9
F33.274951517988498
sg48
S'S'
sg10
F0
sg11
S'Suwako ai'
p1109
sba(isaltybot
Fighter
p1110
(dp1111
g4
I0
sg5
S'Haruhi suzumiya (-5) - $119,632\r\n'
p1112
sg7
I0
sg8
I1
sg9
F0.030052635823057419
sg48
S'S'
sg10
F0
sg11
S'Haruhi suzumiya'
p1113
sba(isaltybot
Fighter
p1114
(dp1115
g4
I0
sg5
S'Evil Ryu SF4 (2) - $345,228'
p1116
sg7
I1
sg8
I0
sg9
F1.4318812447895279
sg48
S'B'
sg10
F0
sg11
S'Evil Ryu SF4'
p1117
sba(isaltybot
Fighter
p1118
(dp1119
g4
I0
sg5
S'Sailor moon (-3) - $241,101\r\n'
p1120
sg7
I0
sg8
I1
sg9
F0.69838193889255795
sg48
S'B'
sg10
F0
sg11
S'Sailor moon'
p1121
sba(isaltybot
Fighter
p1122
(dp1123
g4
I0
sg5
S'Warlock (1) - $608,010'
p1124
sg7
I0
sg8
I1
sg9
F3.3154115023256576
sg48
S'A'
sg10
F0
sg11
S'Warlock'
p1125
sba(isaltybot
Fighter
p1126
(dp1127
g4
I0
sg5
S'Shizuha (-1) - $183,389\r\n'
p1128
sg7
I1
sg8
I0
sg9
F0.30162168385388399
sg48
S'A'
sg10
F0
sg11
S'Shizuha'
p1129
sba(isaltybot
Fighter
p1130
(dp1131
g4
I0
sg5
S'F_gills (-3) - $130,296'
p1132
sg7
I0
sg8
I1
sg9
F0.31058500469586525
sg48
S'S'
sg10
F0
sg11
S'F_gills'
p1133
sba(isaltybot
Fighter
p1134
(dp1135
g4
I0
sg5
S'Asutorea EX3 (1) - $419,518\r\n'
p1136
sg7
I1
sg8
I0
sg9
F3.2197304598759748
sg48
S'S'
sg10
F0
sg11
S'Asutorea EX3'
p1137
sba(isaltybot
Fighter
p1138
(dp1139
g4
I0
sg5
S'Cyber-peacock (-2) - $265,392'
p1140
sg7
I0
sg8
I0
sg9
F2.2162541336807293
sg48
S'S'
sg10
F0
sg11
S'Cyber-peacock'
p1141
sba(isaltybot
Fighter
p1142
(dp1143
g4
I0
sg5
S'Subaru mikage (1) - $119,748\r\n'
p1144
sg7
I0
sg8
I3
sg9
F1.532076352206712
sg48
S'S'
sg10
F0
sg11
S'Subaru mikage'
p1145
sba(isaltybot
Fighter
p1146
(dp1147
g4
I0
sg5
S'Emily barnet- $227,621'
p1148
sg7
I0
sg8
I1
sg9
F1.3703028113900428
sg48
S'A'
sg10
F0
sg11
S'Emily barnet'
p1149
sba(isaltybot
Fighter
p1150
(dp1151
g4
I0
sg5
S'Katana- $166,110\r\n'
p1152
sg7
I1
sg8
I0
sg9
F0.72976570703054644
sg48
S'A'
sg10
F0
sg11
S'Katana'
p1153
sba(isaltybot
Fighter
p1154
(dp1155
g4
I0
sg5
S'Gohan fight money- $163,875'
p1156
sg7
I0
sg8
I1
sg9
F0.14344561846397863
sg48
S'Unknown'
p1157
sg10
F0
sg11
S'Gohan fight money'
p1158
sba(isaltybot
Fighter
p1159
(dp1160
g4
I0
sg5
S'Videl fight money- $1,142,419\r\n'
p1161
sg7
I1
sg8
I0
sg9
F6.9712829900839051
sg48
g1157
sg10
F0
sg11
S'Videl fight money'
p1162
sba(isaltybot
Fighter
p1163
(dp1164
g4
I0
sg5
S'Masked rider kabuto- $290,412'
p1165
sg7
I1
sg8
I0
sg9
F1.3626689189189189
sg48
S'B'
sg10
F0
sg11
S'Masked rider kabuto'
p1166
sba(isaltybot
Fighter
p1167
(dp1168
g4
I0
sg5
S'Masked rider 555_z- $213,120\r\n'
p1169
sg7
I0
sg8
I2
sg9
F1.3508955781183367
sg48
S'B'
sg10
F0
sg11
S'Masked rider 555_z'
p1170
sba(isaltybot
Fighter
p1171
(dp1172
g4
I0
sg5
S'Absolute_white_len- $379,445'
p1173
sg7
I1
sg8
I0
sg9
F1.1904717084725556
sg48
S'S'
sg10
F0
sg11
S'Absolute_white_len'
p1174
sba(isaltybot
Fighter
p1175
(dp1176
g4
I0
sg5
S'Dongdong- $318,735\r\n'
p1177
sg7
I1
sg8
I1
sg9
F1.9730132543317982
sg48
S'S'
sg10
F0
sg11
S'Dongdong'
p1178
sba(isaltybot
Fighter
p1179
(dp1180
g4
I0
sg5
S'Cammy- $191,376\r\n'
p1181
sg7
I1
sg8
I0
sg9
F2.1789862003005873
sg48
S'A'
sg10
F0
sg11
S'Cammy'
p1182
sba(isaltybot
Fighter
p1183
(dp1184
g4
I0
sg5
S'Jazu EX3- $80,283'
p1185
sg7
I0
sg8
I1
sg9
F0.17764987818559602
sg48
S'S'
sg10
F0
sg11
S'Jazu EX3'
p1186
sba(isaltybot
Fighter
p1187
(dp1188
g4
I0
sg5
S'Hinako shijo- $451,917\r\n'
p1189
sg7
I3
sg8
I0
sg9
F6.9626953795504543
sg48
S'S'
sg10
F0
sg11
S'Hinako shijo'
p1190
sba(isaltybot
Fighter
p1191
(dp1192
g4
I0
sg5
S'David bell- $489,734'
p1193
sg7
I1
sg8
I1
sg9
F6.7779869989315173
sg48
S'S'
sg10
F0
sg11
S'David bell'
p1194
sba(isaltybot
Fighter
p1195
(dp1196
g4
I0
sg5
S'Evil dooby dummy- $121,680\r\n'
p1197
sg7
I0
sg8
I1
sg9
F0.24846140966320493
sg48
S'S'
sg10
F0
sg11
S'Evil dooby dummy'
p1198
sba(isaltybot
Fighter
p1199
(dp1200
g4
I0
sg5
S'Vanessa- $265,230'
p1201
sg7
I2
sg8
I0
sg9
F6.6156546579872693
sg48
S'B'
sg10
F0
sg11
S'Vanessa'
p1202
sba(isaltybot
Fighter
p1203
(dp1204
g4
I0
sg5
S'Shermie- $113,822\r\n'
p1205
sg7
I1
sg8
I1
sg9
F1.4400797574810074
sg48
S'B'
sg10
F0
sg11
S'Shermie'
p1206
sba(isaltybot
Fighter
p1207
(dp1208
g4
I0
sg5
S'Hourai-car (-2) - $413,145'
p1209
sg7
I2
sg8
I0
sg9
F2.7278917388541468
sg48
S'S'
sg10
F0
sg11
S'Hourai-car'
p1210
sba(isaltybot
Fighter
p1211
(dp1212
g4
I0
sg5
S'Huryou hatune (-3) - $114,489\r\n'
p1213
sg7
I0
sg8
I1
sg9
F0.2771157825944886
sg48
S'S'
sg10
F0
sg11
S'Huryou hatune'
p1214
sba(isaltybot
Fighter
p1215
(dp1216
g4
I0
sg5
S'Charging chuck (-4) - $104,831\r\n'
p1217
sg7
I0
sg8
I1
sg9
F0.5281211901379359
sg48
S'S'
sg10
F0
sg11
S'Charging chuck'
p1218
sba(isaltybot
Fighter
p1219
(dp1220
g4
I0
sg5
S'Chipp (-4) - $109,330'
p1221
sg7
I1
sg8
I0
sg9
F1.0169570353558373
sg48
S'S'
sg10
F0
sg11
S'Chipp'
p1222
sba(isaltybot
Fighter
p1223
(dp1224
g4
I0
sg5
S'Megaman plus (-8) - $107,507\r\n'
p1225
sg7
I0
sg8
I1
sg9
F0.98332571114973022
sg48
S'S'
sg10
F0
sg11
S'Megaman plus'
p1226
sba(isaltybot
Fighter
p1227
(dp1228
g4
I0
sg5
S'Leona ex (3) - $926,376'
p1229
sg7
I2
sg8
I0
sg9
F35.724167282984467
sg48
S'B'
sg10
F0
sg11
S'Leona ex'
p1230
sba(isaltybot
Fighter
p1231
(dp1232
g4
I0
sg5
S'Isaiah bradley (-4) - $49,184\r\n'
p1233
sg7
I0
sg8
I1
sg9
F0.053092912597044829
sg48
S'B'
sg10
F0
sg11
S'Isaiah bradley'
p1234
sba(isaltybot
Fighter
p1235
(dp1236
g4
I0
sg5
S'Chippzanuff (4) - $135,049'
p1237
sg7
I2
sg8
I2
sg9
F1.9077677394200223
sg48
S'B'
sg10
F0
sg11
S'Chippzanuff'
p1238
sba(isaltybot
Fighter
p1239
(dp1240
g4
I0
sg5
S'Aoko 7thmoonstyle (2) - $99,713'
p1241
sg7
I0
sg8
I2
sg9
F0.24336804852330837
sg48
S'S'
sg10
F0
sg11
S'Aoko 7thmoonstyle'
p1242
sba(isaltybot
Fighter
p1243
(dp1244
g4
I0
sg5
S'Silversamurai mvc2 (6) - $723,109\r\n'
p1245
sg7
I1
sg8
I0
sg9
F7.2519029614995034
sg48
S'S'
sg10
F0
sg11
S'Silversamurai mvc2'
p1246
sba(isaltybot
Fighter
p1247
(dp1248
g4
I0
sg5
S'Zangoose EX2 (1) - $339,918'
p1249
sg7
I2
sg8
I0
sg9
F2.0482838892475423
sg48
S'A'
sg10
F0
sg11
S'Zangoose EX2'
p1250
sba(isaltybot
Fighter
p1251
(dp1252
g4
I0
sg5
S'Seth ex (1) - $127,330\r\n'
p1253
sg7
I0
sg8
I1
sg9
F0.37459034237669087
sg48
S'A'
sg10
F0
sg11
S'Seth ex'
p1254
sba(isaltybot
Fighter
p1255
(dp1256
g4
I0
sg5
S'Goku (-1) - $177,877'
p1257
sg7
I1
sg8
I1
sg9
F0.69389439971287992
sg48
S'S'
sg10
F0
sg11
S'Goku'
p1258
sba(isaltybot
Fighter
p1259
(dp1260
g4
I0
sg5
S'Rion (-4) - $537,908\r\n'
p1261
sg7
I1
sg8
I0
sg9
F3.0240447050489947
sg48
S'S'
sg10
F0
sg11
S'Rion'
p1262
sba(isaltybot
Fighter
p1263
(dp1264
g4
I0
sg5
S'Bsb ridley (-1) - $63,111'
p1265
sg7
I0
sg8
I2
sg9
F0.14765772740712507
sg48
S'S'
sg10
F0
sg11
S'Bsb ridley'
p1266
sba(isaltybot
Fighter
p1267
(dp1268
g4
I0
sg5
S"K' dempsey (7) - $418,823\r\n"
p1269
sg7
I1
sg8
I0
sg9
F6.63629161318946
sg48
S'S'
sg10
F0
sg11
S"K' dempsey"
p1270
sba(isaltybot
Fighter
p1271
(dp1272
g4
I0
sg5
S'Rei (-5) - $272,085'
p1273
sg7
I1
sg8
I0
sg9
F2.2721465076660987
sg48
S'S'
sg10
F0
sg11
S'Rei'
p1274
sba(isaltybot
Fighter
p1275
(dp1276
g4
I0
sg5
S'Rotom (-1) - $352,322'
p1277
sg7
I1
sg8
I0
sg9
F12.394793315743184
sg48
S'B'
sg10
F0
sg11
S'Rotom'
p1278
sba(isaltybot
Fighter
p1279
(dp1280
g4
I0
sg5
S'Namor (-1) - $28,425\r\n'
p1281
sg7
I0
sg8
I1
sg9
F0.080679037925534033
sg48
S'B'
sg10
F0
sg11
S'Namor'
p1282
sba(isaltybot
Fighter
p1283
(dp1284
g4
I0
sg5
S'Nega peach EX3 (5) - $199,966'
p1285
sg7
I1
sg8
I0
sg9
F1.201357765094623
sg48
S'S'
sg10
F0
sg11
S'Nega peach EX3'
p1286
sba(isaltybot
Fighter
p1287
(dp1288
g4
I0
sg5
S'Elpizo (-1) - $166,450\r\n'
p1289
sg7
I0
sg8
I1
sg9
F0.83239150655611449
sg48
S'S'
sg10
F0
sg11
S'Elpizo'
p1290
sba(isaltybot
Fighter
p1291
(dp1292
g4
I0
sg5
S'Knight (1) - $1,411,060'
p1293
sg7
I1
sg8
I0
sg9
F15.684543989329184
sg48
S'A'
sg10
F0
sg11
S'Knight'
p1294
sba(isaltybot
Fighter
p1295
(dp1296
g4
I0
sg5
S'Buu Hyper Dimension (1) - $211,184'
p1297
sg7
I0
sg8
I1
sg9
F0.99752960459502993
sg48
S'B'
sg10
F0
sg11
S'Buu Hyper Dimension'
p1298
sba(isaltybot
Fighter
p1299
(dp1300
g4
I0
sg5
S'Kintaro (2) - $211,707\r\n'
p1301
sg7
I3
sg8
I0
sg9
F3.1031833413771199
sg48
S'B'
sg10
F0
sg11
S'Kintaro'
p1302
sba(isaltybot
Fighter
p1303
(dp1304
g4
I0
sg5
S'Cho-kichiku toki (-1) - $614,037'
p1305
sg7
I1
sg8
I0
sg9
F2.8298592068576167
sg48
S'X'
sg10
F0
sg11
S'Cho-kichiku toki'
p1306
sba(isaltybot
Fighter
p1307
(dp1308
g4
I0
sg5
S'Super big bird (-3) - $216,985\r\n'
p1309
sg7
I0
sg8
I1
sg9
F0.35337447091950486
sg48
S'X'
sg10
F0
sg11
S'Super big bird'
p1310
sba(isaltybot
Fighter
p1311
(dp1312
g4
I0
sg5
S'Roomi (-1) - $988,106'
p1313
sg7
I1
sg8
I0
sg9
F24.282561682886072
sg48
S'B'
sg10
F0
sg11
S'Roomi'
p1314
sba(isaltybot
Fighter
p1315
(dp1316
g4
I0
sg5
S'(sman) (-2) - $40,692\r\n'
p1317
sg7
I0
sg8
I1
sg9
F0.041181816525757357
sg48
S'B'
sg10
F0
sg11
S'(sman)'
p1318
sba(isaltybot
Fighter
p1319
(dp1320
g4
I0
sg5
S'Dan NGPC (-1) - $48,954'
p1321
sg7
I0
sg8
I2
sg9
F0.43380899629892544
sg48
S'B'
sg10
F0
sg11
S'Dan NGPC'
p1322
sba(isaltybot
Fighter
p1323
(dp1324
g4
I0
sg5
S'Spider girl (1) - $262,969\r\n'
p1325
sg7
I1
sg8
I0
sg9
F5.3717571597826534
sg48
S'B'
sg10
F0
sg11
S'Spider girl'
p1326
sba(isaltybot
Fighter
p1327
(dp1328
g4
I0
sg5
S'Meta-knight (-6) - $42,160'
p1329
sg7
I0
sg8
I1
sg9
F0.038510336864969935
sg48
S'B'
sg10
F0
sg11
S'Meta-knight'
p1330
sba(isaltybot
Fighter
p1331
(dp1332
g4
I0
sg5
S'Marian (5) - $1,094,771\r\n'
p1333
sg7
I1
sg8
I0
sg9
F25.967054079696396
sg48
S'B'
sg10
F0
sg11
S'Marian'
p1334
sba(isaltybot
Fighter
p1335
(dp1336
g4
I0
sg5
S'Enoch (2) - $408,705'
p1337
sg7
I1
sg8
I0
sg9
F9.2695788256106688
sg48
S'B'
sg10
F0
sg11
S'Enoch'
p1338
sba(isaltybot
Fighter
p1339
(dp1340
g4
I0
sg5
S'Sonic v2 EX (1) - $44,091\r\n'
p1341
sg7
I0
sg8
I1
sg9
F0.10787976657980695
sg48
S'B'
sg10
F0
sg11
S'Sonic v2 EX'
p1342
sba(isaltybot
Fighter
p1343
(dp1344
g4
I0
sg5
S'Reiko (-3) - $252,699'
p1345
sg7
I1
sg8
I0
sg9
F1.4887065227636913
sg48
S'S'
sg10
F0
sg11
S'Reiko'
p1346
sba(isaltybot
Fighter
p1347
(dp1348
g4
I0
sg5
S'Kenshi (-1) - $169,744\r\n'
p1349
sg7
I0
sg8
I1
sg9
F0.67172406697295994
sg48
S'S'
sg10
F0
sg11
S'Kenshi'
p1350
sba(isaltybot
Fighter
p1351
(dp1352
g4
I0
sg5
S'K EX (1) - $137,108'
p1353
sg7
I1
sg8
I0
sg9
F1.4700590777016522
sg48
S'A'
sg10
F0
sg11
S'K EX'
p1354
sba(isaltybot
Fighter
p1355
(dp1356
g4
I0
sg5
S'Tabunne (-2) - $93,267\r\n'
p1357
sg7
I2
sg8
I2
sg9
F1.6862914933240358
sg48
S'A'
sg10
F0
sg11
S'Tabunne'
p1358
sba(isaltybot
Fighter
p1359
(dp1360
g4
I0
sg5
S'Sailor mars (1) - $412,807'
p1361
sg7
I1
sg8
I0
sg9
F5.362104798275011
sg48
S'B'
sg10
F0
sg11
S'Sailor mars'
p1362
sba(isaltybot
Fighter
p1363
(dp1364
g4
I0
sg5
S'Ickybod clay (-9) - $76,986\r\n'
p1365
sg7
I0
sg8
I1
sg9
F0.18649393057772762
sg48
S'B'
sg10
F0
sg11
S'Ickybod clay'
p1366
sba(isaltybot
Fighter
p1367
(dp1368
g4
I0
sg5
S'Loud demon (1) - $45,439'
p1369
sg7
I0
sg8
I2
sg9
F0.47838102675166427
sg48
S'B'
sg10
F0
sg11
S'Loud demon'
p1370
sba(isaltybot
Fighter
p1371
(dp1372
g4
I0
sg5
S'Mai 2k2 (4) - $143,519\r\n'
p1373
sg7
I1
sg8
I0
sg9
F3.1584982063865841
sg48
S'B'
sg10
F0
sg11
S'Mai 2k2'
p1374
sba(isaltybot
Fighter
p1375
(dp1376
g4
I0
sg5
S'Fuuma (-1) - $1,538,788'
p1377
sg7
I1
sg8
I0
sg9
F4.9937950282339196
sg48
S'B'
sg10
F0
sg11
S'Fuuma'
p1378
sba(isaltybot
Fighter
p1379
(dp1380
g4
I0
sg5
S'Zombie (1) - $53,627'
p1381
sg7
I0
sg8
I1
sg9
F0.10074317038439717
sg48
S'B'
sg10
F0
sg11
S'Zombie'
p1382
sba(isaltybot
Fighter
p1383
(dp1384
g4
I0
sg5
S'Lucifer 2 (-1) - $532,314\r\n'
p1385
sg7
I2
sg8
I0
sg9
F11.570749092444562
sg48
S'B'
sg10
F0
sg11
S'Lucifer 2'
p1386
sba(isaltybot
Fighter
p1387
(dp1388
g4
I0
sg5
S'Armor jack (-1) - $1,988,463'
p1389
sg7
I1
sg8
I0
sg9
F45.199531743686492
sg48
S'S'
sg10
F0
sg11
S'Armor jack'
p1390
sba(isaltybot
Fighter
p1391
(dp1392
g4
I0
sg5
S'Evil dan (-4) - $43,993\r\n'
p1393
sg7
I0
sg8
I1
sg9
F0.022124123003545954
sg48
S'S'
sg10
F0
sg11
S'Evil dan'
p1394
sba(isaltybot
Fighter
p1395
(dp1396
g4
I0
sg5
S'Nakoruru ex EX3 (-2) - $224,828'
p1397
sg7
I1
sg8
I0
sg9
F2.6900702346339305
sg48
S'S'
sg10
F0
sg11
S'Nakoruru ex EX3'
p1398
sba(isaltybot
Fighter
p1399
(dp1400
g4
I0
sg5
S'Mr.karate EX2 (-4) - $83,577\r\n'
p1401
sg7
I0
sg8
I1
sg9
F0.37173750600459016
sg48
S'S'
sg10
F0
sg11
S'Mr.karate EX2'
p1402
sba(isaltybot
Fighter
p1403
(dp1404
g4
I0
sg5
S'Shingo 98 (2) - $340,062'
p1405
sg7
I1
sg8
I0
sg9
F5.861015839092742
sg48
S'B'
sg10
F0
sg11
S'Shingo 98'
p1406
sba(isaltybot
Fighter
p1407
(dp1408
g4
I0
sg5
S'Wonder woman (-4) - $38,166'
p1409
sg7
I0
sg8
I1
sg9
F0.016061468383323948
sg48
S'B'
sg10
F0
sg11
S'Wonder woman'
p1410
sba(isaltybot
Fighter
p1411
(dp1412
g4
I0
sg5
S'Blodia (6) - $2,376,246\r\n'
p1413
sg7
I1
sg8
I0
sg9
F62.26080804904889
sg48
S'B'
sg10
F0
sg11
S'Blodia'
p1414
sba(isaltybot
Fighter
p1415
(dp1416
g4
I0
sg5
S'Eliza EX (6) - $429,319'
p1417
sg7
I1
sg8
I0
sg9
F5.7672384841686704
sg48
S'B'
sg10
F0
sg11
S'Eliza EX'
p1418
sba(isaltybot
Fighter
p1419
(dp1420
g4
I0
sg5
S'Captain commando (-5) - $74,441\r\n'
p1421
sg7
I0
sg8
I1
sg9
F0.17339321110875597
sg48
S'B'
sg10
F0
sg11
S'Captain commando'
p1422
sba(isaltybot
Fighter
p1423
(dp1424
g4
I0
sg5
S'Wang-fu (-1) - $48,759'
p1425
sg7
I0
sg8
I1
sg9
F0.072523177103862274
sg48
S'S'
sg10
F0
sg11
S'Wang-fu'
p1426
sba(isaltybot
Fighter
p1427
(dp1428
g4
I0
sg5
S'Ferroman (-1) - $132,643'
p1429
sg7
I1
sg8
I0
sg9
F1.2721352668124448
sg48
S'B'
sg10
F0
sg11
S'Ferroman'
p1430
sba(isaltybot
Fighter
p1431
(dp1432
g4
I0
sg5
S'Koi reika (-3) - $104,268\r\n'
p1433
sg7
I0
sg8
I1
sg9
F0.78607992883152522
sg48
S'B'
sg10
F0
sg11
S'Koi reika'
p1434
sba(isaltybot
Fighter
p1435
(dp1436
g4
I0
sg5
S'Yoshi (1) - $829,351'
p1437
sg7
I2
sg8
I0
sg9
F14.190218688101018
sg48
S'B'
sg10
F0
sg11
S'Yoshi'
p1438
sba(isaltybot
Fighter
p1439
(dp1440
g4
I0
sg5
S'Super soldier (1) - $91,746\r\n'
p1441
sg7
I0
sg8
I1
sg9
F0.11062384925079972
sg48
S'B'
sg10
F0
sg11
S'Super soldier'
p1442
sba(isaltybot
Fighter
p1443
(dp1444
g4
I0
sg5
S'Crocodile (-1) - $97,752\r\n'
p1445
sg7
I0
sg8
I1
sg9
F0.19559084233399629
sg48
S'A'
sg10
F0
sg11
S'Crocodile'
p1446
sba(isaltybot
Fighter
p1447
(dp1448
g4
I0
sg5
S'Liu kang (4) - $113,233'
p1449
sg7
I1
sg8
I0
sg9
F0.84581139122315596
sg48
S'A'
sg10
F0
sg11
S'Liu kang'
p1450
sba(isaltybot
Fighter
p1451
(dp1452
g4
I0
sg5
S'Miku_tt (-1) - $133,875\r\n'
p1453
sg7
I1
sg8
I2
sg9
F2.1058959924677696
sg48
S'A'
sg10
F0
sg11
S'Miku_tt'
p1454
sba(isaltybot
Fighter
p1455
(dp1456
g4
I0
sg5
S'Basara (-2) - $168,886'
p1457
sg7
I1
sg8
I0
sg9
F2.3135702348009533
sg48
S'B'
sg10
F0
sg11
S'Basara'
p1458
sba(isaltybot
Fighter
p1459
(dp1460
g4
I0
sg5
S'Alvan EX (2) - $297,957'
p1461
sg7
I1
sg8
I0
sg9
F7.8556513485723327
sg48
S'B'
sg10
F0
sg11
S'Alvan EX'
p1462
sba(isaltybot
Fighter
p1463
(dp1464
g4
I0
sg5
S'Maplestory mage (-5) - $37,929\r\n'
p1465
sg7
I0
sg8
I1
sg9
F0.12729689183338536
sg48
S'B'
sg10
F0
sg11
S'Maplestory mage'
p1466
sba(isaltybot
Fighter
p1467
(dp1468
g4
I0
sg5
S'Son gohan EX3 (-1) - $86,511'
p1469
sg7
I0
sg8
I1
sg9
F0.036155016340825318
sg48
S'S'
sg10
F0
sg11
S'Son gohan EX3'
p1470
sba(isaltybot
Fighter
p1471
(dp1472
g4
I0
sg5
S'Mictlan EX (-1) - $2,392,780\r\n'
p1473
sg7
I1
sg8
I0
sg9
F27.658679243102032
sg48
S'S'
sg10
F0
sg11
S'Mictlan EX'
p1474
sba(isaltybot
Fighter
p1475
(dp1476
g4
I0
sg5
S'Flan Scarlet (-1) - $392,632'
p1477
sg7
I0
sg8
I1
sg9
F0.16716565336603142
sg48
S'S'
sg10
F0
sg11
S'Flan Scarlet'
p1478
sba(isaltybot
Fighter
p1479
(dp1480
g4
I0
sg5
S'Private (5) - $2,348,760\r\n'
p1481
sg7
I1
sg8
I0
sg9
F5.9820900996352817
sg48
S'S'
sg10
F0
sg11
S'Private'
p1482
sba(isaltybot
Fighter
p1483
(dp1484
g4
I0
sg5
S'Asellus EX (-3) - $154,488'
p1485
sg7
I1
sg8
I1
sg9
F1.0574766752523346
sg48
S'A'
sg10
F0
sg11
S'Asellus EX'
p1486
sba(isaltybot
Fighter
p1487
(dp1488
g4
I0
sg5
S'Capt Commando (-2) - $253,168\r\n'
p1489
sg7
I0
sg8
I1
sg9
F1.6387551136657863
sg48
S'A'
sg10
F0
sg11
S'Capt Commando'
p1490
sba(isaltybot
Fighter
p1491
(dp1492
g4
I0
sg5
S'Sula (-2) - $74,962'
p1493
sg7
I0
sg8
I1
sg9
F0.12556490976519186
sg48
S'B'
sg10
F0
sg11
S'Sula'
p1494
sba(isaltybot
Fighter
p1495
(dp1496
g4
I0
sg5
S'Devil daimajin (-2) - $596,998\r\n'
p1497
sg7
I1
sg8
I0
sg9
F7.9640084309383417
sg48
S'B'
sg10
F0
sg11
S'Devil daimajin'
p1498
sba(isaltybot
Fighter
p1499
(dp1500
g4
I0
sg5
S'Ironman EX (3) - $216,476'
p1501
sg7
I1
sg8
I0
sg9
F3.7219490388913723
sg48
S'B'
sg10
F0
sg11
S'Ironman EX'
p1502
sba(isaltybot
Fighter
p1503
(dp1504
g4
I0
sg5
S'The tick (1) - $58,162\r\n'
p1505
sg7
I0
sg8
I1
sg9
F0.26867643526303148
sg48
S'B'
sg10
F0
sg11
S'The tick'
p1506
sba(isaltybot
Fighter
p1507
(dp1508
g4
I0
sg5
S'Ibuki sf3 (-5) - $86,064'
p1509
sg7
I1
sg8
I0
sg9
F0.33592636973602552
sg48
S'A'
sg10
F0
sg11
S'Ibuki sf3'
p1510
sba(isaltybot
Fighter
p1511
(dp1512
g4
I0
sg5
S'Aska EX2 (-2) - $256,199\r\n'
p1513
sg7
I0
sg8
I1
sg9
F2.9768428146495629
sg48
S'A'
sg10
F0
sg11
S'Aska EX2'
p1514
sba(isaltybot
Fighter
p1515
(dp1516
g4
I0
sg5
S'Sylveon_var1 (-1) - $314,794'
p1517
sg7
I1
sg8
I0
sg9
F1.3001569469684453
sg48
S'S'
sg10
F0
sg11
S'Sylveon_var1'
p1518
sba(isaltybot
Fighter
p1519
(dp1520
g4
I0
sg5
S'Kawashima-san EX2 (-2) - $242,120\r\n'
p1521
sg7
I0
sg8
I1
sg9
F0.76913791241256191
sg48
S'S'
sg10
F0
sg11
S'Kawashima-san EX2'
p1522
sba(isaltybot
Fighter
p1523
(dp1524
g4
I0
sg5
S'Yun (1) - $95,940'
p1525
sg7
I0
sg8
I1
sg9
F0.20623432122596996
sg48
S'S'
sg10
F0
sg11
S'Yun'
p1526
sba(isaltybot
Fighter
p1527
(dp1528
g4
I0
sg5
S'Master kojiroh (1) - $465,199\r\n'
p1529
sg7
I1
sg8
I0
sg9
F4.8488534500729621
sg48
S'S'
sg10
F0
sg11
S'Master kojiroh'
p1530
sba(isaltybot
Fighter
p1531
(dp1532
g4
I0
sg5
S'Bowling ball (2) - $290,082'
p1533
sg7
I1
sg8
I0
sg9
F3.3505278477211302
sg48
S'B'
sg10
F0
sg11
S'Bowling ball'
p1534
sba(isaltybot
Fighter
p1535
(dp1536
g4
I0
sg5
S'Master ken (-2) - $86,578\r\n'
p1537
sg7
I0
sg8
I1
sg9
F0.2984604353251839
sg48
S'B'
sg10
F0
sg11
S'Master ken'
p1538
sba(isaltybot
Fighter
p1539
(dp1540
g4
I0
sg5
S'Cleric (1) - $41,959'
p1541
sg7
I0
sg8
I1
sg9
F0.10285404721691789
sg48
S'A'
sg10
F0
sg11
S'Cleric'
p1542
sba(isaltybot
Fighter
p1543
(dp1544
g4
I0
sg5
S'Venom MMV (-1) - $407,947\r\n'
p1545
sg7
I1
sg8
I0
sg9
F9.7225148359112463
sg48
S'A'
sg10
F0
sg11
S'Venom MMV'
p1546
sba(isaltybot
Fighter
p1547
(dp1548
g4
I0
sg5
S'True power sol (-2) - $140,327'
p1549
sg7
I1
sg8
I1
sg9
F1.4701537932161735
sg48
S'B'
sg10
F0
sg11
S'True power sol'
p1550
sba(isaltybot
Fighter
p1551
(dp1552
g4
I0
sg5
S'Fat boo (3) - $132,946\r\n'
p1553
sg7
I0
sg8
I1
sg9
F0.94740142666771188
sg48
S'B'
sg10
F0
sg11
S'Fat boo'
p1554
sba(isaltybot
Fighter
p1555
(dp1556
g4
I0
sg5
S'Invader remi (-2) - $125,279\r\n'
p1557
sg7
I0
sg8
I1
sg9
F0.92765588786292386
sg48
S'B'
sg10
F0
sg11
S'Invader remi'
p1558
sba(isaltybot
Fighter
p1559
(dp1560
g4
I0
sg5
S'Power kung fu man (-2) - $136,348'
p1561
sg7
I0
sg8
I1
sg9
F0.62290648270820959
sg48
S'B'
sg10
F0
sg11
S'Power kung fu man'
p1562
sba(isaltybot
Fighter
p1563
(dp1564
g4
I0
sg5
S'Alex mercer (-1) - $218,890\r\n'
p1565
sg7
I1
sg8
I1
sg9
F1.6105246477738848
sg48
S'B'
sg10
F0
sg11
S'Alex mercer'
p1566
sba(isaltybot
Fighter
p1567
(dp1568
g4
I0
sg5
S'Hercule gt (-4) - $66,170'
p1569
sg7
I0
sg8
I1
sg9
F0.18645739404869252
sg48
S'B'
sg10
F0
sg11
S'Hercule gt'
p1570
sba(isaltybot
Fighter
p1571
(dp1572
g4
I0
sg5
S'Saber (-2) - $354,880\r\n'
p1573
sg7
I3
sg8
I1
sg9
F3.0119440118203942
sg48
S'B'
sg10
F0
sg11
S'Saber'
p1574
sba(isaltybot
Fighter
p1575
(dp1576
g4
I0
sg5
S'Faydal (-2) - $102,378'
p1577
sg7
I1
sg8
I1
sg9
F0.30826841581651154
sg48
S'B'
sg10
F0
sg11
S'Faydal'
p1578
sba(isaltybot
Fighter
p1579
(dp1580
g4
I0
sg5
S'Licht (2) - $321,782\r\n'
p1581
sg7
I1
sg8
I1
sg9
F9.8488251240215305
sg48
S'B'
sg10
F0
sg11
S'Licht'
p1582
sba(isaltybot
Fighter
p1583
(dp1584
g4
I0
sg5
S'Anne (-1) - $309,383'
p1585
sg7
I2
sg8
I1
sg9
F4.8768031826061851
sg48
S'B'
sg10
F0
sg11
S'Anne'
p1586
sba(isaltybot
Fighter
p1587
(dp1588
g4
I0
sg5
S'Hol horse (-6) - $125,159'
p1589
sg7
I0
sg8
I1
sg9
F0.34885970242442149
sg48
S'B'
sg10
F0
sg11
S'Hol horse'
p1590
sba(isaltybot
Fighter
p1591
(dp1592
g4
I0
sg5
S'New Nakoruru (-1) - $358,766\r\n'
p1593
sg7
I2
sg8
I1
sg9
F2.1679862833587213
sg48
S'B'
sg10
F0
sg11
S'New Nakoruru'
p1594
sba(isaltybot
Fighter
p1595
(dp1596
g4
I0
sg5
S'Sub-zero CVW (1) - $113,807'
p1597
sg7
I0
sg8
I1
sg9
F0.40659297473419459
sg48
S'B'
sg10
F0
sg11
S'Sub-zero CVW'
p1598
sba(isaltybot
Fighter
p1599
(dp1600
g4
I0
sg5
S'Caramelman no.2 (1) - $279,904\r\n'
p1601
sg7
I1
sg8
I1
sg9
F2.1023859346158456
sg48
S'B'
sg10
F0
sg11
S'Caramelman no.2'
p1602
sba(isaltybot
Fighter
p1603
(dp1604
g4
I0
sg5
S'Kakashi hatake (1) - $241,312'
p1605
sg7
I0
sg8
I1
sg9
F1.196829773937885
sg48
S'B'
sg10
F0
sg11
S'Kakashi hatake'
p1606
sba(isaltybot
Fighter
p1607
(dp1608
g4
I0
sg5
S'Super vegeta EX3 (1) - $201,626\r\n'
p1609
sg7
I4
sg8
I0
sg9
F0.6552962208718115
sg48
S'B'
sg10
F0
sg11
S'Super vegeta EX3'
p1610
sba(isaltybot
Fighter
p1611
(dp1612
g4
I0
sg5
S'Justice- $410,200'
p1613
sg7
I2
sg8
I0
sg9
F2.6206906352392942
sg48
S'S'
sg10
F0
sg11
S'Justice'
p1614
sba(isaltybot
Fighter
p1615
(dp1616
g4
I0
sg5
S'Maximum maxime- $190,966\r\n'
p1617
sg7
I0
sg8
I1
sg9
F0.46554363725012188
sg48
S'S'
sg10
F0
sg11
S'Maximum maxime'
p1618
sba(isaltybot
Fighter
p1619
(dp1620
g4
I0
sg5
S'Toki 2- $149,870\r\n'
p1621
sg7
I0
sg8
I1
sg9
F0.36535836177474401
sg48
S'S'
sg10
F0
sg11
S'Toki 2'
p1622
sba(isaltybot
Fighter
p1623
(dp1624
g4
I0
sg5
S'Veku- $215,093'
p1625
sg7
I2
sg8
I0
sg9
F8.954144462790568
sg48
S'Unknown'
p1626
sg10
F0
sg11
S'Veku'
p1627
sba(isaltybot
Fighter
p1628
(dp1629
g4
I0
sg5
S'Anji mito- $31,833\r\n'
p1630
sg7
I0
sg8
I1
sg9
F0.14799644804805362
sg48
S'Unknown'
p1631
sg10
F0
sg11
S'Anji mito'
p1632
sba(isaltybot
Fighter
p1633
(dp1634
g4
I0
sg5
S'Green lantern- $1,304,867'
p1635
sg7
I1
sg8
I0
sg9
F41.451983862257379
sg48
g1631
sg10
F0
sg11
S'Green lantern'
p1636
sba(isaltybot
Fighter
p1637
(dp1638
g4
I0
sg5
S'Sinestro- $31,479\r\n'
p1639
sg7
I0
sg8
I1
sg9
F0.024124297725362048
sg48
g1631
sg10
F0
sg11
S'Sinestro'
p1640
sba(isaltybot
Fighter
p1641
(dp1642
g4
I0
sg5
S'Johnny- $1,839,698\r\n'
p1643
sg7
I1
sg8
I1
sg9
F17.829172796406027
sg48
S'S'
sg10
F0
sg11
S'Johnny'
p1644
sba(isaltybot
Fighter
p1645
(dp1646
g4
I0
sg5
S'Brazer- $73,309'
p1647
sg7
I0
sg8
I1
sg9
F0.032988563418689575
sg48
g1631
sg10
F0
sg11
S'Brazer'
p1648
sba(isaltybot
Fighter
p1649
(dp1650
g4
I0
sg5
S'Stake- $2,222,255\r\n'
p1651
sg7
I2
sg8
I1
sg9
F37.421321067724456
sg48
S'S'
sg10
F0
sg11
S'Stake'
p1652
sba(isaltybot
Fighter
p1653
(dp1654
g4
I0
sg5
S'P3 heroine- $109,157\r\n'
p1655
sg7
I1
sg8
I0
sg9
F0.70657267878411267
sg48
S'A'
sg10
F0
sg11
S'P3 heroine'
p1656
sba(isaltybot
Fighter
p1657
(dp1658
g4
I0
sg5
S'Guard fish- $157,344\r\n'
p1659
sg7
I0
sg8
I1
sg9
F0.094460450269644294
sg48
g1631
sg10
F0
sg11
S'Guard fish'
p1660
sba(isaltybot
Fighter
p1661
(dp1662
g4
I0
sg5
S'Sumiremaru (7) - $3,022,150'
p1663
sg7
I2
sg8
I0
sg9
F47.796580118844417
sg48
S'S'
sg10
F0
sg11
S'Sumiremaru'
p1664
sba(isaltybot
Fighter
p1665
(dp1666
g4
I0
sg5
S'Kongou (-1) - $46,257\r\n'
p1667
sg7
I0
sg8
I1
sg9
F0.015305990768161739
sg48
S'S'
sg10
F0
sg11
S'Kongou'
p1668
sba(isaltybot
Fighter
p1669
(dp1670
g4
I0
sg5
S'Sorluska EX2 (-1) - $110,572'
p1671
sg7
I0
sg8
I1
sg9
F0.30787736361282275
sg48
S'S'
sg10
F0
sg11
S'Sorluska EX2'
p1672
sba(isaltybot
Fighter
p1673
(dp1674
g4
I0
sg5
S'Heidern_ex (1) - $359,143\r\n'
p1675
sg7
I1
sg8
I0
sg9
F3.2480465217234018
sg48
S'S'
sg10
F0
sg11
S'Heidern_ex'
p1676
sba(isaltybot
Fighter
p1677
(dp1678
g4
I0
sg5
S'Kenoh (1) - $407,418'
p1679
sg7
I1
sg8
I0
sg9
F9.4213763759134217
sg48
S'S'
sg10
F0
sg11
S'Kenoh'
p1680
sba(isaltybot
Fighter
p1681
(dp1682
g4
I0
sg5
S'Gohan ssj4 (-1) - $43,244\r\n'
p1683
sg7
I1
sg8
I2
sg9
F2.4246649053915781
sg48
S'S'
sg10
F0
sg11
S'Gohan ssj4'
p1684
sba(isaltybot
Fighter
p1685
(dp1686
g4
I0
sg5
S'Daimon 98 (4) - $767,050'
p1687
sg7
I1
sg8
I0
sg9
F19.049097275684804
sg48
S'A'
sg10
F0
sg11
S'Daimon 98'
p1688
sba(isaltybot
Fighter
p1689
(dp1690
g4
I0
sg5
S'Tetsu yatogi (-5) - $40,267\r\n'
p1691
sg7
I0
sg8
I1
sg9
F0.052495925950068446
sg48
S'A'
sg10
F0
sg11
S'Tetsu yatogi'
p1692
sba(isaltybot
Fighter
p1693
(dp1694
g4
I0
sg5
S'Kung fu man neo (29) - $453,379'
p1695
sg7
I1
sg8
I0
sg9
F1.8732656821994331
sg48
S'S'
sg10
F0
sg11
S'Kung fu man neo'
p1696
sba(isaltybot
Fighter
p1697
(dp1698
g4
I0
sg5
S'Hakureimu (2) - $242,026\r\n'
p1699
sg7
I0
sg8
I1
sg9
F0.5338271071222972
sg48
S'S'
sg10
F0
sg11
S'Hakureimu'
p1700
sba(isaltybot
Fighter
p1701
(dp1702
g4
I0
sg5
S'Beast (-5) - $32,878'
p1703
sg7
I0
sg8
I1
sg9
F0.28885452724429372
sg48
S'B'
sg10
F0
sg11
S'Beast'
p1704
sba(isaltybot
Fighter
p1705
(dp1706
g4
I0
sg5
S'Mrdestructoid (1) - $427,476'
p1707
sg7
I0
sg8
I1
sg9
F1.0346875794212687
sg48
S'S'
sg10
F0
sg11
S'Mrdestructoid'
p1708
sba(isaltybot
Fighter
p1709
(dp1710
g4
I0
sg5
S'Robo-mizuchi (4) - $33,500'
p1711
sg7
I0
sg8
I1
sg9
F0.13309918471782972
sg48
S'B'
sg10
F0
sg11
S'Robo-mizuchi'
p1712
sba(isaltybot
Fighter
p1713
(dp1714
g4
I0
sg5
S'Akys (1) - $251,692\r\n'
p1715
sg7
I1
sg8
I0
sg9
F7.5131940298507462
sg48
S'B'
sg10
F0
sg11
S'Akys'
p1716
sba(isaltybot
Fighter
p1717
(dp1718
g4
I0
sg5
S'Robo-segalow (7) - $196,674'
p1719
sg7
I1
sg8
I0
sg9
F2.8696032799801565
sg48
S'B'
sg10
F0
sg11
S'Robo-segalow'
p1720
sba(isaltybot
Fighter
p1721
(dp1722
g4
I0
sg5
S'Lei-lei (1) - $68,537\r\n'
p1723
sg7
I0
sg8
I1
sg9
F0.34848022616105839
sg48
S'B'
sg10
F0
sg11
S'Lei-lei'
p1724
sba(isaltybot
Fighter
p1725
(dp1726
g4
I0
sg5
S'Biscuit-oliva (0) - $56,235'
p1727
sg7
I0
sg8
I1
sg9
F0.40022062486655752
sg48
S'A'
sg10
F0
sg11
S'Biscuit-oliva'
p1728
sba(isaltybot
Fighter
p1729
(dp1730
g4
I0
sg5
S'Corin (4) - $140,510\r\n'
p1731
sg7
I1
sg8
I0
sg9
F2.4986218547168133
sg48
S'A'
sg10
F0
sg11
S'Corin'
p1732
sba(isaltybot
Fighter
p1733
(dp1734
g4
I0
sg5
S'Vayeate (-8) - $116,605'
p1735
sg7
I0
sg8
I1
sg9
F1.1391879481818714
sg48
S'A'
sg10
F0
sg11
S'Vayeate'
p1736
sba(isaltybot
Fighter
p1737
(dp1738
g4
I0
sg5
S'Nagaoka shiho (-2) - $102,358\r\n'
p1739
sg7
I1
sg8
I0
sg9
F0.87781827537412638
sg48
S'A'
sg10
F0
sg11
S'Nagaoka shiho'
p1740
sba(isaltybot
Fighter
p1741
(dp1742
g4
I0
sg5
S'Junichi (2) - $108,813'
p1743
sg7
I0
sg8
I2
sg9
F2.8459413736735351
sg48
S'S'
sg10
F0
sg11
S'Junichi'
p1744
sba(isaltybot
Fighter
p1745
(dp1746
g4
I0
sg5
S'Rutee (-2) - $45,088\r\n'
p1747
sg7
I1
sg8
I0
sg9
F0.41436225451003095
sg48
S'S'
sg10
F0
sg11
S'Rutee'
p1748
sba(isaltybot
Fighter
p1749
(dp1750
g4
I0
sg5
S'Shampoo (1) - $69,548'
p1751
sg7
I1
sg8
I1
sg9
F0.60034451039753045
sg48
S'A'
sg10
F0
sg11
S'Shampoo'
p1752
sba(isaltybot
Fighter
p1753
(dp1754
g4
I0
sg5
S'Enja ex (-1) - $202,567\r\n'
p1755
sg7
I0
sg8
I1
sg9
F2.912621498820958
sg48
S'A'
sg10
F0
sg11
S'Enja ex'
p1756
sba(isaltybot
Fighter
p1757
(dp1758
g4
I0
sg5
S'Asuta-san (-1) - $151,839'
p1759
sg7
I1
sg8
I0
sg9
F0.76812833250705703
sg48
S'B'
sg10
F0
sg11
S'Asuta-san'
p1760
sba(isaltybot
Fighter
p1761
(dp1762
g4
I0
sg5
S'Kusanagi (-1) - $197,674\r\n'
p1763
sg7
I1
sg8
I1
sg9
F5.3398197896864881
sg48
S'B'
sg10
F0
sg11
S'Kusanagi'
p1764
sba(isaltybot
Fighter
p1765
(dp1766
g4
I0
sg5
S'Dark phoenix (-1) - $73,446'
p1767
sg7
I1
sg8
I0
sg9
F0.34119352231234495
sg48
S'S'
sg10
F0
sg11
S'Dark phoenix'
p1768
sba(isaltybot
Fighter
p1769
(dp1770
g4
I0
sg5
S'Bristol-d (1) - $215,262\r\n'
p1771
sg7
I0
sg8
I2
sg9
F3.5171182790056061
sg48
S'S'
sg10
F0
sg11
S'Bristol-d'
p1772
sba(isaltybot
Fighter
p1773
(dp1774
g4
I0
sg5
S'Reisen e inaba (-9) - $51,192'
p1775
sg7
I0
sg8
I1
sg9
F0.015808299357162509
sg48
S'B'
sg10
F0
sg11
S'Reisen e inaba'
p1776
sba(isaltybot
Fighter
p1777
(dp1778
g4
I0
sg5
S'Hatate_himekaidou (2) - $3,238,299\r\n'
p1779
sg7
I1
sg8
I0
sg9
F63.257911392405063
sg48
S'B'
sg10
F0
sg11
S'Hatate_himekaidou'
p1780
sba(isaltybot
Fighter
p1781
(dp1782
g4
I0
sg5
S'Mukuro EX G (-1) - $1,202,761'
p1783
sg7
I2
sg8
I0
sg9
F35.690562479015064
sg48
S'A'
sg10
F0
sg11
S'Mukuro EX G'
p1784
sba(isaltybot
Fighter
p1785
(dp1786
g4
I0
sg5
S'Terry ex02 (1) - $41,711\r\n'
p1787
sg7
I0
sg8
I1
sg9
F0.034679375204217627
sg48
S'A'
sg10
F0
sg11
S'Terry ex02'
p1788
sba(isaltybot
Fighter
p1789
(dp1790
g4
I0
sg5
S'Kongman (1) - $91,184'
p1791
sg7
I0
sg8
I1
sg9
F2.4850516447278772
sg48
S'S'
sg10
F0
sg11
S'Kongman'
p1792
sba(isaltybot
Fighter
p1793
(dp1794
g4
I0
sg5
S'Yuen-joe (-6) - $36,693\r\n'
p1795
sg7
I1
sg8
I0
sg9
F0.40240612388138269
sg48
S'S'
sg10
F0
sg11
S'Yuen-joe'
p1796
sba(isaltybot
Fighter
p1797
(dp1798
g4
I0
sg5
S'Sagat f22 (1) - $43,394'
p1799
sg7
I0
sg8
I1
sg9
F0.28826135767286448
sg48
S'A'
sg10
F0
sg11
S'Sagat f22'
p1800
sba(isaltybot
Fighter
p1801
(dp1802
g4
I0
sg5
S'Mike Haggar (-1) - $126,513'
p1803
sg7
I1
sg8
I1
sg9
F1.2132387497273991
sg48
S'B'
sg10
F0
sg11
S'Mike Haggar'
p1804
sba(isaltybot
Fighter
p1805
(dp1806
g4
I0
sg5
S'Cell SS (-5) - $127,088\r\n'
p1807
sg7
I0
sg8
I1
sg9
F1.0045449874716432
sg48
S'B'
sg10
F0
sg11
S'Cell SS'
p1808
sba(isaltybot
Fighter
p1809
(dp1810
g4
I0
sg5
S'Kana-chan dhq EX3 (-4) - $41,482'
p1811
sg7
I0
sg8
I1
sg9
F0.01799347702840863
sg48
S'A'
sg10
F0
sg11
S'Kana-chan dhq EX3'
p1812
sba(isaltybot
Fighter
p1813
(dp1814
g4
I0
sg5
S'Dual koa(v0.5.2) (2) - $2,305,391\r\n'
p1815
sg7
I1
sg8
I0
sg9
F55.575695482377895
sg48
S'A'
sg10
F0
sg11
S'Dual koa(v0.5.2)'
p1816
sba(isaltybot
Fighter
p1817
(dp1818
g4
I0
sg5
S'Puss in boots (-2) - $47,590'
p1819
sg7
I0
sg8
I1
sg9
F0.35807262275593277
sg48
S'A'
sg10
F0
sg11
S'Puss in boots'
p1820
sba(isaltybot
Fighter
p1821
(dp1822
g4
I0
sg5
S'Athena945 (-2) - $132,906\r\n'
p1823
sg7
I2
sg8
I0
sg9
F3.1022856337505034
sg48
S'A'
sg10
F0
sg11
S'Athena945'
p1824
sba(isaltybot
Fighter
p1825
(dp1826
g4
I0
sg5
S'Moogle (2) - $112,767'
p1827
sg7
I2
sg8
I0
sg9
F0.25416734086841108
sg48
S'S'
sg10
F0
sg11
S'Moogle'
p1828
sba(isaltybot
Fighter
p1829
(dp1830
g4
I0
sg5
S'Geki de oso (3) - $3,099,963'
p1831
sg7
I5
sg8
I0
sg9
F129.80901482201978
sg48
S'B'
sg10
F0
sg11
S'Geki de oso'
p1832
sba(isaltybot
Fighter
p1833
(dp1834
g4
I0
sg5
S'Tom (-3) - $38,608\r\n'
p1835
sg7
I0
sg8
I1
sg9
F0.012454342196987513
sg48
S'B'
sg10
F0
sg11
S'Tom'
p1836
sba(isaltybot
Fighter
p1837
(dp1838
g4
I0
sg5
S'Leonardo EX (-2) - $41,194'
p1839
sg7
I0
sg8
I1
sg9
F0.22124830145712152
sg48
S'A'
sg10
F0
sg11
S'Leonardo EX'
p1840
sba(isaltybot
Fighter
p1841
(dp1842
g4
I0
sg5
S'Shingo (2) - $186,189\r\n'
p1843
sg7
I1
sg8
I0
sg9
F4.5198087100063118
sg48
S'A'
sg10
F0
sg11
S'Shingo'
p1844
sba(isaltybot
Fighter
p1845
(dp1846
g4
I0
sg5
S'American idiot (1) - $119,161'
p1847
sg7
I1
sg8
I0
sg9
F2.0797437866517732
sg48
S'B'
sg10
F0
sg11
S'American idiot'
p1848
sba(isaltybot
Fighter
p1849
(dp1850
g4
I0
sg5
S'Wing zero (-2) - $57,296\r\n'
p1851
sg7
I0
sg8
I1
sg9
F0.48082845897567156
sg48
S'B'
sg10
F0
sg11
S'Wing zero'
p1852
sba(isaltybot
Fighter
p1853
(dp1854
g4
I0
sg5
S'Sailor venus (-3) - $148,173'
p1855
sg7
I0
sg8
I1
sg9
F0.11411827950364135
sg48
S'B'
sg10
F0
sg11
S'Sailor venus'
p1856
sba(isaltybot
Fighter
p1857
(dp1858
g4
I0
sg5
S'Hanyuu (6) - $1,298,416\r\n'
p1859
sg7
I1
sg8
I0
sg9
F8.7628380339198095
sg48
S'B'
sg10
F0
sg11
S'Hanyuu'
p1860
sba(isaltybot
Fighter
p1861
(dp1862
g4
I0
sg5
S'Godzilla (1) - $21,120'
p1863
sg7
I0
sg8
I1
sg9
F0.079548022598870061
sg48
S'B'
sg10
F0
sg11
S'Godzilla'
p1864
sba(isaltybot
Fighter
p1865
(dp1866
g4
I0
sg5
S'Kracko (-1) - $265,500\r\n'
p1867
sg7
I1
sg8
I0
sg9
F12.571022727272727
sg48
S'B'
sg10
F0
sg11
S'Kracko'
p1868
sba(isaltybot
Fighter
p1869
(dp1870
g4
I0
sg5
S'Felicueid (-1) - $36,642'
p1871
sg7
I0
sg8
I2
sg9
F0.41930941170791758
sg48
S'B'
sg10
F0
sg11
S'Felicueid'
p1872
sba(isaltybot
Fighter
p1873
(dp1874
g4
I0
sg5
S'Kana orikura (1) - $101,093\r\n'
p1875
sg7
I1
sg8
I0
sg9
F2.7589378309044266
sg48
S'B'
sg10
F0
sg11
S'Kana orikura'
p1876
sba(isaltybot
Fighter
p1877
(dp1878
g4
I0
sg5
S'Plok (-8) - $13,618'
p1879
sg7
I1
sg8
I0
sg9
F0.040231735743259014
sg48
S'B'
sg10
F0
sg11
S'Plok'
p1880
sba(isaltybot
Fighter
p1881
(dp1882
g4
I0
sg5
S'Kisei de dekinaiko (-1) - $338,489\r\n'
p1883
sg7
I0
sg8
I1
sg9
F24.855999412542225
sg48
S'B'
sg10
F0
sg11
S'Kisei de dekinaiko'
p1884
sba(isaltybot
Fighter
p1885
(dp1886
g4
I0
sg5
S'Cloud (3d) (-5) - $210,637'
p1887
sg7
I0
sg8
I1
sg9
F0.69447027094749192
sg48
S'B'
sg10
F0
sg11
S'Cloud (3d)'
p1888
sba(isaltybot
Fighter
p1889
(dp1890
g4
I0
sg5
S'Rugal CVS (-1) - $303,306\r\n'
p1891
sg7
I1
sg8
I0
sg9
F1.4399464481548825
sg48
S'B'
sg10
F0
sg11
S'Rugal CVS'
p1892
sba(isaltybot
Fighter
p1893
(dp1894
g4
I0
sg5
S'Pentagon & black hole (-9) - $27,758'
p1895
sg7
I0
sg8
I1
sg9
F0.14338476478761925
sg48
S'A'
sg10
F0
sg11
S'Pentagon & black hole'
p1896
sba(isaltybot
Fighter
p1897
(dp1898
g4
I0
sg5
S'Heat man (-1) - $193,591\r\n'
p1899
sg7
I1
sg8
I0
sg9
F6.9742416600619643
sg48
S'A'
sg10
F0
sg11
S'Heat man'
p1900
sba(isaltybot
Fighter
p1901
(dp1902
g4
I0
sg5
S'Gray fullbuster (-1) - $23,705'
p1903
sg7
I1
sg8
I0
sg9
F0.11727252938615586
sg48
S'B'
sg10
F0
sg11
S'Gray fullbuster'
p1904
sba(isaltybot
Fighter
p1905
(dp1906
g4
I0
sg5
S'Toro inoue (-3) - $202,136\r\n'
p1907
sg7
I0
sg8
I1
sg9
F8.5271461716937349
sg48
S'B'
sg10
F0
sg11
S'Toro inoue'
p1908
sba(isaltybot
Fighter
p1909
(dp1910
g4
I0
sg5
S'Devilch (-1) - $105,746'
p1911
sg7
I0
sg8
I1
sg9
F0.36182909387040041
sg48
S'A'
sg10
F0
sg11
S'Devilch'
p1912
sba(isaltybot
Fighter
p1913
(dp1914
g4
I0
sg5
S'Vise (-2) - $47,538'
p1915
sg7
I0
sg8
I1
sg9
F0.17374618977653999
sg48
S'A'
sg10
F0
sg11
S'Vise'
p1916
sba(isaltybot
Fighter
p1917
(dp1918
g4
I0
sg5
S'Fcmeirin EX2 (-1) - $273,606\r\n'
p1919
sg7
I1
sg8
I0
sg9
F5.7555218982708567
sg48
S'A'
sg10
F0
sg11
S'Fcmeirin EX2'
p1920
sba(isaltybot
Fighter
p1921
(dp1922
g4
I0
sg5
S"Burnin' leo (1) - $120,843"
p1923
sg7
I1
sg8
I0
sg9
F0.77122835680871027
sg48
S'S'
sg10
F0
sg11
S"Burnin' leo"
p1924
sba(isaltybot
Fighter
p1925
(dp1926
g4
I0
sg5
S'Zeorymer (-4) - $156,689\r\n'
p1927
sg7
I0
sg8
I1
sg9
F1.2966328210984501
sg48
S'S'
sg10
F0
sg11
S'Zeorymer'
p1928
sba(isaltybot
Fighter
p1929
(dp1930
g4
I0
sg5
S'Dr.doom (-2) - $1,267,748'
p1931
sg7
I1
sg8
I0
sg9
F26.519150716452256
sg48
S'B'
sg10
F0
sg11
S'Dr.doom'
p1932
sba(isaltybot
Fighter
p1933
(dp1934
g4
I0
sg5
S'Rodimus prime (-3) - $47,805\r\n'
p1935
sg7
I0
sg8
I1
sg9
F0.037708598238766697
sg48
S'B'
sg10
F0
sg11
S'Rodimus prime'
p1936
sba(isaltybot
Fighter
p1937
(dp1938
g4
I0
sg5
S'Symbiote thanos (-5) - $22,142'
p1939
sg7
I0
sg8
I1
sg9
F0.07047686950543329
sg48
S'B'
sg10
F0
sg11
S'Symbiote thanos'
p1940
sba(isaltybot
Fighter
p1941
(dp1942
g4
I0
sg5
S'Birdie (-2) - $314,174\r\n'
p1943
sg7
I1
sg8
I0
sg9
F14.189052479450817
sg48
S'B'
sg10
F0
sg11
S'Birdie'
p1944
sba(isaltybot
Fighter
p1945
(dp1946
g4
I0
sg5
S'Saizo ryo (-1) - $229,551'
p1947
sg7
I1
sg8
I0
sg9
F3.2587697505714002
sg48
S'B'
sg10
F0
sg11
S'Saizo ryo'
p1948
sba(isaltybot
Fighter
p1949
(dp1950
g4
I0
sg5
S'Rev saizo (-8) - $70,441\r\n'
p1951
sg7
I0
sg8
I1
sg9
F0.30686426981367976
sg48
S'B'
sg10
F0
sg11
S'Rev saizo'
p1952
sba(isaltybot
Fighter
p1953
(dp1954
g4
I0
sg5
S'Kusanagi EX (1) - $26,572'
p1955
sg7
I1
sg8
I1
sg9
F0.54757455148490597
sg48
S'A'
sg10
F0
sg11
S'Kusanagi EX'
p1956
sba(isaltybot
Fighter
p1957
(dp1958
g4
I0
sg5
S'Marvel frozen (-1) - $144,791\r\n'
p1959
sg7
I2
sg8
I0
sg9
F5.8310337178584586
sg48
S'A'
sg10
F0
sg11
S'Marvel frozen'
p1960
sba(isaltybot
Fighter
p1961
(dp1962
g4
I0
sg5
S'Julian solo poseidon (4) - $386,095'
p1963
sg7
I2
sg8
I0
sg9
F4.6790082355707359
sg48
S'S'
sg10
F0
sg11
S'Julian solo poseidon'
p1964
sba(isaltybot
Fighter
p1965
(dp1966
g4
I0
sg5
S'Opirus element (1) - $226,103\r\n'
p1967
sg7
I0
sg8
I1
sg9
F0.58561493932840358
sg48
S'S'
sg10
F0
sg11
S'Opirus element'
p1968
sba(isaltybot
Fighter
p1969
(dp1970
g4
I0
sg5
S'Darkwing duck EX (-6) - $28,659'
p1971
sg7
I0
sg8
I2
sg9
F0.0095778382459986416
sg48
S'B'
sg10
F0
sg11
S'Darkwing duck EX'
p1972
sba(isaltybot
Fighter
p1973
(dp1974
g4
I0
sg5
S'Masako(emanon) (2) - $7,110,446\r\n'
p1975
sg7
I1
sg8
I0
sg9
F248.10516766111868
sg48
S'B'
sg10
F0
sg11
S'Masako(emanon)'
p1976
sba(isaltybot
Fighter
p1977
(dp1978
g4
I0
sg5
S'Saki mitonoya (1) - $89,149'
p1979
sg7
I2
sg8
I0
sg9
F2.015553399802136
sg48
S'B'
sg10
F0
sg11
S'Saki mitonoya'
p1980
sba(isaltybot
Fighter
p1981
(dp1982
g4
I0
sg5
S'Pikaman (2) - $81,313\r\n'
p1983
sg7
I0
sg8
I2
sg9
F1.6890720352789885
sg48
S'B'
sg10
F0
sg11
S'Pikaman'
p1984
sba(isaltybot
Fighter
p1985
(dp1986
g4
I0
sg5
S'Sumo (1) - $74,839'
p1987
sg7
I1
sg8
I0
sg9
F0.88346259635702562
sg48
S'B'
sg10
F0
sg11
S'Sumo'
p1988
sba(isaltybot
Fighter
p1989
(dp1990
g4
I0
sg5
S'Keel (3) - $84,711\r\n'
p1991
sg7
I1
sg8
I2
sg9
F1.6713429932977535
sg48
S'B'
sg10
F0
sg11
S'Keel'
p1992
sba(isaltybot
Fighter
p1993
(dp1994
g4
I0
sg5
S'Furude rika (-1) - $79,054'
p1995
sg7
I1
sg8
I0
sg9
F0.71586134453781514
sg48
S'A'
sg10
F0
sg11
S'Furude rika'
p1996
sba(isaltybot
Fighter
p1997
(dp1998
g4
I0
sg5
S'Moraga (3) - $543,215'
p1999
sg7
I1
sg8
I0
sg9
F24.090425296021998
sg48
S'A'
sg10
F0
sg11
S'Moraga'
p2000
sba(isaltybot
Fighter
p2001
(dp2002
g4
I0
sg5
S'Tetsu yatoji (2) - $22,549\r\n'
p2003
sg7
I0
sg8
I1
sg9
F0.041510267573612661
sg48
S'A'
sg10
F0
sg11
S'Tetsu yatoji'
p2004
sba(isaltybot
Fighter
p2005
(dp2006
g4
I0
sg5
S'Mvc2 cyclops (-6) - $44,127'
p2007
sg7
I0
sg8
I1
sg9
F0.2446308389972392
sg48
S'S'
sg10
F0
sg11
S'Mvc2 cyclops'
p2008
sba(isaltybot
Fighter
p2009
(dp2010
g4
I0
sg5
S'Masked rider 1st (1) - $180,382\r\n'
p2011
sg7
I1
sg8
I0
sg9
F4.0877920547510591
sg48
S'S'
sg10
F0
sg11
S'Masked rider 1st'
p2012
sba(isaltybot
Fighter
p2013
(dp2014
g4
I0
sg5
S'Garner (-6) - $160,776'
p2015
sg7
I1
sg8
I0
sg9
F0.33778670459630772
sg48
S'S'
sg10
F0
sg11
S'Garner'
p2016
sba(isaltybot
Fighter
p2017
(dp2018
g4
I0
sg5
S'Ultraman gaia (-2) - $475,969\r\n'
p2019
sg7
I0
sg8
I1
sg9
F2.9604480768273871
sg48
S'S'
sg10
F0
sg11
S'Ultraman gaia'
p2020
sba(isaltybot
Fighter
p2021
(dp2022
g4
I0
sg5
S'W.krauser (-4) - $18,503'
p2023
sg7
I0
sg8
I1
sg9
F0.01133423339099583
sg48
S'S'
sg10
F0
sg11
S'W.krauser'
p2024
sba(isaltybot
Fighter
p2025
(dp2026
g4
I0
sg5
S'Beelzebub (5) - $1,632,488\r\n'
p2027
sg7
I1
sg8
I0
sg9
F88.228287304761395
sg48
S'S'
sg10
F0
sg11
S'Beelzebub'
p2028
sba(isaltybot
Fighter
p2029
(dp2030
g4
I0
sg5
S'Shin eddie (1) - $810,850'
p2031
sg7
I0
sg8
I1
sg9
F0.78790923472183894
sg48
S'B'
sg10
F0
sg11
S'Shin eddie'
p2032
sba(isaltybot
Fighter
p2033
(dp2034
g4
I0
sg5
S'Momizi-e (8) - $1,029,116\r\n'
p2035
sg7
I1
sg8
I0
sg9
F1.2691817228833939
sg48
S'B'
sg10
F0
sg11
S'Momizi-e'
p2036
sba(isaltybot
Fighter
p2037
(dp2038
g4
I0
sg5
S'Nf-kyo EX3 (-2) - $63,594'
p2039
sg7
I1
sg8
I0
sg9
F0.07742354920633375
sg48
S'B'
sg10
F0
sg11
S'Nf-kyo EX3'
p2040
sba(isaltybot
Fighter
p2041
(dp2042
g4
I0
sg5
S'Makai (5) - $821,378\r\n'
p2043
sg7
I0
sg8
I1
sg9
F12.915966915117778
sg48
S'B'
sg10
F0
sg11
S'Makai'
p2044
sba(isaltybot
Fighter
p2045
(dp2046
g4
I0
sg5
S'Evil barney (1) - $755,077'
p2047
sg7
I1
sg8
I0
sg9
F7.4432889081660818
sg48
S'S'
sg10
F0
sg11
S'Evil barney'
p2048
sba(isaltybot
Fighter
p2049
(dp2050
g4
I0
sg5
S'Lucifeller_ex (-4) - $101,444\r\n'
p2051
sg7
I0
sg8
I1
sg9
F0.13434921206711367
sg48
S'S'
sg10
F0
sg11
S'Lucifeller_ex'
p2052
sba(isaltybot
Fighter
p2053
(dp2054
g4
I0
sg5
S'Mako (-2) - $47,986'
p2055
sg7
I0
sg8
I2
sg9
F0.182534074261407
sg48
S'B'
sg10
F0
sg11
S'Mako'
p2056
sba(isaltybot
Fighter
p2057
(dp2058
g4
I0
sg5
S'Zeus ex (2) - $1,436,351\r\n'
p2059
sg7
I1
sg8
I0
sg9
F29.932709540282584
sg48
S'B'
sg10
F0
sg11
S'Zeus ex'
p2060
sba(isaltybot
Fighter
p2061
(dp2062
g4
I0
sg5
S"Billy 'big bang' blitz (3) - $74,238"
p2063
sg7
I1
sg8
I1
sg9
F0.4978071358896089
sg48
S'S'
sg10
F0
sg11
S"Billy 'big bang' blitz"
p2064
sba(isaltybot
Fighter
p2065
(dp2066
g4
I0
sg5
S'Raoh sai (-3) - $667,661\r\n'
p2067
sg7
I1
sg8
I0
sg9
F8.9935208383846543
sg48
S'S'
sg10
F0
sg11
S'Raoh sai'
p2068
sba(isaltybot
Fighter
p2069
(dp2070
g4
I0
sg5
S'Little busters! ce (-1) - $2,831,955'
p2071
sg7
I2
sg8
I0
sg9
F89.02745965922351
sg48
S'X'
sg10
F0
sg11
S'Little busters! ce'
p2072
sba(isaltybot
Fighter
p2073
(dp2074
g4
I0
sg5
S'Supreme gogeta v1.5 (-2) - $40,520\r\n'
p2075
sg7
I0
sg8
I1
sg9
F0.014308136958390935
sg48
S'X'
sg10
F0
sg11
S'Supreme gogeta v1.5'
p2076
sba(isaltybot
Fighter
p2077
(dp2078
g4
I0
sg5
S'Eri_hasumi (-1) - $47,107'
p2079
sg7
I1
sg8
I0
sg9
F0.12241212193657863
sg48
S'B'
sg10
F0
sg11
S'Eri_hasumi'
p2080
sba(isaltybot
Fighter
p2081
(dp2082
g4
I0
sg5
S'Gelonimon (-1) - $237,554\r\n'
p2083
sg7
I0
sg8
I1
sg9
F0.078604304882285786
sg48
S'S'
sg10
F0
sg11
S'Gelonimon'
p2084
sba(isaltybot
Fighter
p2085
(dp2086
g4
I0
sg5
S'Multiple man (-2) - $24,493'
p2087
sg7
I0
sg8
I1
sg9
F0.021851229995949677
sg48
S'B'
sg10
F0
sg11
S'Multiple man'
p2088
sba(isaltybot
Fighter
p2089
(dp2090
g4
I0
sg5
S'Tyssa willing (9) - $1,120,898\r\n'
p2091
sg7
I1
sg8
I0
sg9
F45.764014208141099
sg48
S'B'
sg10
F0
sg11
S'Tyssa willing'
p2092
sba(isaltybot
Fighter
p2093
(dp2094
g4
I0
sg5
S'Voltz (2) - $421,899'
p2095
sg7
I1
sg8
I1
sg9
F13.298191786426244
sg48
S'A'
sg10
F0
sg11
S'Voltz'
p2096
sba(isaltybot
Fighter
p2097
(dp2098
g4
I0
sg5
S'Chris_gb (-1) - $445,699\r\n'
p2099
sg7
I1
sg8
I0
sg9
F7.0621444756064715
sg48
S'S'
sg10
F0
sg11
S'Chris_gb'
p2100
sba(isaltybot
Fighter
p2101
(dp2102
g4
I0
sg5
S'Overlord (-2) - $35,714'
p2103
sg7
I0
sg8
I1
sg9
F0.26871623553488933
sg48
S'A'
sg10
F0
sg11
S'Overlord'
p2104
sba(isaltybot
Fighter
p2105
(dp2106
g4
I0
sg5
S'Daos (1) - $360,091'
p2107
sg7
I1
sg8
I0
sg9
F0.19727370890964244
sg48
S'B'
sg10
F0
sg11
S'Daos'
p2108
sba(isaltybot
Fighter
p2109
(dp2110
g4
I0
sg5
S'Mars people (1) - $1,825,337\r\n'
p2111
sg7
I0
sg8
I1
sg9
F5.0690991999244632
sg48
S'B'
sg10
F0
sg11
S'Mars people'
p2112
sba(isaltybot
Fighter
p2113
(dp2114
g4
I0
sg5
S'Blackheart (-1) - $470,943'
p2115
sg7
I1
sg8
I0
sg9
F9.7546138072453861
sg48
S'A'
sg10
F0
sg11
S'Blackheart'
p2116
sba(isaltybot
Fighter
p2117
(dp2118
g4
I0
sg5
S'Saya EX (-5) - $48,279\r\n'
p2119
sg7
I0
sg8
I1
sg9
F0.10251559105879056
sg48
S'A'
sg10
F0
sg11
S'Saya EX'
p2120
sba(isaltybot
Fighter
p2121
(dp2122
g4
I0
sg5
S'Homura EX (-1) - $174,403\r\n'
p2123
sg7
I1
sg8
I0
sg9
F0.094799798662606585
sg48
S'S'
sg10
F0
sg11
S'Homura EX'
p2124
sba(isaltybot
Fighter
p2125
(dp2126
g4
I0
sg5
S'Kim XIII (1) - $5,166,307'
p2127
sg7
I1
sg8
I0
sg9
F180.26822289682124
sg48
S'B'
sg10
F0
sg11
S'Kim XIII'
p2128
sba(isaltybot
Fighter
p2129
(dp2130
g4
I0
sg5
S'Avalanche (-1) - $50,416'
p2131
sg7
I0
sg8
I1
sg9
F0.037162291654995711
sg48
S'B'
sg10
F0
sg11
S'Avalanche'
p2132
sba(isaltybot
Fighter
p2133
(dp2134
g4
I0
sg5
S'Koishi_b (-1) - $1,356,644\r\n'
p2135
sg7
I2
sg8
I0
sg9
F35.366877443015753
sg48
S'B'
sg10
F0
sg11
S'Koishi_b'
p2136
sba(isaltybot
Fighter
p2137
(dp2138
g4
I0
sg5
S'Dark baltan (2) - $123,352'
p2139
sg7
I0
sg8
I1
sg9
F3.026671574039995
sg48
S'A'
sg10
F0
sg11
S'Dark baltan'
p2140
sba(isaltybot
Fighter
p2141
(dp2142
g4
I0
sg5
S'Lyndis (-2) - $40,755\r\n'
p2143
sg7
I1
sg8
I0
sg9
F0.33039594007393475
sg48
S'A'
sg10
F0
sg11
S'Lyndis'
p2144
sba(isaltybot
Fighter
p2145
(dp2146
g4
I0
sg5
S'Yuki Orochi (2) - $181,144'
p2147
sg7
I0
sg8
I1
sg9
F0.92544587890894414
sg48
S'B'
sg10
F0
sg11
S'Yuki Orochi'
p2148
sba(isaltybot
Fighter
p2149
(dp2150
g4
I0
sg5
S'Dirty kf man (3) - $195,737\r\n'
p2151
sg7
I1
sg8
I0
sg9
F1.0805602172856954
sg48
S'B'
sg10
F0
sg11
S'Dirty kf man'
p2152
sba(isaltybot
Fighter
p2153
(dp2154
g4
I0
sg5
S'Remilya scarlet (7) - $94,189'
p2155
sg7
I1
sg8
I0
sg9
F0.47458506746747553
sg48
S'A'
sg10
F0
sg11
S'Remilya scarlet'
p2156
sba(isaltybot
Fighter
p2157
(dp2158
g4
I0
sg5
S'Sailor mercury k (1) - $198,466\r\n'
p2159
sg7
I0
sg8
I1
sg9
F2.1071038019301618
sg48
S'A'
sg10
F0
sg11
S'Sailor mercury k'
p2160
sba(isaltybot
Fighter
p2161
(dp2162
g4
I0
sg5
S'Yagumo_ex (1) - $163,138'
p2163
sg7
I0
sg8
I1
sg9
F0.65379420899709451
sg48
S'S'
sg10
F0
sg11
S'Yagumo_ex'
p2164
sba(isaltybot
Fighter
p2165
(dp2166
g4
I0
sg5
S'Kid gohan EX3 (-1) - $249,525\r\n'
p2167
sg7
I1
sg8
I0
sg9
F1.5295332785739681
sg48
S'S'
sg10
F0
sg11
S'Kid gohan EX3'
p2168
sba(isaltybot
Fighter
p2169
(dp2170
g4
I0
sg5
S'Falco la pasione(nagiai) (-2) - $56,572'
p2171
sg7
I0
sg8
I1
sg9
F0.023532631913480182
sg48
S'S'
sg10
F0
sg11
S'Falco la pasione(nagiai)'
p2172
sba(isaltybot
Fighter
p2173
(dp2174
g4
I0
sg5
S'Shrek (-6) - $2,403,981\r\n'
p2175
sg7
I2
sg8
I0
sg9
F98.421529460804223
sg48
S'S'
sg10
F0
sg11
S'Shrek'
p2176
sba(isaltybot
Fighter
p2177
(dp2178
g4
I0
sg5
S'Rock(mkii) (1) - $236,407'
p2179
sg7
I1
sg8
I0
sg9
F0.9468247865301741
sg48
S'S'
sg10
F0
sg11
S'Rock(mkii)'
p2180
sba(isaltybot
Fighter
p2181
(dp2182
g4
I0
sg5
S'Omega tiger woods (-2) - $249,684\r\n'
p2183
sg7
I0
sg8
I1
sg9
F1.0561616195797925
sg48
S'S'
sg10
F0
sg11
S'Omega tiger woods'
p2184
sba(isaltybot
Fighter
p2185
(dp2186
g4
I0
sg5
S'Syoh (3) - $254,637'
p2187
sg7
I0
sg8
I0
sg9
F0
sg48
S'B'
sg10
F0
sg11
S'Syoh'
p2188
sba(isaltybot
Fighter
p2189
(dp2190
g4
I0
sg5
S'A Bison (1) - $46,718\r\n'
p2191
sg7
I0
sg8
I0
sg9
F0
sg48
S'B'
sg10
F0
sg11
S'A Bison'
p2192
sba(isaltybot
Fighter
p2193
(dp2194
g4
I0
sg5
S'Sanada kojiroh (1) - $1,202,421'
p2195
sg7
I1
sg8
I0
sg9
F14.402666315310352
sg48
S'A'
sg10
F0
sg11
S'Sanada kojiroh'
p2196
sba(isaltybot
Fighter
p2197
(dp2198
g4
I0
sg5
S'Nekonin ex (-4) - $83,486\r\n'
p2199
sg7
I0
sg8
I1
sg9
F0.069431588436995026
sg48
S'A'
sg10
F0
sg11
S'Nekonin ex'
p2200
sba(isaltybot
Fighter
p2201
(dp2202
g4
I0
sg5
S'Real beavis (8) - $550,802'
p2203
sg7
I1
sg8
I0
sg9
F5.1972749318261169
sg48
S'B'
sg10
F0
sg11
S'Real beavis'
p2204
sba(isaltybot
Fighter
p2205
(dp2206
g4
I0
sg5
S'Pingu (-5) - $105,979\r\n'
p2207
sg7
I0
sg8
I1
sg9
F0.19240852429729741
sg48
S'B'
sg10
F0
sg11
S'Pingu'
p2208
sba(isaltybot
Fighter
p2209
(dp2210
g4
I0
sg5
S'Mahvel chun li (1) - $42,984'
p2211
sg7
I0
sg8
I1
sg9
F0.017880340984392139
sg48
S'S'
sg10
F0
sg11
S'Mahvel chun li'
p2212
sba(isaltybot
Fighter
p2213
(dp2214
g4
I0
sg5
S'Lion_gunta (-4) - $137,779'
p2215
sg7
I0
sg8
I2
sg9
F1.3060968154718251
sg48
S'S'
sg10
F0
sg11
S'Lion_gunta'
p2216
sba(isaltybot
Fighter
p2217
(dp2218
g4
I0
sg5
S'Armgon (-4) - $147,246\r\n'
p2219
sg7
I1
sg8
I0
sg9
F1.0687114872368069
sg48
S'S'
sg10
F0
sg11
S'Armgon'
p2220
sba(isaltybot
Fighter
p2221
(dp2222
g4
I0
sg5
S'Real zeroko (-1) - $331,396'
p2223
sg7
I0
sg8
I1
sg9
F8.2927781392322704
sg48
S'S'
sg10
F0
sg11
S'Real zeroko'
p2224
sba(isaltybot
Fighter
p2225
(dp2226
g4
I0
sg5
S'Rin natsume (-3) - $39,962\r\n'
p2227
sg7
I1
sg8
I0
sg9
F0.12058685077671426
sg48
S'S'
sg10
F0
sg11
S'Rin natsume'
p2228
sba(isaltybot
Fighter
p2229
(dp2230
g4
I0
sg5
S'Vegeta ssj3 (-1) - $867,489'
p2231
sg7
I1
sg8
I0
sg9
F5.9032534654408613
sg48
S'B'
sg10
F0
sg11
S'Vegeta ssj3'
p2232
sba(isaltybot
Fighter
p2233
(dp2234
g4
I0
sg5
S'Meira (-6) - $146,951\r\n'
p2235
sg7
I0
sg8
I1
sg9
F0.16939811340547259
sg48
S'B'
sg10
F0
sg11
S'Meira'
p2236
sba(isaltybot
Fighter
p2237
(dp2238
g4
I0
sg5
S'Weregarurumon (-2) - $240,054\r\n'
p2239
sg7
I1
sg8
I0
sg9
F1.3139676179841702
sg48
S'A'
sg10
F0
sg11
S'Weregarurumon'
p2240
sba(isaltybot
Fighter
p2241
(dp2242
g4
I0
sg5
S'The blob (-3) - $85,905'
p2243
sg7
I1
sg8
I0
sg9
F0.20815059630826788
sg48
S'A'
sg10
F0
sg11
S'The blob'
p2244
sba(isaltybot
Fighter
p2245
(dp2246
g4
I0
sg5
S'Nair (-2) - $412,706\r\n'
p2247
sg7
I0
sg8
I1
sg9
F4.8042139572783888
sg48
S'A'
sg10
F0
sg11
S'Nair'
p2248
sba(isaltybot
Fighter
p2249
(dp2250
g4
I0
sg5
S'Hiei (-2) - $213,167'
p2251
sg7
I1
sg8
I0
sg9
F2.4741118165252614
sg48
S'B'
sg10
F0
sg11
S'Hiei'
p2252
sba(isaltybot
Fighter
p2253
(dp2254
g4
I0
sg5
S'King 95 (-1) - $86,159\r\n'
p2255
sg7
I0
sg8
I1
sg9
F0.40418545084370472
sg48
S'B'
sg10
F0
sg11
S'King 95'
p2256
sba(isaltybot
Fighter
p2257
(dp2258
g4
I0
sg5
S'Vegeta z2 (5) - $185,804'
p2259
sg7
I1
sg8
I0
sg9
F1.013727030683951
sg48
S'B'
sg10
F0
sg11
S'Vegeta z2'
p2260
sba(isaltybot
Fighter
p2261
(dp2262
g4
I0
sg5
S'Hellboy (2) - $183,288\r\n'
p2263
sg7
I0
sg8
I1
sg9
F0.98645884910981463
sg48
S'B'
sg10
F0
sg11
S'Hellboy'
p2264
sba(isaltybot
Fighter
p2265
(dp2266
g4
I0
sg5
S'Demitri EX3 (1) - $811,324'
p2267
sg7
I1
sg8
I0
sg9
F9.7555943004869832
sg48
S'S'
sg10
F0
sg11
S'Demitri EX3'
p2268
sba(isaltybot
Fighter
p2269
(dp2270
g4
I0
sg5
S'Reimu hakurei EX (1) - $83,165\r\n'
p2271
sg7
I0
sg8
I1
sg9
F0.102505287653268
sg48
S'S'
sg10
F0
sg11
S'Reimu hakurei EX'
p2272
sba(isaltybot
Fighter
p2273
(dp2274
g4
I0
sg5
S'Koishi_b EX3 (5) - $2,277,910'
p2275
sg7
I2
sg8
I0
sg9
F98.762682420548785
sg48
S'B'
sg10
F0
sg11
S'Koishi_b EX3'
p2276
sba(isaltybot
Fighter
p2277
(dp2278
g4
I0
sg5
S'Morfo (-9) - $29,926\r\n'
p2279
sg7
I0
sg8
I1
sg9
F0.013137481287671594
sg48
S'B'
sg10
F0
sg11
S'Morfo'
p2280
sba(isaltybot
Fighter
p2281
(dp2282
g4
I0
sg5
S'Hauzer (-3) - $254,235\r\n'
p2283
sg7
I1
sg8
I0
sg9
F1.8990476190476191
sg48
S'A'
sg10
F0
sg11
S'Hauzer'
p2284
sba(isaltybot
Fighter
p2285
(dp2286
g4
I0
sg5
S'Celsius (4) - $79,671'
p2287
sg7
I0
sg8
I1
sg9
F0.32556647528757943
sg48
S'A'
sg10
F0
sg11
S'Celsius'
p2288
sba(isaltybot
Fighter
p2289
(dp2290
g4
I0
sg5
S'Gardevoir dx (1) - $244,715\r\n'
p2291
sg7
I1
sg8
I0
sg9
F3.0715693288649573
sg48
S'A'
sg10
F0
sg11
S'Gardevoir dx'
p2292
sba(isaltybot
Fighter
p2293
(dp2294
g4
I0
sg5
S'Shimo EX (-6) - $96,246'
p2295
sg7
I0
sg8
I1
sg9
F0.086352119550394055
sg48
S'S'
sg10
F0
sg11
S'Shimo EX'
p2296
sba(isaltybot
Fighter
p2297
(dp2298
g4
I0
sg5
S'Godzilla_ex (-1) - $1,114,576\r\n'
p2299
sg7
I1
sg8
I0
sg9
F11.580491656796127
sg48
S'S'
sg10
F0
sg11
S'Godzilla_ex'
p2300
sba(isaltybot
Fighter
p2301
(dp2302
g4
I0
sg5
S'Shogun EX3 (-1) - $49,619'
p2303
sg7
I0
sg8
I2
sg9
F0.23708259738748685
sg48
S'A'
sg10
F0
sg11
S'Shogun EX3'
p2304
sba(isaltybot
Fighter
p2305
(dp2306
g4
I0
sg5
S'17th angel (-1) - $240,368\r\n'
p2307
sg7
I1
sg8
I1
sg9
F5.5228400529358943
sg48
S'A'
sg10
F0
sg11
S'17th angel'
p2308
sba(isaltybot
Fighter
p2309
(dp2310
g4
I0
sg5
S'Saya(p_ai) (4) - $82,418'
p2311
sg7
I1
sg8
I1
sg9
F0.80176322116590071
sg48
S'A'
sg10
F0
sg11
S'Saya(p_ai)'
p2312
sba(isaltybot
Fighter
p2313
(dp2314
g4
I0
sg5
S'Lucifer (5) - $172,635\r\n'
p2315
sg7
I1
sg8
I2
sg9
F6.2834724304209439
sg48
S'A'
sg10
F0
sg11
S'Lucifer'
p2316
sba(isaltybot
Fighter
p2317
(dp2318
g4
I0
sg5
S'Shizuka (1) - $122,683'
p2319
sg7
I0
sg8
I1
sg9
F0.48281195272745875
sg48
S'A'
sg10
F0
sg11
S'Shizuka'
p2320
sba(isaltybot
Fighter
p2321
(dp2322
g4
I0
sg5
S'Yurung (-2) - $254,101\r\n'
p2323
sg7
I4
sg8
I0
sg9
F6.1748732172364198
sg48
S'A'
sg10
F0
sg11
S'Yurung'
p2324
sba(isaltybot
Fighter
p2325
(dp2326
g4
I0
sg5
S'Hashi EX3 (-1) - $326,417'
p2327
sg7
I1
sg8
I1
sg9
F4.1580379940874659
sg48
S'A'
sg10
F0
sg11
S'Hashi EX3'
p2328
sba(isaltybot
Fighter
p2329
(dp2330
g4
I0
sg5
S'Headdy (-2) - $118,887\r\n'
p2331
sg7
I0
sg8
I1
sg9
F0.36421816265696944
sg48
S'A'
sg10
F0
sg11
S'Headdy'
p2332
sba(isaltybot
Fighter
p2333
(dp2334
g4
I0
sg5
S'Cable (-2) - $231,103'
p2335
sg7
I2
sg8
I1
sg9
F1.9435200984116796
sg48
S'A'
sg10
F0
sg11
S'Cable'
p2336
sba(isaltybot
Fighter
p2337
(dp2338
g4
I0
sg5
S'Honda tadakatsu (-1) - $295,992\r\n'
p2339
sg7
I0
sg8
I1
sg9
F1.2807795658213004
sg48
S'A'
sg10
F0
sg11
S'Honda tadakatsu'
p2340
sba(isaltybot
Fighter
p2341
(dp2342
g4
I0
sg5
S'F.tarantula (-1) - $132,891'
p2343
sg7
I0
sg8
I1
sg9
F0.35155326167757023
sg48
S'A'
sg10
F0
sg11
S'F.tarantula'
p2344
sba(isaltybot
Fighter
p2345
(dp2346
g4
I0
sg5
S'Lancer (-1) - $378,011\r\n'
p2347
sg7
I3
sg8
I2
sg9
F7.5728811473905031
sg48
S'A'
sg10
F0
sg11
S'Lancer'
p2348
sba(isaltybot
Fighter
p2349
(dp2350
g4
I0
sg5
S"Char's z'gok (-3) - $333,305"
p2351
sg7
I1
sg8
I1
sg9
F3.136812723339784
sg48
S'A'
sg10
F0
sg11
S"Char's z'gok"
p2352
sba(isaltybot
Fighter
p2353
(dp2354
g4
I0
sg5
S'Shandera-k (-2) - $259,582\r\n'
p2355
sg7
I0
sg8
I1
sg9
F0.77881219903691812
sg48
S'A'
sg10
F0
sg11
S'Shandera-k'
p2356
sba(isaltybot
Fighter
p2357
(dp2358
g4
I0
sg5
S'Katana EX3 (-3) - $297,457'
p2359
sg7
I0
sg8
I1
sg9
F1.6535310074933849
sg48
S'A'
sg10
F0
sg11
S'Katana EX3'
p2360
sba(isaltybot
Fighter
p2361
(dp2362
g4
I0
sg5
S'Sorami (2) - $179,892\r\n'
p2363
sg7
I3
sg8
I2
sg9
F1.9263368897994104
sg48
S'A'
sg10
F0
sg11
S'Sorami'
p2364
sba(isaltybot
Fighter
p2365
(dp2366
g4
I0
sg5
S'Agni-enja- $229,379'
p2367
sg7
I1
sg8
I1
sg9
F4.0403944011455639
sg48
g1626
sg10
F0
sg11
S'Agni-enja'
p2368
sba(isaltybot
Fighter
p2369
(dp2370
g4
I0
sg5
S'Goku ascended- $331,934\r\n'
p2371
sg7
I1
sg8
I0
sg9
F1.447098470217413
sg48
S'Unknown'
p2372
sg10
F0
sg11
S'Goku ascended'
p2373
sba(isaltybot
Fighter
p2374
(dp2375
g4
I0
sg5
S'Grand_diable- $204,500'
p2376
sg7
I0
sg8
I1
sg9
F0.53098402114588683
sg48
S'X'
sg10
F0
sg11
S'Grand_diable'
p2377
sba(isaltybot
Fighter
p2378
(dp2379
g4
I0
sg5
S'Omni-psych super dizzy lv 3- $385,134\r\n'
p2380
sg7
I1
sg8
I0
sg9
F1.8832958435207825
sg48
S'X'
sg10
F0
sg11
S'Omni-psych super dizzy lv 3'
p2381
sba(isaltybot
Fighter
p2382
(dp2383
g4
I0
sg5
S'Rage rock ex (1) - $831,060'
p2384
sg7
I1
sg8
I0
sg9
F4.0988789315077954
sg48
S'S'
sg10
F0
sg11
S'Rage rock ex'
p2385
sba(isaltybot
Fighter
p2386
(dp2387
g4
I0
sg5
S'Alien guts(blue_no9) (-4) - $202,753\r\n'
p2388
sg7
I0
sg8
I1
sg9
F0.24396914783529469
sg48
S'S'
sg10
F0
sg11
S'Alien guts(blue_no9)'
p2389
sba(isaltybot
Fighter
p2390
(dp2391
g4
I0
sg5
S'Arale (1) - $458,107'
p2392
sg7
I1
sg8
I0
sg9
F2.8883697762982017
sg48
S'A'
sg10
F0
sg11
S'Arale'
p2393
sba(isaltybot
Fighter
p2394
(dp2395
g4
I0
sg5
S'Tamara EX2 (-3) - $158,604\r\n'
p2396
sg7
I0
sg8
I1
sg9
F0.3462160586937113
sg48
S'A'
sg10
F0
sg11
S'Tamara EX2'
p2397
sba(isaltybot
Fighter
p2398
(dp2399
g4
I0
sg5
S'Aner rolange (1) - $171,586'
p2400
sg7
I0
sg8
I2
sg9
F0.87407059911851093
sg48
S'A'
sg10
F0
sg11
S'Aner rolange'
p2401
sba(isaltybot
Fighter
p2402
(dp2403
g4
I0
sg5
S'Death black shot (-3) - $516,381\r\n'
p2404
sg7
I1
sg8
I0
sg9
F3.009458813656126
sg48
S'A'
sg10
F0
sg11
S'Death black shot'
p2405
sba(isaltybot
Fighter
p2406
(dp2407
g4
I0
sg5
S'Eve (-4) - $153,241'
p2408
sg7
I0
sg8
I1
sg9
F0.12047134775458093
sg48
S'S'
sg10
F0
sg11
S'Eve'
p2409
sba(isaltybot
Fighter
p2410
(dp2411
g4
I0
sg5
S'Kanako yasaka EX3 (-1) - $1,272,012\r\n'
p2412
sg7
I1
sg8
I0
sg9
F8.300728917195789
sg48
S'S'
sg10
F0
sg11
S'Kanako yasaka EX3'
p2413
sba(isaltybot
Fighter
p2414
(dp2415
g4
I0
sg5
S'Leonardo (3) - $319,522'
p2416
sg7
I0
sg8
I1
sg9
F1.0158874493283523
sg48
S'B'
sg10
F0
sg11
S'Leonardo'
p2417
sba(isaltybot
Fighter
p2418
(dp2419
g4
I0
sg5
S'Custom shinobi shou (5) - $314,525\r\n'
p2420
sg7
I1
sg8
I0
sg9
F0.9843610142650584
sg48
S'B'
sg10
F0
sg11
S'Custom shinobi shou'
p2421
sba(isaltybot
Fighter
p2422
(dp2423
g4
I0
sg5
S'Bob wilson EX2 (1) - $123,114'
p2424
sg7
I0
sg8
I1
sg9
F0.34330027131858604
sg48
S'B'
sg10
F0
sg11
S'Bob wilson EX2'
p2425
sba(isaltybot
Fighter
p2426
(dp2427
g4
I0
sg5
S'Atlas (7) - $358,619\r\n'
p2428
sg7
I1
sg8
I0
sg9
F2.9129018633136767
sg48
S'B'
sg10
F0
sg11
S'Atlas'
p2429
sba(isaltybot
Fighter
p2430
(dp2431
g4
I0
sg5
S'Kazami yuka_ns (3) - $265,140'
p2432
sg7
I1
sg8
I0
sg9
F1.7146515598323762
sg48
S'A'
sg10
F0
sg11
S'Kazami yuka_ns'
p2433
sba(isaltybot
Fighter
p2434
(dp2435
g4
I0
sg5
S'Ranma saotome EX2 (2) - $154,632\r\n'
p2436
sg7
I0
sg8
I1
sg9
F0.58320887078524553
sg48
S'A'
sg10
F0
sg11
S'Ranma saotome EX2'
p2437
sba(isaltybot
Fighter
p2438
(dp2439
g4
I0
sg5
S'Shuma MVC3 (-2) - $127,792'
p2440
sg7
I1
sg8
I0
sg9
F0.28198140747981543
sg48
S'S'
sg10
F0
sg11
S'Shuma MVC3'
p2441
sba(isaltybot
Fighter
p2442
(dp2443
g4
I0
sg5
S'Orochi akuma (1) - $453,193\r\n'
p2444
sg7
I0
sg8
I1
sg9
F3.5463331037936645
sg48
S'S'
sg10
F0
sg11
S'Orochi akuma'
p2445
sba(isaltybot
Fighter
p2446
(dp2447
g4
I0
sg5
S'Hotaride (7) - $494,725'
p2448
sg7
I0
sg8
I1
sg9
F3.12421061937961
sg48
S'S'
sg10
F0
sg11
S'Hotaride'
p2449
sba(isaltybot
Fighter
p2450
(dp2451
g4
I0
sg5
S'Basilisk-s[0.98] EX3 (-1) - $158,352\r\n'
p2452
sg7
I1
sg8
I0
sg9
F0.32008085299914096
sg48
S'S'
sg10
F0
sg11
S'Basilisk-s[0.98] EX3'
p2453
sba(isaltybot
Fighter
p2454
(dp2455
g4
I0
sg5
S'Athena EX3 (-2) - $749,732'
p2456
sg7
I2
sg8
I0
sg9
F12.298133388396401
sg48
S'B'
sg10
F0
sg11
S'Athena EX3'
p2457
sba(isaltybot
Fighter
p2458
(dp2459
g4
I0
sg5
S'Kensou (-3) - $80,348\r\n'
p2460
sg7
I0
sg8
I1
sg9
F0.107168961708984
sg48
S'B'
sg10
F0
sg11
S'Kensou'
p2461
sba(isaltybot
Fighter
p2462
(dp2463
g4
I0
sg5
S'Dark cornian (-1) - $415,878'
p2464
sg7
I0
sg8
I1
sg9
F1.5215011670703242
sg48
S'S'
sg10
F0
sg11
S'Dark cornian'
p2465
sba(isaltybot
Fighter
p2466
(dp2467
g4
I0
sg5
S'Kim hoon EX (-1) - $273,334\r\n'
p2468
sg7
I1
sg8
I0
sg9
F0.65724563453705176
sg48
S'S'
sg10
F0
sg11
S'Kim hoon EX'
p2469
sba(isaltybot
Fighter
p2470
(dp2471
g4
I0
sg5
S'Revlius (1) - $374,259'
p2472
sg7
I1
sg8
I1
sg9
F3.2082379431225916
sg48
S'A'
sg10
F0
sg11
S'Revlius'
p2473
sba(isaltybot
Fighter
p2474
(dp2475
g4
I0
sg5
S'Clark (-1) - $150,337\r\n'
p2476
sg7
I1
sg8
I0
sg9
F0.40169241087054686
sg48
S'A'
sg10
F0
sg11
S'Clark'
p2477
sba(isaltybot
Fighter
p2478
(dp2479
g4
I0
sg5
S'Ryoko ex EX3 (2) - $161,021\r\n'
p2480
sg7
I0
sg8
I2
sg9
F0.95473722208447909
sg48
S'B'
sg10
F0
sg11
S'Ryoko ex EX3'
p2481
sba(isaltybot
Fighter
p2482
(dp2483
g4
I0
sg5
S'Extra usapi- (9) - $260,368'
p2484
sg7
I4
sg8
I0
sg9
F4.9255156007611278
sg48
S'S'
sg10
F0
sg11
S'Extra usapi-'
p2485
sba(isaltybot
Fighter
p2486
(dp2487
g4
I0
sg5
S'Sonson (-3) - $71,135\r\n'
p2488
sg7
I0
sg8
I1
sg9
F0.2732094573833958
sg48
S'S'
sg10
F0
sg11
S'Sonson'
p2489
sba(isaltybot
Fighter
p2490
(dp2491
g4
I0
sg5
S'Tamamo-no-mae (2) - $321,709\r\n'
p2492
sg7
I1
sg8
I1
sg9
F6.6801676621291239
sg48
S'S'
sg10
F0
sg11
S'Tamamo-no-mae'
p2493
sba(isaltybot
Fighter
p2494
(dp2495
g4
I0
sg5
S'Samwell han (-2) - $245,169'
p2496
sg7
I1
sg8
I1
sg9
F1.4141272018977205
sg48
S'S'
sg10
F0
sg11
S'Samwell han'
p2497
sba(isaltybot
Fighter
p2498
(dp2499
g4
I0
sg5
S'Senna(coh) (-3) - $254,714\r\n'
p2500
sg7
I0
sg8
I1
sg9
F1.0389323283123071
sg48
S'S'
sg10
F0
sg11
S'Senna(coh)'
p2501
sba(isaltybot
Fighter
p2502
(dp2503
g4
I0
sg5
S'D4 roll (1) - $542,889\r\n'
p2504
sg7
I3
sg8
I1
sg9
F9.8454565405647365
sg48
S'S'
sg10
F0
sg11
S'D4 roll'
p2505
sba(isaltybot
Fighter
p2506
(dp2507
g4
I0
sg5
S'Onsokumaru (4) - $141,174'
p2508
sg7
I1
sg8
I1
sg9
F0.57132196577001471
sg48
S'S'
sg10
F0
sg11
S'Onsokumaru'
p2509
sba(isaltybot
Fighter
p2510
(dp2511
g4
I0
sg5
S'Konata (-1) - $588,351\r\n'
p2512
sg7
I0
sg8
I1
sg9
F4.1675591822856903
sg48
S'S'
sg10
F0
sg11
S'Konata'
p2513
sba(isaltybot
Fighter
p2514
(dp2515
g4
I0
sg5
S'King ghidorah (-8) - $264,758'
p2516
sg7
I0
sg8
I1
sg9
F0.62145826438230445
sg48
S'S'
sg10
F0
sg11
S'King ghidorah'
p2517
sba(isaltybot
Fighter
p2518
(dp2519
g4
I0
sg5
S'Theskiver (3) - $426,027\r\n'
p2520
sg7
I2
sg8
I2
sg9
F5.2553186946493886
sg48
S'S'
sg10
F0
sg11
S'Theskiver'
p2521
sba(isaltybot
Fighter
p2522
(dp2523
g4
I0
sg5
S'Medicine melancholy (-1) - $262,780'
p2524
sg7
I0
sg8
I1
sg9
F0.65459020232063414
sg48
S'S'
sg10
F0
sg11
S'Medicine melancholy'
p2525
sba(isaltybot
Fighter
p2526
(dp2527
g4
I0
sg5
S'Shaolon (-2) - $401,442\r\n'
p2528
sg7
I3
sg8
I1
sg9
F3.1614023894450303
sg48
S'S'
sg10
F0
sg11
S'Shaolon'
p2529
sba(isaltybot
Fighter
p2530
(dp2531
g4
I0
sg5
S'Guldin (-5) - $150,653'
p2532
sg7
I0
sg8
I1
sg9
F0.24342176484940142
sg48
S'S'
sg10
F0
sg11
S'Guldin'
p2533
sba(isaltybot
Fighter
p2534
(dp2535
g4
I0
sg5
S'Dhalsims (4) - $618,897\r\n'
p2536
sg7
I1
sg8
I1
sg9
F5.649780814922746
sg48
S'S'
sg10
F0
sg11
S'Dhalsims'
p2537
sba(isaltybot
Fighter
p2538
(dp2539
g4
I0
sg5
S'Dress cinderella mio- $130,076'
p2540
sg7
I0
sg8
I1
sg9
F0.015458158713634389
sg48
S'S'
sg10
F0
sg11
S'Dress cinderella mio'
p2541
sba(isaltybot
Fighter
p2542
(dp2543
g4
I0
sg5
S'Saint-of-silver- $8,414,715\r\n'
p2544
sg7
I1
sg8
I0
sg9
F64.690757710876724
sg48
S'S'
sg10
F0
sg11
S'Saint-of-silver'
p2545
sba(isaltybot
Fighter
p2546
(dp2547
g4
I0
sg5
S'Washizuka b style- $433,955'
p2548
sg7
I1
sg8
I1
sg9
F1.4964913676628369
sg48
S'S'
sg10
F0
sg11
S'Washizuka b style'
p2549
sba(isaltybot
Fighter
p2550
(dp2551
g4
I0
sg5
S'Necoarc_abyss- $351,105\r\n'
p2552
sg7
I0
sg8
I1
sg9
F0.80908158680047471
sg48
S'S'
sg10
F0
sg11
S'Necoarc_abyss'
p2553
sba(isaltybot
Fighter
p2554
(dp2555
g4
I0
sg5
S'Adel-haaaaai- $527,958'
p2556
sg7
I0
sg8
I1
sg9
F1.1682631987732262
sg48
S'Unknown'
p2557
sg10
F0
sg11
S'Adel-haaaaai'
p2558
sba(isaltybot
Fighter
p2559
(dp2560
g4
I0
sg5
S'Kagami EX3- $473,039\r\n'
p2561
sg7
I0
sg8
I1
sg9
F1.0467386710391511
sg48
S'S'
sg10
F0
sg11
S'Kagami EX3'
p2562
sba(isaltybot
Fighter
p2563
(dp2564
g4
I0
sg5
S'Omega- $337,731'
p2565
sg7
I1
sg8
I0
sg9
F2.7968282886836984
sg48
g2557
sg10
F0
sg11
S'Omega'
p2566
sba(isaltybot
Fighter
p2567
(dp2568
g4
I0
sg5
S'Creeper- $120,755\r\n'
p2569
sg7
I0
sg8
I1
sg9
F0.35754787093870566
sg48
g2557
sg10
F0
sg11
S'Creeper'
p2570
sba(isaltybot
Fighter
p2571
(dp2572
g4
I0
sg5
S'Gaia (2) - $194,797'
p2573
sg7
I0
sg8
I1
sg9
F0.80579536288237608
sg48
S'B'
sg10
F0
sg11
S'Gaia'
p2574
sba(isaltybot
Fighter
p2575
(dp2576
g4
I0
sg5
S'Morph (3) - $241,745\r\n'
p2577
sg7
I1
sg8
I0
sg9
F1.2410098718152744
sg48
S'B'
sg10
F0
sg11
S'Morph'
p2578
sba(isaltybot
Fighter
p2579
(dp2580
g4
I0
sg5
S'Baki-hanma (1) - $175,458'
p2581
sg7
I1
sg8
I1
sg9
F0.76809952918566404
sg48
S'A'
sg10
F0
sg11
S'Baki-hanma'
p2582
sba(isaltybot
Fighter
p2583
(dp2584
g4
I0
sg5
S'Cchouou (-1) - $158,700'
p2585
sg7
I0
sg8
I1
sg9
F0.29666712154379066
sg48
S'X'
sg10
F0
sg11
S'Cchouou'
p2586
sba(isaltybot
Fighter
p2587
(dp2588
g4
I0
sg5
S'God mouri (-2) - $534,943\r\n'
p2589
sg7
I1
sg8
I0
sg9
F3.3707813484562066
sg48
S'X'
sg10
F0
sg11
S'God mouri'
p2590
sba(isaltybot
Fighter
p2591
(dp2592
g4
I0
sg5
S'Super vegeta ai-barbatos (1) - $691,370'
p2593
sg7
I1
sg8
I1
sg9
F6.9322785951688415
sg48
S'B'
sg10
F0
sg11
S'Super vegeta ai-barbatos'
p2594
sba(isaltybot
Fighter
p2595
(dp2596
g4
I0
sg5
S'Raiden (1) - $164,265\r\n'
p2597
sg7
I0
sg8
I1
sg9
F0.23759347382732834
sg48
S'B'
sg10
F0
sg11
S'Raiden'
p2598
sba(isaltybot
Fighter
p2599
(dp2600
g4
I0
sg5
S'Chili n pepper (1) - $354,229'
p2601
sg7
I1
sg8
I1
sg9
F3.0849542017357603
sg48
S'A'
sg10
F0
sg11
S'Chili n pepper'
p2602
sba(isaltybot
Fighter
p2603
(dp2604
g4
I0
sg5
S'Robert nbc (1) - $219,846\r\n'
p2605
sg7
I1
sg8
I0
sg9
F0.62063241575365091
sg48
S'A'
sg10
F0
sg11
S'Robert nbc'
p2606
sba(isaltybot
Fighter
p2607
(dp2608
g4
I0
sg5
S'Eko (1) - $138,609'
p2609
sg7
I0
sg8
I1
sg9
F0.47987328844189792
sg48
S'A'
sg10
F0
sg11
S'Eko'
p2610
sba(isaltybot
Fighter
p2611
(dp2612
g4
I0
sg5
S'Shirai_kuroko (3) - $288,845\r\n'
p2613
sg7
I1
sg8
I0
sg9
F2.0838834419121413
sg48
S'A'
sg10
F0
sg11
S'Shirai_kuroko'
p2614
sba(isaltybot
Fighter
p2615
(dp2616
g4
I0
sg5
S'Ultraman tiga (-1) - $219,084'
p2617
sg7
I0
sg8
I1
sg9
F0.50926909549899702
sg48
S'A'
sg10
F0
sg11
S'Ultraman tiga'
p2618
sba(isaltybot
Fighter
p2619
(dp2620
g4
I0
sg5
S'Gaits z (7) - $430,193\r\n'
p2621
sg7
I1
sg8
I0
sg9
F1.9635984371291377
sg48
S'A'
sg10
F0
sg11
S'Gaits z'
p2622
sba(isaltybot
Fighter
p2623
(dp2624
g4
I0
sg5
S'Rugal bernstein (0) - $674,909'
p2625
sg7
I1
sg8
I0
sg9
F1.785421588260659
sg48
S'A'
sg10
F0
sg11
S'Rugal bernstein'
p2626
sba(isaltybot
Fighter
p2627
(dp2628
g4
I0
sg5
S'Jin kisaragi (1) - $154,122'
p2629
sg7
I0
sg8
I1
sg9
F0.98376163302822561
sg48
S'B'
sg10
F0
sg11
S'Jin kisaragi'
p2630
sba(isaltybot
Fighter
p2631
(dp2632
g4
I0
sg5
S'Billy kane (-1) - $156,666\r\n'
p2633
sg7
I1
sg8
I0
sg9
F1.0165064040175964
sg48
S'B'
sg10
F0
sg11
S'Billy kane'
p2634
sba(isaltybot
Fighter
p2635
(dp2636
g4
I0
sg5
S'Nega scott (-9) - $61,891'
p2637
sg7
I0
sg8
I1
sg9
F0.23334841458356897
sg48
S'B'
sg10
F0
sg11
S'Nega scott'
p2638
sba(isaltybot
Fighter
p2639
(dp2640
g4
I0
sg5
S'Renamon Dv2 (2) - $248,451'
p2641
sg7
I1
sg8
I0
sg9
F5.5025469525159458
sg48
S'B'
sg10
F0
sg11
S'Renamon Dv2'
p2642
sba(isaltybot
Fighter
p2643
(dp2644
g4
I0
sg5
S'Saki-mvc (-5) - $45,152\r\n'
p2645
sg7
I0
sg8
I1
sg9
F0.18173402401278321
sg48
S'B'
sg10
F0
sg11
S'Saki-mvc'
p2646
sba(isaltybot
Fighter
p2647
(dp2648
g4
I0
sg5
S'Warewarenocolibri (-1) - $85,563'
p2649
sg7
I1
sg8
I0
sg9
F1.8302637489571969
sg48
S'B'
sg10
F0
sg11
S'Warewarenocolibri'
p2650
sba(isaltybot
Fighter
p2651
(dp2652
g4
I0
sg5
S'Cci mr.big (-1) - $46,749\r\n'
p2653
sg7
I0
sg8
I1
sg9
F0.54636934188843311
sg48
S'B'
sg10
F0
sg11
S'Cci mr.big'
p2654
sba(isaltybot
Fighter
p2655
(dp2656
g4
I0
sg5
S'Mongori (-1) - $167,151'
p2657
sg7
I1
sg8
I0
sg9
F2.5562165468726104
sg48
S'B'
sg10
F0
sg11
S'Mongori'
p2658
sba(isaltybot
Fighter
p2659
(dp2660
g4
I0
sg5
S'Xenophage (-3) - $65,390\r\n'
p2661
sg7
I0
sg8
I1
sg9
F0.39120316360655932
sg48
S'B'
sg10
F0
sg11
S'Xenophage'
p2662
sba(isaltybot
Fighter
p2663
(dp2664
g4
I0
sg5
S'Black moth (6) - $121,184'
p2665
sg7
I1
sg8
I0
sg9
F0.55593581121376989
sg48
S'S'
sg10
F0
sg11
S'Black moth'
p2666
sba(isaltybot
Fighter
p2667
(dp2668
g4
I0
sg5
S'Saku EX2 (2) - $217,982\r\n'
p2669
sg7
I0
sg8
I1
sg9
F1.7987688143649327
sg48
S'S'
sg10
F0
sg11
S'Saku EX2'
p2670
sba(isaltybot
Fighter
p2671
(dp2672
g4
I0
sg5
S'Wing.0 (-1) - $118,544'
p2673
sg7
I0
sg8
I2
sg9
F0.69174557499677114
sg48
S'A'
sg10
F0
sg11
S'Wing.0'
p2674
sba(isaltybot
Fighter
p2675
(dp2676
g4
I0
sg5
S'Meteor (3) - $280,096\r\n'
p2677
sg7
I1
sg8
I0
sg9
F2.3628019975705223
sg48
S'A'
sg10
F0
sg11
S'Meteor'
p2678
sba(isaltybot
Fighter
p2679
(dp2680
g4
I0
sg5
S'Alex (-1) - $246,194'
p2681
sg7
I1
sg8
I0
sg9
F1.6029820620503303
sg48
S'A'
sg10
F0
sg11
S'Alex'
p2682
sba(isaltybot
Fighter
p2683
(dp2684
g4
I0
sg5
S'Satori EX (1) - $153,585\r\n'
p2685
sg7
I0
sg8
I1
sg9
F0.62383729904059404
sg48
S'A'
sg10
F0
sg11
S'Satori EX'
p2686
sba(isaltybot
Fighter
p2687
(dp2688
g4
I0
sg5
S'Ghost kick (-2) - $103,590'
p2689
sg7
I1
sg8
I0
sg9
F0.24722560320756068
sg48
S'B'
sg10
F0
sg11
S'Ghost kick'
p2690
sba(isaltybot
Fighter
p2691
(dp2692
g4
I0
sg5
S'Usada hikaru (-1) - $419,010\r\n'
p2693
sg7
I0
sg8
I2
sg9
F7.0634533138973215
sg48
S'B'
sg10
F0
sg11
S'Usada hikaru'
p2694
sba(isaltybot
Fighter
p2695
(dp2696
g4
I0
sg5
S'Okubo kumi (1) - $149,685'
p2697
sg7
I0
sg8
I1
sg9
F0.99239551288851169
sg48
S'B'
sg10
F0
sg11
S'Okubo kumi'
p2698
sba(isaltybot
Fighter
p2699
(dp2700
g4
I0
sg5
S'Kyle broflovski (-1) - $150,832\r\n'
p2701
sg7
I1
sg8
I0
sg9
F1.0076627584594315
sg48
S'B'
sg10
F0
sg11
S'Kyle broflovski'
p2702
sba(isaltybot
Fighter
p2703
(dp2704
g4
I0
sg5
S'Gyan (2) - $40,896'
p2705
sg7
I1
sg8
I0
sg9
F0.056550705639306725
sg48
S'A'
sg10
F0
sg11
S'Gyan'
p2706
sba(isaltybot
Fighter
p2707
(dp2708
g4
I0
sg5
S'Hyper omega chaos hiryu (-1) - $723,174\r\n'
p2709
sg7
I1
sg8
I1
sg9
F23.949537644450498
sg48
S'A'
sg10
F0
sg11
S'Hyper omega chaos hiryu'
p2710
sba(isaltybot
Fighter
p2711
(dp2712
g4
I0
sg5
S'Donkey kong (-1) - $241,963'
p2713
sg7
I1
sg8
I0
sg9
F0.61729349395623179
sg48
S'B'
sg10
F0
sg11
S'Donkey kong'
p2714
sba(isaltybot
Fighter
p2715
(dp2716
g4
I0
sg5
S'Luke cage (5) - $391,974\r\n'
p2717
sg7
I0
sg8
I1
sg9
F1.6199749548484685
sg48
S'B'
sg10
F0
sg11
S'Luke cage'
p2718
sba(isaltybot
Fighter
p2719
(dp2720
g4
I0
sg5
S'Grant (-3) - $379,007'
p2721
sg7
I0
sg8
I1
sg9
F2.6176143544833588
sg48
S'A'
sg10
F0
sg11
S'Grant'
p2722
sba(isaltybot
Fighter
p2723
(dp2724
g4
I0
sg5
S'Igniz (-1) - $149,037'
p2725
sg7
I1
sg8
I0
sg9
F0.8866974851410927
sg48
S'S'
sg10
F0
sg11
S'Igniz'
p2726
sba(isaltybot
Fighter
p2727
(dp2728
g4
I0
sg5
S'Hyouken (-1) - $168,081\r\n'
p2729
sg7
I0
sg8
I1
sg9
F1.1277803498460115
sg48
S'S'
sg10
F0
sg11
S'Hyouken'
p2730
sba(isaltybot
Fighter
p2731
(dp2732
g4
I0
sg5
S'Gadis (-3) - $251,536\r\n'
p2733
sg7
I1
sg8
I0
sg9
F2.3116355582513117
sg48
S'S'
sg10
F0
sg11
S'Gadis'
p2734
sba(isaltybot
Fighter
p2735
(dp2736
g4
I0
sg5
S'The grandmapocalypse (4) - $1,017,971'
p2737
sg7
I0
sg8
I1
sg9
F2.3344746135852863
sg48
S'S'
sg10
F0
sg11
S'The grandmapocalypse'
p2738
sba(isaltybot
Fighter
p2739
(dp2740
g4
I0
sg5
S'(sman) EX3 (-1) - $196,336'
p2741
sg7
I1
sg8
I0
sg9
F0.31677213045456454
sg48
S'B'
sg10
F0
sg11
S'(sman) EX3'
p2742
sba(isaltybot
Fighter
p2743
(dp2744
g4
I0
sg5
S'Super skrull (2) - $619,802\r\n'
p2745
sg7
I0
sg8
I2
sg9
F5.841177443031297
sg48
S'B'
sg10
F0
sg11
S'Super skrull'
p2746
sba(isaltybot
Fighter
p2747
(dp2748
g4
I0
sg5
S'Kraidgief (3) - $148,959'
p2749
sg7
I0
sg8
I1
sg9
F0.22700001676300313
sg48
S'S'
sg10
F0
sg11
S'Kraidgief'
p2750
sba(isaltybot
Fighter
p2751
(dp2752
g4
I0
sg5
S'Light yagami (3) - $656,207\r\n'
p2753
sg7
I1
sg8
I0
sg9
F4.4052860183003375
sg48
S'S'
sg10
F0
sg11
S'Light yagami'
p2754
sba(isaltybot
Fighter
p2755
(dp2756
g4
I0
sg5
S'Brokken (1) - $702,732'
p2757
sg7
I1
sg8
I0
sg9
F8.0012296761852717
sg48
S'A'
sg10
F0
sg11
S'Brokken'
p2758
sba(isaltybot
Fighter
p2759
(dp2760
g4
I0
sg5
S'Barney (2) - $303,548'
p2761
sg7
I0
sg8
I1
sg9
F1.3430554879586571
sg48
S'S'
sg10
F0
sg11
S'Barney'
p2762
sba(isaltybot
Fighter
p2763
(dp2764
g4
I0
sg5
S'Dantalion_alice (9) - $226,013\r\n'
p2765
sg7
I1
sg8
I0
sg9
F0.74457087511695019
sg48
S'S'
sg10
F0
sg11
S'Dantalion_alice'
p2766
sba(isaltybot
Fighter
p2767
(dp2768
g4
I0
sg5
S'Kanae (2) - $850,875'
p2769
sg7
I1
sg8
I0
sg9
F10.723197519817514
sg48
S'B'
sg10
F0
sg11
S'Kanae'
p2770
sba(isaltybot
Fighter
p2771
(dp2772
g4
I0
sg5
S'Mono EX3 (-9) - $79,349\r\n'
p2773
sg7
I0
sg8
I1
sg9
F0.093255766123108569
sg48
S'B'
sg10
F0
sg11
S'Mono EX3'
p2774
sba(isaltybot
Fighter
p2775
(dp2776
g4
I0
sg5
S'Moonmillenniummon (1) - $214,065'
p2777
sg7
I0
sg8
I1
sg9
F0.025906017786463207
sg48
S'X'
sg10
F0
sg11
S'Moonmillenniummon'
p2778
sba(isaltybot
Fighter
p2779
(dp2780
g4
I0
sg5
S'Gohan  grande normale (-1) - $72,989\r\n'
p2781
sg7
I0
sg8
I1
sg9
F2.7468387776606953
sg48
S'A'
sg10
F0
sg11
S'Gohan  grande normale'
p2782
sba(isaltybot
Fighter
p2783
(dp2784
g4
I0
sg5
S'Shadowman cfas (1) - $102,184'
p2785
sg7
I1
sg8
I0
sg9
F0.13686890807853916
sg48
S'A'
sg10
F0
sg11
S'Shadowman cfas'
p2786
sba(isaltybot
Fighter
p2787
(dp2788
g4
I0
sg5
S'Warakia (6) - $746,583\r\n'
p2789
sg7
I0
sg8
I1
sg9
F7.3062612542080956
sg48
S'A'
sg10
F0
sg11
S'Warakia'
p2790
sba(isaltybot
Fighter
p2791
(dp2792
g4
I0
sg5
S'Sawada (-6) - $157,439'
p2793
sg7
I1
sg8
I0
sg9
F0.14889158100901545
sg48
S'B'
sg10
F0
sg11
S'Sawada'
p2794
sba(isaltybot
Fighter
p2795
(dp2796
g4
I0
sg5
S'Baby commando (-2) - $1,057,407\r\n'
p2797
sg7
I0
sg8
I1
sg9
F6.716296470379004
sg48
S'B'
sg10
F0
sg11
S'Baby commando'
p2798
sba(isaltybot
Fighter
p2799
(dp2800
g4
I0
sg5
S'Daniel (-6) - $69,111'
p2801
sg7
I0
sg8
I1
sg9
F0.050338510843636761
sg48
S'B'
sg10
F0
sg11
S'Daniel'
p2802
sba(isaltybot
Fighter
p2803
(dp2804
g4
I0
sg5
S'M-lancer (2) - $1,372,925\r\n'
p2805
sg7
I2
sg8
I0
sg9
F58.206798663255057
sg48
S'B'
sg10
F0
sg11
S'M-lancer'
p2806
sba(isaltybot
Fighter
p2807
(dp2808
g4
I0
sg5
S'Morrigan EX (-1) - $629,799'
p2809
sg7
I1
sg8
I0
sg9
F1.7472188160617881
sg48
S'S'
sg10
F0
sg11
S'Morrigan EX'
p2810
sba(isaltybot
Fighter
p2811
(dp2812
g4
I0
sg5
S'Fang (1) - $360,458\r\n'
p2813
sg7
I0
sg8
I1
sg9
F0.57233815868237325
sg48
S'S'
sg10
F0
sg11
S'Fang'
p2814
sba(isaltybot
Fighter
p2815
(dp2816
g4
I0
sg5
S'Goodman (-1) - $207,493\r\n'
p2817
sg7
I0
sg8
I1
sg9
F0.41765985841356362
sg48
S'S'
sg10
F0
sg11
S'Goodman'
p2818
sba(isaltybot
Fighter
p2819
(dp2820
g4
I0
sg5
S'Deadpool EX (1) - $580,966\r\n'
p2821
sg7
I1
sg8
I0
sg9
F4.5921446807837931
sg48
S'B'
sg10
F0
sg11
S'Deadpool EX'
p2822
sba(isaltybot
Fighter
p2823
(dp2824
g4
I0
sg5
S'Kyo_99xi (-1) - $257,152'
p2825
sg7
I1
sg8
I0
sg9
F0.38125568024291051
sg48
S'B'
sg10
F0
sg11
S'Kyo_99xi'
p2826
sba(isaltybot
Fighter
p2827
(dp2828
g4
I0
sg5
S'The joker EX3 (-2) - $674,487\r\n'
p2829
sg7
I0
sg8
I1
sg9
F2.6229117409158786
sg48
S'B'
sg10
F0
sg11
S'The joker EX3'
p2830
sba(isaltybot
Fighter
p2831
(dp2832
g4
I0
sg5
S'Ami ex (-1) - $144,785'
p2833
sg7
I1
sg8
I0
sg9
F0.56349731454814356
sg48
S'B'
sg10
F0
sg11
S'Ami ex'
p2834
sba(isaltybot
Fighter
p2835
(dp2836
g4
I0
sg5
S'Loud Demon M1 (6) - $256,940\r\n'
p2837
sg7
I0
sg8
I1
sg9
F1.7746313499326587
sg48
S'B'
sg10
F0
sg11
S'Loud Demon M1'
p2838
sba(isaltybot
Fighter
p2839
(dp2840
g4
I0
sg5
S'The batman (2) - $593,166'
p2841
sg7
I0
sg8
I1
sg9
F3.5920500445095773
sg48
S'B'
sg10
F0
sg11
S'The batman'
p2842
sba(isaltybot
Fighter
p2843
(dp2844
g4
I0
sg5
S'Lian (1) - $165,133\r\n'
p2845
sg7
I1
sg8
I0
sg9
F0.27839255790116091
sg48
S'B'
sg10
F0
sg11
S'Lian'
p2846
sba(isaltybot
Fighter
p2847
(dp2848
g4
I0
sg5
S'Satsuki vp EX3 (-2) - $310,754'
p2849
sg7
I1
sg8
I0
sg9
F0.98327738032331458
sg48
S'A'
sg10
F0
sg11
S'Satsuki vp EX3'
p2850
sba(isaltybot
Fighter
p2851
(dp2852
g4
I0
sg5
S'Cci jhun EX3 (-3) - $316,039\r\n'
p2853
sg7
I0
sg8
I1
sg9
F1.0170070216312581
sg48
S'A'
sg10
F0
sg11
S'Cci jhun EX3'
p2854
sba(isaltybot
Fighter
p2855
(dp2856
g4
I0
sg5
S'Scarecrow (3) - $268,030'
p2857
sg7
I0
sg8
I1
sg9
F0.47982198448629887
sg48
S'B'
sg10
F0
sg11
S'Scarecrow'
p2858
sba(isaltybot
Fighter
p2859
(dp2860
g4
I0
sg5
S'God kula (-1) - $558,603\r\n'
p2861
sg7
I1
sg8
I0
sg9
F2.0841062567623028
sg48
S'B'
sg10
F0
sg11
S'God kula'
p2862
sba(isaltybot
Fighter
p2863
(dp2864
g4
I0
sg5
S'Petshop (1) - $378,025'
p2865
sg7
I0
sg8
I1
sg9
F2.2376949714387191
sg48
S'S'
sg10
F0
sg11
S'Petshop'
p2866
sba(isaltybot
Fighter
p2867
(dp2868
g4
I0
sg5
S'Suika (-1) - $168,935\r\n'
p2869
sg7
I2
sg8
I0
sg9
F1.7937782328677647
sg48
S'S'
sg10
F0
sg11
S'Suika'
p2870
sba(isaltybot
Fighter
p2871
(dp2872
g4
I0
sg5
S'Ju do man (-3) - $145,637'
p2873
sg7
I0
sg8
I1
sg9
F0.30361662295642455
sg48
S'S'
sg10
F0
sg11
S'Ju do man'
p2874
sba(isaltybot
Fighter
p2875
(dp2876
g4
I0
sg5
S'Another igniz (-3) - $479,674\r\n'
p2877
sg7
I1
sg8
I0
sg9
F3.2936273062477257
sg48
S'S'
sg10
F0
sg11
S'Another igniz'
p2878
sba(isaltybot
Fighter
p2879
(dp2880
g4
I0
sg5
S'Holy strider (-1) - $371,983\r\n'
p2881
sg7
I1
sg8
I0
sg9
F2.699852662597348
sg48
S'S'
sg10
F0
sg11
S'Holy strider'
p2882
sba(isaltybot
Fighter
p2883
(dp2884
g4
I0
sg5
S'Juggernaut mvc2 (6) - $497,600'
p2885
sg7
I1
sg8
I0
sg9
F4.0610794179337137
sg48
S'B'
sg10
F0
sg11
S'Juggernaut mvc2'
p2886
sba(isaltybot
Fighter
p2887
(dp2888
g4
I0
sg5
S'Crystal (1) - $122,529\r\n'
p2889
sg7
I0
sg8
I1
sg9
F0.24623995176848876
sg48
S'B'
sg10
F0
sg11
S'Crystal'
p2890
sba(isaltybot
Fighter
p2891
(dp2892
g4
I0
sg5
S'Walkyrie EX2 (2) - $233,869'
p2893
sg7
I0
sg8
I1
sg9
F1.4206855914030749
sg48
S'A'
sg10
F0
sg11
S'Walkyrie EX2'
p2894
sba(isaltybot
Fighter
p2895
(dp2896
g4
I0
sg5
S'Fubuki (2) - $164,617\r\n'
p2897
sg7
I1
sg8
I0
sg9
F0.70388550855393406
sg48
S'A'
sg10
F0
sg11
S'Fubuki'
p2898
sba(isaltybot
Fighter
p2899
(dp2900
g4
I0
sg5
S'Project_f (1) - $148,851'
p2901
sg7
I0
sg8
I1
sg9
F0.24778930476298283
sg48
S'B'
sg10
F0
sg11
S'Project_f'
p2902
sba(isaltybot
Fighter
p2903
(dp2904
g4
I0
sg5
S'Azrael (-1) - $600,716\r\n'
p2905
sg7
I1
sg8
I0
sg9
F4.0356866934048146
sg48
S'B'
sg10
F0
sg11
S'Azrael'
p2906
sba(isaltybot
Fighter
p2907
(dp2908
g4
I0
sg5
S'Rancid (-6) - $134,686\r\n'
p2909
sg7
I0
sg8
I1
sg9
F0.63619058415640484
sg48
S'B'
sg10
F0
sg11
S'Rancid'
p2910
sba(isaltybot
Fighter
p2911
(dp2912
g4
I0
sg5
S'False valkyrie (-3) - $192,020'
p2913
sg7
I0
sg8
I2
sg9
F3.0504038547784211
sg48
S'S'
sg10
F0
sg11
S'False valkyrie'
p2914
sba(isaltybot
Fighter
p2915
(dp2916
g4
I0
sg5
S'Ratking (1) - $413,963\r\n'
p2917
sg7
I1
sg8
I0
sg9
F2.1558327257577337
sg48
S'S'
sg10
F0
sg11
S'Ratking'
p2918
sba(isaltybot
Fighter
p2919
(dp2920
g4
I0
sg5
S'Hourai-car EX2 (-2) - $453,536'
p2921
sg7
I0
sg8
I1
sg9
F3.3215373798921961
sg48
S'S'
sg10
F0
sg11
S'Hourai-car EX2'
p2922
sba(isaltybot
Fighter
p2923
(dp2924
g4
I0
sg5
S'Pheus_mor (2) - $136,544\r\n'
p2925
sg7
I1
sg8
I1
sg9
F1.7911673332860141
sg48
S'S'
sg10
F0
sg11
S'Pheus_mor'
p2926
sba(isaltybot
Fighter
p2927
(dp2928
g4
I0
sg5
S'Iron lantern (2) - $464,421'
p2929
sg7
I1
sg8
I0
sg9
F3.1461000690972645
sg48
S'B'
sg10
F0
sg11
S'Iron lantern'
p2930
sba(isaltybot
Fighter
p2931
(dp2932
g4
I0
sg5
S'KungFu Man (1) - $147,618\r\n'
p2933
sg7
I0
sg8
I1
sg9
F0.31785384381843196
sg48
S'B'
sg10
F0
sg11
S'KungFu Man'
p2934
sba(isaltybot
Fighter
p2935
(dp2936
g4
I0
sg5
S'M-gato (5) - $1,953,433'
p2937
sg7
I1
sg8
I0
sg9
F21.056504726692609
sg48
S'S'
sg10
F0
sg11
S'M-gato'
p2938
sba(isaltybot
Fighter
p2939
(dp2940
g4
I0
sg5
S'Omega Woods (-1) - $92,771\r\n'
p2941
sg7
I0
sg8
I1
sg9
F0.04749126281781868
sg48
S'S'
sg10
F0
sg11
S'Omega Woods'
p2942
sba(isaltybot
Fighter
p2943
(dp2944
g4
I0
sg5
S'Idaten (1) - $116,827'
p2945
sg7
I0
sg8
I1
sg9
F0.090135944202697285
sg48
S'A'
sg10
F0
sg11
S'Idaten'
p2946
sba(isaltybot
Fighter
p2947
(dp2948
g4
I0
sg5
S'Demitri maximoff (6) - $1,296,120\r\n'
p2949
sg7
I1
sg8
I0
sg9
F11.09435318890325
sg48
S'A'
sg10
F0
sg11
S'Demitri maximoff'
p2950
sba(isaltybot
Fighter
p2951
(dp2952
g4
I0
sg5
S'Deluxe ai (1) - $484,914'
p2953
sg7
I1
sg8
I0
sg9
F3.5940054697864707
sg48
S'A'
sg10
F0
sg11
S'Deluxe ai'
p2954
sba(isaltybot
Fighter
p2955
(dp2956
g4
I0
sg5
S'Benimaru 98 (1) - $134,923\r\n'
p2957
sg7
I0
sg8
I1
sg9
F0.27824109017269044
sg48
S'A'
sg10
F0
sg11
S'Benimaru 98'
p2958
sba(isaltybot
Fighter
p2959
(dp2960
g4
I0
sg5
S'Tung fu rue (-6) - $182,984'
p2961
sg7
I0
sg8
I1
sg9
F0.729560550846444
sg48
S'B'
sg10
F0
sg11
S'Tung fu rue'
p2962
sba(isaltybot
Fighter
p2963
(dp2964
g4
I0
sg5
S'Maxima ex (2) - $250,814\r\n'
p2965
sg7
I1
sg8
I0
sg9
F1.3706881475976043
sg48
S'B'
sg10
F0
sg11
S'Maxima ex'
p2966
sba(isaltybot
Fighter
p2967
(dp2968
g4
I0
sg5
S'Old robo-ky (1) - $209,094'
p2969
sg7
I0
sg8
I2
sg9
F1.1989730749981602
sg48
S'S'
sg10
F0
sg11
S'Old robo-ky'
p2970
sba(isaltybot
Fighter
p2971
(dp2972
g4
I0
sg5
S'Son goku EX3 (1) - $208,918\r\n'
p2973
sg7
I1
sg8
I0
sg9
F0.99915827331248142
sg48
S'S'
sg10
F0
sg11
S'Son goku EX3'
p2974
sba(isaltybot
Fighter
p2975
(dp2976
g4
I0
sg5
S'Aimi (1) - $464,654'
p2977
sg7
I1
sg8
I0
sg9
F3.1861624438577847
sg48
S'S'
sg10
F0
sg11
S'Aimi'
p2978
sba(isaltybot
Fighter
p2979
(dp2980
g4
I0
sg5
S'Mito_mashiro (-1) - $127,035'
p2981
sg7
I0
sg8
I1
sg9
F0.26683932926252907
sg48
S'S'
sg10
F0
sg11
S'Mito_mashiro'
p2982
sba(isaltybot
Fighter
p2983
(dp2984
g4
I0
sg5
S'Primeus (1) - $476,073\r\n'
p2985
sg7
I1
sg8
I0
sg9
F3.7475735033652144
sg48
S'S'
sg10
F0
sg11
S'Primeus'
p2986
sba(isaltybot
Fighter
p2987
(dp2988
g4
I0
sg5
S'Beavis EX2 (2) - $342,935'
p2989
sg7
I1
sg8
I0
sg9
F3.5914312943123146
sg48
S'B'
sg10
F0
sg11
S'Beavis EX2'
p2990
sba(isaltybot
Fighter
p2991
(dp2992
g4
I0
sg5
S'Jay Flash (-1) - $95,487\r\n'
p2993
sg7
I0
sg8
I1
sg9
F0.27844052079840204
sg48
S'B'
sg10
F0
sg11
S'Jay Flash'
p2994
sba(isaltybot
Fighter
p2995
(dp2996
g4
I0
sg5
S'Haruka (3) - $166,127'
p2997
sg7
I0
sg8
I1
sg9
F0.31413352192148125
sg48
S'A'
sg10
F0
sg11
S'Haruka'
p2998
sba(isaltybot
Fighter
p2999
(dp3000
g4
I0
sg5
S'Lf2 - julian (2) - $528,842\r\n'
p3001
sg7
I1
sg8
I0
sg9
F3.1833597187693754
sg48
S'A'
sg10
F0
sg11
S'Lf2 - julian'
p3002
sba(isaltybot
Fighter
p3003
(dp3004
g4
I0
sg5
S'Alissa (-2) - $175,922'
p3005
sg7
I1
sg8
I0
sg9
F0.6031066909387609
sg48
S'S'
sg10
F0
sg11
S'Alissa'
p3006
sba(isaltybot
Fighter
p3007
(dp3008
g4
I0
sg5
S'Aoi_amatu (-2) - $291,693\r\n'
p3009
sg7
I0
sg8
I1
sg9
F1.6580814224485851
sg48
S'S'
sg10
F0
sg11
S'Aoi_amatu'
p3010
sba(isaltybot
Fighter
p3011
(dp3012
g4
I0
sg5
S'Toki jj (2) - $317,215'
p3013
sg7
I1
sg8
I0
sg9
F0.52931714309075228
sg48
S'X'
sg10
F0
sg11
S'Toki jj'
p3014
sba(isaltybot
Fighter
p3015
(dp3016
g4
I0
sg5
S'Superkouji (3) - $599,291\r\n'
p3017
sg7
I0
sg8
I1
sg9
F1.8892265498163705
sg48
S'X'
sg10
F0
sg11
S'Superkouji'
p3018
sba(isaltybot
Fighter
p3019
(dp3020
g4
I0
sg5
S'Mukai (4) - $253,862'
p3021
sg7
I1
sg8
I0
sg9
F0.36718688979851599
sg48
S'B'
sg10
F0
sg11
S'Mukai'
p3022
sba(isaltybot
Fighter
p3023
(dp3024
g4
I0
sg5
S'Cassius bright (-1) - $476,891'
p3025
sg7
I1
sg8
I0
sg9
F1.9984369237989876
sg48
S'S'
sg10
F0
sg11
S'Cassius bright'
p3026
sba(isaltybot
Fighter
p3027
(dp3028
g4
I0
sg5
S'Gon the dinosaur (1) - $238,632\r\n'
p3029
sg7
I0
sg8
I1
sg9
F0.50039107469002353
sg48
S'S'
sg10
F0
sg11
S'Gon the dinosaur'
p3030
sba(isaltybot
Fighter
p3031
(dp3032
g4
I0
sg5
S'Ein (-3) - $367,197'
p3033
sg7
I1
sg8
I0
sg9
F1.7058143100036236
sg48
S'S'
sg10
F0
sg11
S'Ein'
p3034
sba(isaltybot
Fighter
p3035
(dp3036
g4
I0
sg5
S'Great dragonian (1) - $230,896'
p3037
sg7
I1
sg8
I0
sg9
F0.37253187308204877
sg48
S'B'
sg10
F0
sg11
S'Great dragonian'
p3038
sba(isaltybot
Fighter
p3039
(dp3040
g4
I0
sg5
S'Lambdadelta (2) - $195,049'
p3041
sg7
I1
sg8
I0
sg9
F0.79987943308946552
sg48
S'B'
sg10
F0
sg11
S'Lambdadelta'
p3042
sba(isaltybot
Fighter
p3043
(dp3044
g4
I0
sg5
S'Remy sf3 (5) - $243,848\r\n'
p3045
sg7
I0
sg8
I1
sg9
F1.2501884141933566
sg48
S'B'
sg10
F0
sg11
S'Remy sf3'
p3046
sba(isaltybot
Fighter
p3047
(dp3048
g4
I0
sg5
S'Pepe-h (1) - $651,768'
p3049
sg7
I1
sg8
I0
sg9
F4.4472283632195202
sg48
S'A'
sg10
F0
sg11
S'Pepe-h'
p3050
sba(isaltybot
Fighter
p3051
(dp3052
g4
I0
sg5
S'Kazama (4) - $146,556\r\n'
p3053
sg7
I0
sg8
I1
sg9
F0.22485915233641418
sg48
S'A'
sg10
F0
sg11
S'Kazama'
p3054
sba(isaltybot
Fighter
p3055
(dp3056
g4
I0
sg5
S'The end (-4) - $373,619'
p3057
sg7
I1
sg8
I1
sg9
F3.1355721067065723
sg48
S'A'
sg10
F0
sg11
S'The end'
p3058
sba(isaltybot
Fighter
p3059
(dp3060
g4
I0
sg5
S'Nicola zaza (-2) - $275,927\r\n'
p3061
sg7
I0
sg8
I1
sg9
F0.73852507500956854
sg48
S'A'
sg10
F0
sg11
S'Nicola zaza'
p3062
sba(isaltybot
Fighter
p3063
(dp3064
g4
I0
sg5
S'Adamas (2) - $153,423'
p3065
sg7
I1
sg8
I0
sg9
F0.77501237611258722
sg48
S'B'
sg10
F0
sg11
S'Adamas'
p3066
sba(isaltybot
Fighter
p3067
(dp3068
g4
I0
sg5
S'Jo jo (2) - $197,962\r\n'
p3069
sg7
I0
sg8
I1
sg9
F1.2903019755838434
sg48
S'B'
sg10
F0
sg11
S'Jo jo'
p3070
sba(isaltybot
Fighter
p3071
(dp3072
g4
I0
sg5
S'Makoto mizoguchi (1) - $113,540'
p3073
sg7
I0
sg8
I1
sg9
F0.19172058843394976
sg48
S'A'
sg10
F0
sg11
S'Makoto mizoguchi'
p3074
sba(isaltybot
Fighter
p3075
(dp3076
g4
I0
sg5
S'Lemeza (2) - $592,216\r\n'
p3077
sg7
I1
sg8
I0
sg9
F5.2159239034701423
sg48
S'A'
sg10
F0
sg11
S'Lemeza'
p3078
sba(isaltybot
Fighter
p3079
(dp3080
g4
I0
sg5
S'Yako_katsuragi (0) - $361,163'
p3081
sg7
I1
sg8
I0
sg9
F2.7973278599643714
sg48
S'B'
sg10
F0
sg11
S'Yako_katsuragi'
p3082
sba(isaltybot
Fighter
p3083
(dp3084
g4
I0
sg5
S'Raptor (1) - $129,110\r\n'
p3085
sg7
I1
sg8
I1
sg9
F1.3840159434781467
sg48
S'B'
sg10
F0
sg11
S'Raptor'
p3086
sba(isaltybot
Fighter
p3087
(dp3088
g4
I0
sg5
S'Aoshi (2) - $137,340'
p3089
sg7
I0
sg8
I1
sg9
F0.2269317453288478
sg48
S'B'
sg10
F0
sg11
S'Aoshi'
p3090
sba(isaltybot
Fighter
p3091
(dp3092
g4
I0
sg5
S'Nouka (5) - $605,204\r\n'
p3093
sg7
I1
sg8
I0
sg9
F4.4066113295471094
sg48
S'B'
sg10
F0
sg11
S'Nouka'
p3094
sba(isaltybot
Fighter
p3095
(dp3096
g4
I0
sg5
S'Peeking lord pirate (1) - $83,089'
p3097
sg7
I0
sg8
I1
sg9
F0.076057415847484239
sg48
S'B'
sg10
F0
sg11
S'Peeking lord pirate'
p3098
sba(isaltybot
Fighter
p3099
(dp3100
g4
I0
sg5
S'Missmarvel (1) - $1,092,451\r\n'
p3101
sg7
I1
sg8
I0
sg9
F13.147961824068167
sg48
S'B'
sg10
F0
sg11
S'Missmarvel'
p3102
sba(isaltybot
Fighter
p3103
(dp3104
g4
I0
sg5
S'Piyokong (8) - $147,982'
p3105
sg7
I0
sg8
I1
sg9
F0.052254361386392084
sg48
S'X'
sg10
F0
sg11
S'Piyokong'
p3106
sba(isaltybot
Fighter
p3107
(dp3108
g4
I0
sg5
S'Symbiote onslaught (3) - $1,555,437'
p3109
sg7
I1
sg8
I0
sg9
F13.147463801803781
sg48
S'S'
sg10
F0
sg11
S'Symbiote onslaught'
p3110
sba(isaltybot
Fighter
p3111
(dp3112
g4
I0
sg5
S'Mugetu (-4) - $118,307\r\n'
p3113
sg7
I0
sg8
I2
sg9
F0.13054595598050159
sg48
S'S'
sg10
F0
sg11
S'Mugetu'
p3114
sba(isaltybot
Fighter
p3115
(dp3116
g4
I0
sg5
S'Tane (5) - $382,755'
p3117
sg7
I1
sg8
I0
sg9
F4.4057115231879553
sg48
S'B'
sg10
F0
sg11
S'Tane'
p3118
sba(isaltybot
Fighter
p3119
(dp3120
g4
I0
sg5
S'Luigi NGPC (-4) - $86,877\r\n'
p3121
sg7
I0
sg8
I1
sg9
F0.22697809303601521
sg48
S'B'
sg10
F0
sg11
S'Luigi NGPC'
p3122
sba(isaltybot
Fighter
p3123
(dp3124
g4
I0
sg5
S'Batsu EX2 (3) - $97,584'
p3125
sg7
I0
sg8
I1
sg9
F0.25815121782170358
sg48
S'A'
sg10
F0
sg11
S'Batsu EX2'
p3126
sba(isaltybot
Fighter
p3127
(dp3128
g4
I0
sg5
S'Jimmy lee (-1) - $163,314'
p3129
sg7
I0
sg8
I1
sg9
F0.82873584216295215
sg48
S'A'
sg10
F0
sg11
S'Jimmy lee'
p3130
sba(isaltybot
Fighter
p3131
(dp3132
g4
I0
sg5
S"Evil ken ssf'2 plus (2) - $197,064\r\n"
p3133
sg7
I1
sg8
I0
sg9
F1.2066571145155958
sg48
S'A'
sg10
F0
sg11
S"Evil ken ssf'2 plus"
p3134
sba(isaltybot
Fighter
p3135
(dp3136
g4
I0
sg5
S'Tony Chopper (1) - $290,211'
p3137
sg7
I1
sg8
I0
sg9
F2.3820197974292889
sg48
S'B'
sg10
F0
sg11
S'Tony Chopper'
p3138
sba(isaltybot
Fighter
p3139
(dp3140
g4
I0
sg5
S'Guile cvs2 (-1) - $121,834\r\n'
p3141
sg7
I0
sg8
I1
sg9
F0.41981179210987868
sg48
S'B'
sg10
F0
sg11
S'Guile cvs2'
p3142
sba(isaltybot
Fighter
p3143
(dp3144
g4
I0
sg5
S'Super sonic EX3 (1) - $117,418'
p3145
sg7
I0
sg8
I1
sg9
F0.2734836098029077
sg48
S'A'
sg10
F0
sg11
S'Super sonic EX3'
p3146
sba(isaltybot
Fighter
p3147
(dp3148
g4
I0
sg5
S'Ramon 71113 (-3) - $429,342\r\n'
p3149
sg7
I1
sg8
I0
sg9
F3.6565262566216425
sg48
S'A'
sg10
F0
sg11
S'Ramon 71113'
p3150
sba(isaltybot
Fighter
p3151
(dp3152
g4
I0
sg5
S'Porygon-z EX2 (-3) - $86,366'
p3153
sg7
I0
sg8
I1
sg9
F0.21329362139307906
sg48
S'A'
sg10
F0
sg11
S'Porygon-z EX2'
p3154
sba(isaltybot
Fighter
p3155
(dp3156
g4
I0
sg5
S'Jyubei yagyu (-1) - $404,916\r\n'
p3157
sg7
I1
sg8
I0
sg9
F4.6883727392723991
sg48
S'A'
sg10
F0
sg11
S'Jyubei yagyu'
p3158
sba(isaltybot
Fighter
p3159
(dp3160
g4
I0
sg5
S'Saizo_hattori (1) - $170,758'
p3161
sg7
I0
sg8
I1
sg9
F1.078255927761816
sg48
S'B'
sg10
F0
sg11
S'Saizo_hattori'
p3162
sba(isaltybot
Fighter
p3163
(dp3164
g4
I0
sg5
S'Thing (2) - $158,365\r\n'
p3165
sg7
I1
sg8
I1
sg9
F1.292912785942536
sg48
S'B'
sg10
F0
sg11
S'Thing'
p3166
sba(isaltybot
Fighter
p3167
(dp3168
g4
I0
sg5
S'Ironman (6) - $433,296'
p3169
sg7
I2
sg8
I1
sg9
F8.4856118722930045
sg48
S'B'
sg10
F0
sg11
S'Ironman'
p3170
sba(isaltybot
Fighter
p3171
(dp3172
g4
I0
sg5
S'Sakura Cosplay (-1) - $76,289\r\n'
p3173
sg7
I0
sg8
I1
sg9
F0.17606670728555077
sg48
S'B'
sg10
F0
sg11
S'Sakura Cosplay'
p3174
sba(isaltybot
Fighter
p3175
(dp3176
g4
I0
sg5
S'Cci jhun (1) - $112,273\r\n'
p3177
sg7
I0
sg8
I1
sg9
F0.036217529047927348
sg48
S'B'
sg10
F0
sg11
S'Cci jhun'
p3178
sba(isaltybot
Fighter
p3179
(dp3180
g4
I0
sg5
S'Guile (-6) - $161,118'
p3181
sg7
I0
sg8
I1
sg9
F1.9019725891560719
sg48
S'B'
sg10
F0
sg11
S'Guile'
p3182
sba(isaltybot
Fighter
p3183
(dp3184
g4
I0
sg5
S'Psychopath kyo (-1) - $338,435\r\n'
p3185
sg7
I1
sg8
I1
sg9
F2.9819974860202407
sg48
S'B'
sg10
F0
sg11
S'Psychopath kyo'
p3186
sba(isaltybot
Fighter
p3187
(dp3188
g4
I0
sg5
S'Krauser (5) - $593,498'
p3189
sg7
I2
sg8
I1
sg9
F5.5358417506907829
sg48
S'B'
sg10
F0
sg11
S'Krauser'
p3190
sba(isaltybot
Fighter
p3191
(dp3192
g4
I0
sg5
S'Mo-mo- (-1) - $179,088\r\n'
p3193
sg7
I0
sg8
I1
sg9
F0.30174996377409863
sg48
S'B'
sg10
F0
sg11
S'Mo-mo-'
p3194
sba(isaltybot
Fighter
p3195
(dp3196
g4
I0
sg5
S'Uchiha sasuke (2) - $176,002'
p3197
sg7
I0
sg8
I2
sg9
F0.61366593572163985
sg48
S'B'
sg10
F0
sg11
S'Uchiha sasuke'
p3198
sba(isaltybot
Fighter
p3199
(dp3200
g4
I0
sg5
S'Konata EX (1) - $616,873\r\n'
p3201
sg7
I1
sg8
I1
sg9
F4.4781702392826093
sg48
S'B'
sg10
F0
sg11
S'Konata EX'
p3202
sba(isaltybot
Fighter
p3203
(dp3204
g4
I0
sg5
S'Spider-man (1) - $633,828'
p3205
sg7
I3
sg8
I1
sg9
F5.0745583470260485
sg48
S'B'
sg10
F0
sg11
S'Spider-man'
p3206
sba(isaltybot
Fighter
p3207
(dp3208
g4
I0
sg5
S'Krayce (-2) - $183,988\r\n'
p3209
sg7
I0
sg8
I1
sg9
F0.2902806439601911
sg48
S'B'
sg10
F0
sg11
S'Krayce'
p3210
sba(isaltybot
Fighter
p3211
(dp3212
g4
I0
sg5
S'The flash- $1,160,435'
p3213
sg7
I1
sg8
I0
sg9
F7.3762712941774726
sg48
g1626
sg10
F0
sg11
S'The flash'
p3214
sba(isaltybot
Fighter
p3215
(dp3216
g4
I0
sg5
S'Green arrow- $157,320\r\n'
p3217
sg7
I0
sg8
I1
sg9
F0.13556985096106203
sg48
g1626
sg10
F0
sg11
S'Green arrow'
p3218
sba(isaltybot
Fighter
p3219
(dp3220
g4
I0
sg5
S'Requiem giorno(amaai)- $1,206,704'
p3221
sg7
I1
sg8
I0
sg9
F7.0820949832147804
sg48
S'B'
sg10
F0
sg11
S'Requiem giorno(amaai)'
p3222
sba(isaltybot
Fighter
p3223
(dp3224
g4
I0
sg5
S'The world-dio- $170,388\r\n'
p3225
sg7
I0
sg8
I1
sg9
F0.14120115620732177
sg48
S'B'
sg10
F0
sg11
S'The world-dio'
p3226
sba(isaltybot
Fighter
p3227
(dp3228
g4
I0
sg5
S'Virginia- $97,589'
p3229
sg7
I0
sg8
I1
sg9
F0.11169227141992215
sg48
g1626
sg10
F0
sg11
S'Virginia'
p3230
sba(isaltybot
Fighter
p3231
(dp3232
g4
I0
sg5
S'Ultrassjgoku- $873,731\r\n'
p3233
sg7
I1
sg8
I1
sg9
F16.701279884221933
sg48
S'S'
sg10
F0
sg11
S'Ultrassjgoku'
p3234
sba(isaltybot
Fighter
p3235
(dp3236
g4
I0
sg5
S'Zeroko EX3- $136,969\r\n'
p3237
sg7
I0
sg8
I1
sg9
F0.59712964133595492
sg48
g1626
sg10
F0
sg11
S'Zeroko EX3'
p3238
sba(isaltybot
Fighter
p3239
(dp3240
g4
I0
sg5
S'Holy flandre- $622,363\r\n'
p3241
sg7
I1
sg8
I0
sg9
F5.1972726058055247
sg48
S'S'
sg10
F0
sg11
S'Holy flandre'
p3242
sba(isaltybot
Fighter
p3243
(dp3244
g4
I0
sg5
S'Krillin UB22- $97,893\r\n'
p3245
sg7
I0
sg8
I1
sg9
F0.45511941346301366
sg48
g1626
sg10
F0
sg11
S'Krillin UB22'
p3246
sba(isaltybot
Fighter
p3247
(dp3248
g4
I0
sg5
S'Crazy rugal- $1,070,328'
p3249
sg7
I1
sg8
I0
sg9
F19.343393634901414
sg48
S'S'
sg10
F0
sg11
S'Crazy rugal'
p3250
sba(isaltybot
Fighter
p3251
(dp3252
g4
I0
sg5
S'S.sinclair EX- $55,333\r\n'
p3253
sg7
I1
sg8
I1
sg9
F2.121845764551137
sg48
S'S'
sg10
F0
sg11
S'S.sinclair EX'
p3254
sba(isaltybot
Fighter
p3255
(dp3256
g4
I0
sg5
S'God alosson- $494,841\r\n'
p3257
sg7
I0
sg8
I1
sg9
F0.22267516554130826
sg48
S'S'
sg10
F0
sg11
S'God alosson'
p3258
sba(isaltybot
Fighter
p3259
(dp3260
g4
I0
sg5
S'Judith (7) - $331,530'
p3261
sg7
I1
sg8
I0
sg9
F2.4375772013410977
sg48
S'B'
sg10
F0
sg11
S'Judith'
p3262
sba(isaltybot
Fighter
p3263
(dp3264
g4
I0
sg5
S'Mongori EX (3) - $136,008\r\n'
p3265
sg7
I0
sg8
I1
sg9
F0.41024341688534977
sg48
S'B'
sg10
F0
sg11
S'Mongori EX'
p3266
sba(isaltybot
Fighter
p3267
(dp3268
g4
I0
sg5
S'Yaridovich (1) - $60,823'
p3269
sg7
I0
sg8
I1
sg9
F0.082331426529391225
sg48
S'S'
sg10
F0
sg11
S'Yaridovich'
p3270
sba(isaltybot
Fighter
p3271
(dp3272
g4
I0
sg5
S'Shanghai (1) - $738,758\r\n'
p3273
sg7
I1
sg8
I0
sg9
F12.146030284596288
sg48
S'S'
sg10
F0
sg11
S'Shanghai'
p3274
sba(isaltybot
Fighter
p3275
(dp3276
g4
I0
sg5
S'Sagat (-1) - $520,693\r\n'
p3277
sg7
I0
sg8
I1
sg9
F1.3912638039432585
sg48
S'A'
sg10
F0
sg11
S'Sagat'
p3278
sba(isaltybot
Fighter
p3279
(dp3280
g4
I0
sg5
S'Eddie (2) - $111,885'
p3281
sg7
I0
sg8
I1
sg9
F0.53349958754333182
sg48
S'A'
sg10
F0
sg11
S'Eddie'
p3282
sba(isaltybot
Fighter
p3283
(dp3284
g4
I0
sg5
S'Light (1) - $194,828'
p3285
sg7
I1
sg8
I0
sg9
F1.4556131673714567
sg48
S'S'
sg10
F0
sg11
S'Light'
p3286
sba(isaltybot
Fighter
p3287
(dp3288
g4
I0
sg5
S'Minoriko(ai) (4) - $133,846\r\n'
p3289
sg7
I0
sg8
I1
sg9
F0.68699570903566221
sg48
S'S'
sg10
F0
sg11
S'Minoriko(ai)'
p3290
sba(isaltybot
Fighter
p3291
(dp3292
g4
I0
sg5
S'Adler-a (-2) - $76,959'
p3293
sg7
I0
sg8
I2
sg9
F0.40194252005734987
sg48
S'A'
sg10
F0
sg11
S'Adler-a'
p3294
sba(isaltybot
Fighter
p3295
(dp3296
g4
I0
sg5
S'Double_sword (4) - $379,797\r\n'
p3297
sg7
I1
sg8
I0
sg9
F4.9350563286944995
sg48
S'A'
sg10
F0
sg11
S'Double_sword'
p3298
sba(isaltybot
Fighter
p3299
(dp3300
g4
I0
sg5
S'Ichigo EX (-1) - $191,067'
p3301
sg7
I0
sg8
I1
sg9
F1.102400775448739
sg48
S'S'
sg10
F0
sg11
S'Ichigo EX'
p3302
sba(isaltybot
Fighter
p3303
(dp3304
g4
I0
sg5
S'C3po & r2d2 (1) - $173,319\r\n'
p3305
sg7
I1
sg8
I0
sg9
F0.90711111808946598
sg48
S'S'
sg10
F0
sg11
S'C3po & r2d2'
p3306
sba(isaltybot
Fighter
p3307
(dp3308
g4
I0
sg5
S'John crawley (1) - $50,545\r\n'
p3309
sg7
I0
sg8
I1
sg9
F0.21595074725068145
sg48
S'B'
sg10
F0
sg11
S'John crawley'
p3310
sba(isaltybot
Fighter
p3311
(dp3312
g4
I0
sg5
S'Tokiko (-1) - $316,705\r\n'
p3313
sg7
I1
sg8
I0
sg9
F1.8457508188313732
sg48
S'A'
sg10
F0
sg11
S'Tokiko'
p3314
sba(isaltybot
Fighter
p3315
(dp3316
g4
I0
sg5
S'Card hero (-1) - $100,647'
p3317
sg7
I1
sg8
I0
sg9
F0.37529084509142979
sg48
S'A'
sg10
F0
sg11
S'Card hero'
p3318
sba(isaltybot
Fighter
p3319
(dp3320
g4
I0
sg5
S'Ultraman tiga_a (4) - $138,811\r\n'
p3321
sg7
I1
sg8
I0
sg9
F0.33128326292928567
sg48
S'B'
sg10
F0
sg11
S'Ultraman tiga_a'
p3322
sba(isaltybot
Fighter
p3323
(dp3324
g4
I0
sg5
S'Another clone ash (1) - $945,387\r\n'
p3325
sg7
I1
sg8
I0
sg9
F9.4810807016136316
sg48
S'S'
sg10
F0
sg11
S'Another clone ash'
p3326
sba(isaltybot
Fighter
p3327
(dp3328
g4
I0
sg5
S'Animus EX3 (-3) - $244,469'
p3329
sg7
I0
sg8
I1
sg9
F3.316722743799859
sg48
S'S'
sg10
F0
sg11
S'Animus EX3'
p3330
sba(isaltybot
Fighter
p3331
(dp3332
g4
I0
sg5
S'Ortega ex (2) - $99,599'
p3333
sg7
I1
sg8
I0
sg9
F0.85760659915960602
sg48
S'A'
sg10
F0
sg11
S'Ortega ex'
p3334
sba(isaltybot
Fighter
p3335
(dp3336
g4
I0
sg5
S'King 13 (-1) - $116,136\r\n'
p3337
sg7
I0
sg8
I1
sg9
F1.1660358035723251
sg48
S'A'
sg10
F0
sg11
S'King 13'
p3338
sba(isaltybot
Fighter
p3339
(dp3340
g4
I0
sg5
S'Iria (-2) - $134,275'
p3341
sg7
I0
sg8
I1
sg9
F1.0705259549227053
sg48
S'A'
sg10
F0
sg11
S'Iria'
p3342
sba(isaltybot
Fighter
p3343
(dp3344
g4
I0
sg5
S'Kyoshiro ex (1) - $125,429\r\n'
p3345
sg7
I1
sg8
I0
sg9
F0.93412027555390054
sg48
S'A'
sg10
F0
sg11
S'Kyoshiro ex'
p3346
sba(isaltybot
Fighter
p3347
(dp3348
g4
I0
sg5
S'Cheddah gief (1) - $386,126\r\n'
p3349
sg7
I1
sg8
I0
sg9
F5.0172949232708328
sg48
S'A'
sg10
F0
sg11
S'Cheddah gief'
p3350
sba(isaltybot
Fighter
p3351
(dp3352
g4
I0
sg5
S'Cheng_fu (3) - $256,522'
p3353
sg7
I0
sg8
I1
sg9
F0.88770231128859789
sg48
S'B'
sg10
F0
sg11
S'Cheng_fu'
p3354
sba(isaltybot
Fighter
p3355
(dp3356
g4
I0
sg5
S'Usapi- (-1) - $288,973\r\n'
p3357
sg7
I1
sg8
I0
sg9
F1.1265037696571834
sg48
S'B'
sg10
F0
sg11
S'Usapi-'
p3358
sba(isaltybot
Fighter
p3359
(dp3360
g4
I0
sg5
S'Mohikan (-1) - $89,750'
p3361
sg7
I1
sg8
I1
sg9
F0.49404387046643533
sg48
S'A'
sg10
F0
sg11
S'Mohikan'
p3362
sba(isaltybot
Fighter
p3363
(dp3364
g4
I0
sg5
S'Astro (9) - $691,589\r\n'
p3365
sg7
I1
sg8
I0
sg9
F7.7057270194986076
sg48
S'A'
sg10
F0
sg11
S'Astro'
p3366
sba(isaltybot
Fighter
p3367
(dp3368
g4
I0
sg5
S'Mashiro (1) - $348,649'
p3369
sg7
I1
sg8
I0
sg9
F5.0476169793838315
sg48
S'S'
sg10
F0
sg11
S'Mashiro'
p3370
sba(isaltybot
Fighter
p3371
(dp3372
g4
I0
sg5
S'Hitsugaya (2) - $69,072\r\n'
p3373
sg7
I0
sg8
I1
sg9
F0.19811328872304237
sg48
S'S'
sg10
F0
sg11
S'Hitsugaya'
p3374
sba(isaltybot
Fighter
p3375
(dp3376
g4
I0
sg5
S'Anthony hawk (-1) - $600,355'
p3377
sg7
I1
sg8
I0
sg9
F11.926713947990544
sg48
S'B'
sg10
F0
sg11
S'Anthony hawk'
p3378
sba(isaltybot
Fighter
p3379
(dp3380
g4
I0
sg5
S'Ken X (-1) - $50,337\r\n'
p3381
sg7
I0
sg8
I1
sg9
F0.083845391476709608
sg48
S'B'
sg10
F0
sg11
S'Ken X'
p3382
sba(isaltybot
Fighter
p3383
(dp3384
g4
I0
sg5
S'Negativezero (-1) - $574,777'
p3385
sg7
I0
sg8
I1
sg9
F3.7684117357810196
sg48
S'S'
sg10
F0
sg11
S'Negativezero'
p3386
sba(isaltybot
Fighter
p3387
(dp3388
g4
I0
sg5
S'Omega_rugal (3) - $152,525\r\n'
p3389
sg7
I1
sg8
I0
sg9
F0.26536378456340459
sg48
S'S'
sg10
F0
sg11
S'Omega_rugal'
p3390
sba(isaltybot
Fighter
p3391
(dp3392
g4
I0
sg5
S'Psychotic ryu (-2) - $172,403'
p3393
sg7
I0
sg8
I1
sg9
F0.25666666666666665
sg48
S'S'
sg10
F0
sg11
S'Psychotic ryu'
p3394
sba(isaltybot
Fighter
p3395
(dp3396
g4
I0
sg5
S'Rouwe EX3 (3) - $671,700\r\n'
p3397
sg7
I1
sg8
I0
sg9
F3.8961038961038961
sg48
S'S'
sg10
F0
sg11
S'Rouwe EX3'
p3398
sba(isaltybot
Fighter
p3399
(dp3400
g4
I0
sg5
S'Hisui (-3) - $88,061'
p3401
sg7
I0
sg8
I1
sg9
F0.16220811252392295
sg48
S'S'
sg10
F0
sg11
S'Hisui'
p3402
sba(isaltybot
Fighter
p3403
(dp3404
g4
I0
sg5
S'Lord slug (2) - $54,850\r\n'
p3405
sg7
I0
sg8
I1
sg9
F0.059209219582545318
sg48
S'B'
sg10
F0
sg11
S'Lord slug'
p3406
sba(isaltybot
Fighter
p3407
(dp3408
g4
I0
sg5
S'Assiette (-1) - $268,082\r\n'
p3409
sg7
I0
sg8
I1
sg9
F0.68089159356093898
sg48
S'S'
sg10
F0
sg11
S'Assiette'
p3410
sba(isaltybot
Fighter
p3411
(dp3412
g4
I0
sg5
S'Rosemary (1) - $300,687'
p3413
sg7
I0
sg8
I1
sg9
F1.1200189223216348
sg48
S'B'
sg10
F0
sg11
S'Rosemary'
p3414
sba(isaltybot
Fighter
p3415
(dp3416
g4
I0
sg5
S'Kangaroo (-3) - $268,466\r\n'
p3417
sg7
I1
sg8
I0
sg9
F0.8928420583530382
sg48
S'B'
sg10
F0
sg11
S'Kangaroo'
p3418
sba(isaltybot
Fighter
p3419
(dp3420
g4
I0
sg5
S'Gowcaizer (2) - $164,795'
p3421
sg7
I0
sg8
I1
sg9
F1.1138936767041807
sg48
S'A'
sg10
F0
sg11
S'Gowcaizer'
p3422
sba(isaltybot
Fighter
p3423
(dp3424
g4
I0
sg5
S'Ryoko asakura (-2) - $147,945\r\n'
p3425
sg7
I1
sg8
I0
sg9
F0.89775175217694714
sg48
S'A'
sg10
F0
sg11
S'Ryoko asakura'
p3426
sba(isaltybot
Fighter
p3427
(dp3428
g4
I0
sg5
S'Knyacki (7) - $644,526'
p3429
sg7
I1
sg8
I0
sg9
F17.589814966431963
sg48
S'B'
sg10
F0
sg11
S'Knyacki'
p3430
sba(isaltybot
Fighter
p3431
(dp3432
g4
I0
sg5
S'Q-mantha (1) - $123,944'
p3433
sg7
I1
sg8
I0
sg9
F0.62986715994674203
sg48
S'B'
sg10
F0
sg11
S'Q-mantha'
p3434
sba(isaltybot
Fighter
p3435
(dp3436
g4
I0
sg5
S'Red skull (5) - $196,778\r\n'
p3437
sg7
I0
sg8
I1
sg9
F1.5876363519008585
sg48
S'B'
sg10
F0
sg11
S'Red skull'
p3438
sba(isaltybot
Fighter
p3439
(dp3440
g4
I0
sg5
S'Storm-owl (5) - $281,317'
p3441
sg7
I0
sg8
I1
sg9
F0.88260467159238865
sg48
S'S'
sg10
F0
sg11
S'Storm-owl'
p3442
sba(isaltybot
Fighter
p3443
(dp3444
g4
I0
sg5
S'Haruka_amami (-3) - $228,722'
p3445
sg7
I1
sg8
I0
sg9
F2.1598330468941813
sg48
S'S'
sg10
F0
sg11
S'Haruka_amami'
p3446
sba(isaltybot
Fighter
p3447
(dp3448
g4
I0
sg5
S'Lio convoy (0) - $246,383'
p3449
sg7
I0
sg8
I1
sg9
F2.7452144846796656
sg48
S'A'
sg10
F0
sg11
S'Lio convoy'
p3450
sba(isaltybot
Fighter
p3451
(dp3452
g4
I0
sg5
S'Chrysalis EX (-3) - $160,182'
p3453
sg7
I0
sg8
I1
sg9
F0.98035999534858098
sg48
S'S'
sg10
F0
sg11
S'Chrysalis EX'
p3454
sba(isaltybot
Fighter
p3455
(dp3456
g4
I0
sg5
S'Perfect cell EX3 (1) - $163,391\r\n'
p3457
sg7
I1
sg8
I0
sg9
F1.0200334619370466
sg48
S'S'
sg10
F0
sg11
S'Perfect cell EX3'
p3458
sba(isaltybot
Fighter
p3459
(dp3460
g4
I0
sg5
S'Jinmen (1) - $160,400'
p3461
sg7
I0
sg8
I1
sg9
F0.1182329336214954
sg48
S'B'
sg10
F0
sg11
S'Jinmen'
p3462
sba(isaltybot
Fighter
p3463
(dp3464
g4
I0
sg5
S'Tamara (5) - $250,226'
p3465
sg7
I1
sg8
I0
sg9
F5.354604010185958
sg48
S'B'
sg10
F0
sg11
S'Tamara'
p3466
sba(isaltybot
Fighter
p3467
(dp3468
g4
I0
sg5
S'Kasumi wpr (6) - $46,731\r\n'
p3469
sg7
I0
sg8
I1
sg9
F0.18675517332331573
sg48
S'B'
sg10
F0
sg11
S'Kasumi wpr'
p3470
sba(isaltybot
Fighter
p3471
(dp3472
g4
I0
sg5
S'Claus (-1) - $78,932'
p3473
sg7
I0
sg8
I1
sg9
F0.80949255445707013
sg48
S'S'
sg10
F0
sg11
S'Claus'
p3474
sba(isaltybot
Fighter
p3475
(dp3476
g4
I0
sg5
S'Desperado+ (-2) - $97,508\r\n'
p3477
sg7
I1
sg8
I0
sg9
F1.2353418132063041
sg48
S'S'
sg10
F0
sg11
S'Desperado+'
p3478
sba(isaltybot
Fighter
p3479
(dp3480
g4
I0
sg5
S'Pepe EX3 (-1) - $69,298'
p3481
sg7
I0
sg8
I1
sg9
F0.086059456009060717
sg48
S'S'
sg10
F0
sg11
S'Pepe EX3'
p3482
sba(isaltybot
Fighter
p3483
(dp3484
g4
I0
sg5
S'Shinjuro (-1) - $805,234\r\n'
p3485
sg7
I2
sg8
I0
sg9
F14.623917611063135
sg48
S'S'
sg10
F0
sg11
S'Shinjuro'
p3486
sba(isaltybot
Fighter
p3487
(dp3488
g4
I0
sg5
S'Zankuro (2) - $287,151\r\n'
p3489
sg7
I1
sg8
I0
sg9
F0.36806680680885973
sg48
S'S'
sg10
F0
sg11
S'Zankuro'
p3490
sba(isaltybot
Fighter
p3491
(dp3492
g4
I0
sg5
S'Thawk sfa (2) - $280,878\r\n'
p3493
sg7
I1
sg8
I0
sg9
F6.1814300490767842
sg48
S'B'
sg10
F0
sg11
S'Thawk sfa'
p3494
sba(isaltybot
Fighter
p3495
(dp3496
g4
I0
sg5
S'Taideo EX (-1) - $197,485'
p3497
sg7
I1
sg8
I0
sg9
F4.6889617019255878
sg48
S'A'
sg10
F0
sg11
S'Taideo EX'
p3498
sba(isaltybot
Fighter
p3499
(dp3500
g4
I0
sg5
S'Sakazaki ryo (1) - $42,117\r\n'
p3501
sg7
I0
sg8
I1
sg9
F0.21326683039218169
sg48
S'A'
sg10
F0
sg11
S'Sakazaki ryo'
p3502
sba(isaltybot
Fighter
p3503
(dp3504
g4
I0
sg5
S'Tizoc (1) - $220,320'
p3505
sg7
I0
sg8
I1
sg9
F4.7238421955403087
sg48
S'B'
sg10
F0
sg11
S'Tizoc'
p3506
sba(isaltybot
Fighter
p3507
(dp3508
g4
I0
sg5
S'Roa EX3 (1) - $46,640\r\n'
p3509
sg7
I1
sg8
I0
sg9
F0.21169208424110386
sg48
S'B'
sg10
F0
sg11
S'Roa EX3'
p3510
sba(isaltybot
Fighter
p3511
(dp3512
g4
I0
sg5
S'Mai_k (1) - $181,651'
p3513
sg7
I1
sg8
I0
sg9
F2.1536920231433179
sg48
S'S'
sg10
F0
sg11
S'Mai_k'
p3514
sba(isaltybot
Fighter
p3515
(dp3516
g4
I0
sg5
S'Suzushina yuriko (1) - $84,344\r\n'
p3517
sg7
I0
sg8
I1
sg9
F0.46431894126649453
sg48
S'S'
sg10
F0
sg11
S'Suzushina yuriko'
p3518
sba(isaltybot
Fighter
p3519
(dp3520
g4
I0
sg5
S'Dee bee kaw EX3 (4) - $270,603'
p3521
sg7
I1
sg8
I0
sg9
F3.8908811180767242
sg48
S'A'
sg10
F0
sg11
S'Dee bee kaw EX3'
p3522
sba(isaltybot
Fighter
p3523
(dp3524
g4
I0
sg5
S'Tamao mitsurugi (3) - $155,054'
p3525
sg7
I1
sg8
I0
sg9
F2.249115172613867
sg48
S'B'
sg10
F0
sg11
S'Tamao mitsurugi'
p3526
sba(isaltybot
Fighter
p3527
(dp3528
g4
I0
sg5
S'Jubei yamada (-1) - $68,940\r\n'
p3529
sg7
I0
sg8
I1
sg9
F0.44461929392340732
sg48
S'B'
sg10
F0
sg11
S'Jubei yamada'
p3530
sba(isaltybot
Fighter
p3531
(dp3532
g4
I0
sg5
S'Scorpion MK (-2) - $112,355'
p3533
sg7
I0
sg8
I1
sg9
F2.3665143121932726
sg48
S'B'
sg10
F0
sg11
S'Scorpion MK'
p3534
sba(isaltybot
Fighter
p3535
(dp3536
g4
I0
sg5
S'Dan hibiki (-7) - $47,477\r\n'
p3537
sg7
I1
sg8
I0
sg9
F0.42256241377775799
sg48
S'B'
sg10
F0
sg11
S'Dan hibiki'
p3538
sba(isaltybot
Fighter
p3539
(dp3540
g4
I0
sg5
S'Len and w. len (-5) - $211,165'
p3541
sg7
I0
sg8
I1
sg9
F2.5671059349850469
sg48
S'A'
sg10
F0
sg11
S'Len and w. len'
p3542
sba(isaltybot
Fighter
p3543
(dp3544
g4
I0
sg5
S'Shazzer EX3 (-1) - $82,258\r\n'
p3545
sg7
I1
sg8
I0
sg9
F0.38954372173418889
sg48
S'A'
sg10
F0
sg11
S'Shazzer EX3'
p3546
sba(isaltybot
Fighter
p3547
(dp3548
g4
I0
sg5
S'Sf4 vega (-1) - $122,170'
p3549
sg7
I0
sg8
I1
sg9
F0.51370136614204687
sg48
S'S'
sg10
F0
sg11
S'Sf4 vega'
p3550
sba(isaltybot
Fighter
p3551
(dp3552
g4
I0
sg5
S'Dai rai oh (-1) - $237,823\r\n'
p3553
sg7
I1
sg8
I0
sg9
F1.9466562986003111
sg48
S'S'
sg10
F0
sg11
S'Dai rai oh'
p3554
sba(isaltybot
Fighter
p3555
(dp3556
g4
I0
sg5
S'Sayia-f (-1) - $52,556'
p3557
sg7
I0
sg8
I1
sg9
F0.30673156610755098
sg48
S'A'
sg10
F0
sg11
S'Sayia-f'
p3558
sba(isaltybot
Fighter
p3559
(dp3560
g4
I0
sg5
S'Dios (1) - $171,342\r\n'
p3561
sg7
I1
sg8
I0
sg9
F3.2601796179313496
sg48
S'A'
sg10
F0
sg11
S'Dios'
p3562
sba(isaltybot
Fighter
p3563
(dp3564
g4
I0
sg5
S'Margaretha_solin (-3) - $33,805\r\n'
p3565
sg7
I0
sg8
I1
sg9
F0.010944982079433277
sg48
S'S'
sg10
F0
sg11
S'Margaretha_solin'
p3566
sba(isaltybot
Fighter
p3567
(dp3568
g4
I0
sg5
S'Gel (-1) - $107,158'
p3569
sg7
I1
sg8
I0
sg9
F1.5657904349986118
sg48
S'A'
sg10
F0
sg11
S'Gel'
p3570
sba(isaltybot
Fighter
p3571
(dp3572
g4
I0
sg5
S'Karate kenji dhq (1) - $68,437\r\n'
p3573
sg7
I0
sg8
I1
sg9
F0.63865507008342826
sg48
S'A'
sg10
F0
sg11
S'Karate kenji dhq'
p3574
sba(isaltybot
Fighter
p3575
(dp3576
g4
I0
sg5
S'Elza kanagusuku (1) - $107,554'
p3577
sg7
I1
sg8
I0
sg9
F3.0804525275669481
sg48
S'A'
sg10
F0
sg11
S'Elza kanagusuku'
p3578
sba(isaltybot
Fighter
p3579
(dp3580
g4
I0
sg5
S'Kain (-4) - $34,915\r\n'
p3581
sg7
I0
sg8
I1
sg9
F0.32462762891198838
sg48
S'A'
sg10
F0
sg11
S'Kain'
p3582
sba(isaltybot
Fighter
p3583
(dp3584
g4
I0
sg5
S'Ikaruga satuki (-1) - $184,847'
p3585
sg7
I0
sg8
I1
sg9
F1.8731202626565604
sg48
S'A'
sg10
F0
sg11
S'Ikaruga satuki'
p3586
sba(isaltybot
Fighter
p3587
(dp3588
g4
I0
sg5
S"K' (-1) - $98,684\r\n"
p3589
sg7
I1
sg8
I0
sg9
F0.53386855074737483
sg48
S'A'
sg10
F0
sg11
S"K'"
p3590
sba(isaltybot
Fighter
p3591
(dp3592
g4
I0
sg5
S'Popeye the sailor (-1) - $61,905'
p3593
sg7
I1
sg8
I0
sg9
F0.4092811382253575
sg48
S'B'
sg10
F0
sg11
S'Popeye the sailor'
p3594
sba(isaltybot
Fighter
p3595
(dp3596
g4
I0
sg5
S'Goblin (3) - $151,253\r\n'
p3597
sg7
I0
sg8
I1
sg9
F2.4433082949680962
sg48
S'B'
sg10
F0
sg11
S'Goblin'
p3598
sba(isaltybot
Fighter
p3599
(dp3600
g4
I0
sg5
S'Injya (-1) - $73,989\r\n'
p3601
sg7
I1
sg8
I0
sg9
F0.19769094708041873
sg48
S'S'
sg10
F0
sg11
S'Injya'
p3602
sba(isaltybot
Fighter
p3603
(dp3604
g4
I0
sg5
S'A-ko (-1) - $62,669'
p3605
sg7
I0
sg8
I1
sg9
F0.1552277180145793
sg48
S'S'
sg10
F0
sg11
S'A-ko'
p3606
sba(isaltybot
Fighter
p3607
(dp3608
g4
I0
sg5
S'Faust(ac) (3) - $403,723\r\n'
p3609
sg7
I1
sg8
I0
sg9
F6.4421484306435399
sg48
S'S'
sg10
F0
sg11
S'Faust(ac)'
p3610
sba(isaltybot
Fighter
p3611
(dp3612
g4
I0
sg5
S'Darth vader (-1) - $342,932'
p3613
sg7
I0
sg8
I1
sg9
F6.3726608811997103
sg48
S'A'
sg10
F0
sg11
S'Darth vader'
p3614
sba(isaltybot
Fighter
p3615
(dp3616
g4
I0
sg5
S'Melusine (-5) - $53,813\r\n'
p3617
sg7
I1
sg8
I0
sg9
F0.15692032239627682
sg48
S'A'
sg10
F0
sg11
S'Melusine'
p3618
sba(isaltybot
Fighter
p3619
(dp3620
g4
I0
sg5
S'Rock EX3 (1) - $124,042'
p3621
sg7
I0
sg8
I1
sg9
F0.36872926600159334
sg48
S'A'
sg10
F0
sg11
S'Rock EX3'
p3622
sba(isaltybot
Fighter
p3623
(dp3624
g4
I0
sg5
S'Akai maho (1) - $336,404\r\n'
p3625
sg7
I1
sg8
I0
sg9
F2.7120168975024588
sg48
S'A'
sg10
F0
sg11
S'Akai maho'
p3626
sba(isaltybot
Fighter
p3627
(dp3628
g4
I0
sg5
S'Noel (-6) - $97,264'
p3629
sg7
I0
sg8
I1
sg9
F0.3441828205835934
sg48
S'B'
sg10
F0
sg11
S'Noel'
p3630
sba(isaltybot
Fighter
p3631
(dp3632
g4
I0
sg5
S'Kouma kishima (-2) - $282,594\r\n'
p3633
sg7
I1
sg8
I0
sg9
F2.9054326369468662
sg48
S'B'
sg10
F0
sg11
S'Kouma kishima'
p3634
sba(isaltybot
Fighter
p3635
(dp3636
g4
I0
sg5
S'Ace (-1) - $287,573'
p3637
sg7
I0
sg8
I1
sg9
F4.0599305398689856
sg48
S'A'
sg10
F0
sg11
S'Ace'
p3638
sba(isaltybot
Fighter
p3639
(dp3640
g4
I0
sg5
S'Paragus (-3) - $70,832\r\n'
p3641
sg7
I1
sg8
I0
sg9
F0.24630963268457054
sg48
S'A'
sg10
F0
sg11
S'Paragus'
p3642
sba(isaltybot
Fighter
p3643
(dp3644
g4
I0
sg5
S'Balrog f (1) - $129,937\r\n'
p3645
sg7
I0
sg8
I1
sg9
F0.33654152475427035
sg48
S'S'
sg10
F0
sg11
S'Balrog f'
p3646
sba(isaltybot
Fighter
p3647
(dp3648
g4
I0
sg5
S'Nanaya_s (0) - $83,784'
p3649
sg7
I0
sg8
I1
sg9
F0.14224039142252276
sg48
S'S'
sg10
F0
sg11
S'Nanaya_s'
p3650
sba(isaltybot
Fighter
p3651
(dp3652
g4
I0
sg5
S'Physalis (5) - $589,031\r\n'
p3653
sg7
I1
sg8
I0
sg9
F7.0303518571564974
sg48
S'S'
sg10
F0
sg11
S'Physalis'
p3654
sba(isaltybot
Fighter
p3655
(dp3656
g4
I0
sg5
S'Hugo EX (2) - $136,697'
p3657
sg7
I0
sg8
I1
sg9
F2.948089199447895
sg48
S'S'
sg10
F0
sg11
S'Hugo EX'
p3658
sba(isaltybot
Fighter
p3659
(dp3660
g4
I0
sg5
S'Klaus garcia (-4) - $46,368\r\n'
p3661
sg7
I1
sg8
I0
sg9
F0.33920276231373037
sg48
S'S'
sg10
F0
sg11
S'Klaus garcia'
p3662
sba(isaltybot
Fighter
p3663
(dp3664
g4
I0
sg5
S'Burnov (1) - $99,309'
p3665
sg7
I0
sg8
I1
sg9
F0.85661422213021421
sg48
S'A'
sg10
F0
sg11
S'Burnov'
p3666
sba(isaltybot
Fighter
p3667
(dp3668
g4
I0
sg5
S'Tenko (1) - $115,932\r\n'
p3669
sg7
I1
sg8
I0
sg9
F1.1673866416941063
sg48
S'A'
sg10
F0
sg11
S'Tenko'
p3670
sba(isaltybot
Fighter
p3671
(dp3672
g4
I0
sg5
S'Gh-golden silver (-5) - $21,855\r\n'
p3673
sg7
I0
sg8
I1
sg9
F0.50538803070946259
sg48
S'S'
sg10
F0
sg11
S'Gh-golden silver'
p3674
sba(isaltybot
Fighter
p3675
(dp3676
g4
I0
sg5
S'Ryo(mkii) (1) - $156,237'
p3677
sg7
I0
sg8
I1
sg9
F1.0745249344915098
sg48
S'S'
sg10
F0
sg11
S'Ryo(mkii)'
p3678
sba(isaltybot
Fighter
p3679
(dp3680
g4
I0
sg5
S'Joker_nanaya (1) - $145,401\r\n'
p3681
sg7
I1
sg8
I0
sg9
F0.93064382956661995
sg48
S'S'
sg10
F0
sg11
S'Joker_nanaya'
p3682
sba(isaltybot
Fighter
p3683
(dp3684
g4
I0
sg5
S'Alakazam (-3) - $82,248'
p3685
sg7
I0
sg8
I1
sg9
F0.1676905041031653
sg48
S'A'
sg10
F0
sg11
S'Alakazam'
p3686
sba(isaltybot
Fighter
p3687
(dp3688
g4
I0
sg5
S'Ultron (-1) - $490,475\r\n'
p3689
sg7
I1
sg8
I0
sg9
F5.9633668903803132
sg48
S'A'
sg10
F0
sg11
S'Ultron'
p3690
sba(isaltybot
Fighter
p3691
(dp3692
g4
I0
sg5
S'Mars people EX3 (1) - $36,522'
p3693
sg7
I1
sg8
I0
sg9
F0.22302966645089586
sg48
S'B'
sg10
F0
sg11
S'Mars people EX3'
p3694
sba(isaltybot
Fighter
p3695
(dp3696
g4
I0
sg5
S'Genteki dan (5) - $163,754\r\n'
p3697
sg7
I0
sg8
I1
sg9
F4.4837084497015498
sg48
S'B'
sg10
F0
sg11
S'Genteki dan'
p3698
sba(isaltybot
Fighter
p3699
(dp3700
g4
I0
sg5
S'Kill bill jhonny_mo (-4) - $34,992\r\n'
p3701
sg7
I0
sg8
I1
sg9
F0.082939281676420187
sg48
S'A'
sg10
F0
sg11
S'Kill bill jhonny_mo'
p3702
sba(isaltybot
Fighter
p3703
(dp3704
g4
I0
sg5
S'Fordy (-1) - $63,925\r\n'
p3705
sg7
I0
sg8
I1
sg9
F0.37028991803516087
sg48
S'A'
sg10
F0
sg11
S'Fordy'
p3706
sba(isaltybot
Fighter
p3707
(dp3708
g4
I0
sg5
S'Yuki morikawa (-1) - $57,999'
p3709
sg7
I2
sg8
I1
sg9
F0.82380442826845013
sg48
S'A'
sg10
F0
sg11
S'Yuki morikawa'
p3710
sba(isaltybot
Fighter
p3711
(dp3712
g4
I0
sg5
S'Zangief EX3 (1) - $189,882\r\n'
p3713
sg7
I0
sg8
I1
sg9
F3.2738840324833185
sg48
S'A'
sg10
F0
sg11
S'Zangief EX3'
p3714
sba(isaltybot
Fighter
p3715
(dp3716
g4
I0
sg5
S'Grimace (-1) - $146,055'
p3717
sg7
I1
sg8
I1
sg9
F1.73052337950187
sg48
S'A'
sg10
F0
sg11
S'Grimace'
p3718
sba(isaltybot
Fighter
p3719
(dp3720
g4
I0
sg5
S'Grebam (2) - $257,325\r\n'
p3721
sg7
I0
sg8
I1
sg9
F2.7590144424072824
sg48
S'A'
sg10
F0
sg11
S'Grebam'
p3722
sba(isaltybot
Fighter
p3723
(dp3724
g4
I0
sg5
S'Victor ortega (9) - $82,700'
p3725
sg7
I0
sg8
I1
sg9
F0.59763835291737122
sg48
S'A'
sg10
F0
sg11
S'Victor ortega'
p3726
sba(isaltybot
Fighter
p3727
(dp3728
g4
I0
sg5
S'Kouryu (6) - $138,378\r\n'
p3729
sg7
I1
sg8
I1
sg9
F3.1569286189048151
sg48
S'A'
sg10
F0
sg11
S'Kouryu'
p3730
sba(isaltybot
Fighter
p3731
(dp3732
g4
I0
sg5
S'Boss sagat (2) - $101,400'
p3733
sg7
I3
sg8
I1
sg9
F1.5373928115224595
sg48
S'A'
sg10
F0
sg11
S'Boss sagat'
p3734
sba(isaltybot
Fighter
p3735
(dp3736
g4
I0
sg5
S'Ika musume (1) - $216,446\r\n'
p3737
sg7
I0
sg8
I1
sg9
F2.1345759368836292
sg48
S'A'
sg10
F0
sg11
S'Ika musume'
p3738
sba(isaltybot
Fighter
p3739
(dp3740
g4
I0
sg5
S'Mad grinder (2) - $324,243'
p3741
sg7
I1
sg8
I1
sg9
F7.6203844765618305
sg48
S'A'
sg10
F0
sg11
S'Mad grinder'
p3742
sba(isaltybot
Fighter
p3743
(dp3744
g4
I0
sg5
S'Mr.karate EX3 (1) - $73,313\r\n'
p3745
sg7
I0
sg8
I1
sg9
F0.22610511252363197
sg48
S'A'
sg10
F0
sg11
S'Mr.karate EX3'
p3746
sba(isaltybot
Fighter
p3747
(dp3748
g4
I0
sg5
S'Neva (3) - $158,994'
p3749
sg7
I3
sg8
I0
sg9
F4.6139071238591738
sg48
S'A'
sg10
F0
sg11
S'Neva'
p3750
sba(isaltybot
Fighter
p3751
(dp3752
g4
I0
sg5
S'Keeper of k- $128,911'
p3753
sg7
I0
sg8
I1
sg9
F1.7426763819231341
sg48
S'A'
sg10
F0
sg11
S'Keeper of k'
p3754
sba(isaltybot
Fighter
p3755
(dp3756
g4
I0
sg5
S'Barts- $73,973\r\n'
p3757
sg7
I1
sg8
I0
sg9
F0.57383000674884221
sg48
S'A'
sg10
F0
sg11
S'Barts'
p3758
sba(isaltybot
Fighter
p3759
(dp3760
g4
I0
sg5
S'Wyler xi ver (3) - $330,290'
p3761
sg7
I1
sg8
I0
sg9
F1.549471531175673
sg48
S'A'
sg10
F0
sg11
S'Wyler xi ver'
p3762
sba(isaltybot
Fighter
p3763
(dp3764
g4
I0
sg5
S'Ryo fu (-2) - $213,163\r\n'
p3765
sg7
I0
sg8
I1
sg9
F0.64538133155711652
sg48
S'A'
sg10
F0
sg11
S'Ryo fu'
p3766
sba(isaltybot
Fighter
p3767
(dp3768
g4
I0
sg5
S'Doom vega (-3) - $450,124'
p3769
sg7
I1
sg8
I0
sg9
F2.284359997158024
sg48
S'B'
sg10
F0
sg11
S'Doom vega'
p3770
sba(isaltybot
Fighter
p3771
(dp3772
g4
I0
sg5
S'The red skull (-2) - $197,046\r\n'
p3773
sg7
I0
sg8
I1
sg9
F0.43775937297278084
sg48
S'B'
sg10
F0
sg11
S'The red skull'
p3774
sba(isaltybot
Fighter
p3775
(dp3776
g4
I0
sg5
S'Mahvel ken (2) - $1,055,334\r\n'
p3777
sg7
I1
sg8
I0
sg9
F5.0471749548050155
sg48
S'S'
sg10
F0
sg11
S'Mahvel ken'
p3778
sba(isaltybot
Fighter
p3779
(dp3780
g4
I0
sg5
S'Straight cougar (4) - $115,407\r\n'
p3781
sg7
I0
sg8
I1
sg9
F0.15958400053099253
sg48
S'A'
sg10
F0
sg11
S'Straight cougar'
p3782
sba(isaltybot
Fighter
p3783
(dp3784
g4
I0
sg5
S'Arena (4) - $202,652'
p3785
sg7
I0
sg8
I1
sg9
F0.70833071185398011
sg48
S'S'
sg10
F0
sg11
S'Arena'
p3786
sba(isaltybot
Fighter
p3787
(dp3788
g4
I0
sg5
S'Ryoko(mugen) (-1) - $286,098\r\n'
p3789
sg7
I1
sg8
I0
sg9
F1.4117699307186704
sg48
S'S'
sg10
F0
sg11
S'Ryoko(mugen)'
p3790
sba(isaltybot
Fighter
p3791
(dp3792
g4
I0
sg5
S'Original vega (-9) - $91,634\r\n'
p3793
sg7
I1
sg8
I0
sg9
F0.67109503163815332
sg48
S'S'
sg10
F0
sg11
S'Original vega'
p3794
sba(isaltybot
Fighter
p3795
(dp3796
g4
I0
sg5
S'Tanya (-5) - $142,406'
p3797
sg7
I0
sg8
I1
sg9
F0.15185178866192647
sg48
S'A'
sg10
F0
sg11
S'Tanya'
p3798
sba(isaltybot
Fighter
p3799
(dp3800
g4
I0
sg5
S'Shadow dio (2) - $937,796\r\n'
p3801
sg7
I1
sg8
I0
sg9
F6.5853685940199149
sg48
S'A'
sg10
F0
sg11
S'Shadow dio'
p3802
sba(isaltybot
Fighter
p3803
(dp3804
g4
I0
sg5
S'Broken (-5) - $268,050\r\n'
p3805
sg7
I0
sg8
I1
sg9
F0.33288460248822083
sg48
S'S'
sg10
F0
sg11
S'Broken'
p3806
sba(isaltybot
Fighter
p3807
(dp3808
g4
I0
sg5
S'Clown (7) - $578,371'
p3809
sg7
I1
sg8
I0
sg9
F2.655526425741165
sg48
S'B'
sg10
F0
sg11
S'Clown'
p3810
sba(isaltybot
Fighter
p3811
(dp3812
g4
I0
sg5
S'Ichigo Kurosaki (-4) - $217,799\r\n'
p3813
sg7
I0
sg8
I1
sg9
F0.37657316843341038
sg48
S'B'
sg10
F0
sg11
S'Ichigo Kurosaki'
p3814
sba(isaltybot
Fighter
p3815
(dp3816
g4
I0
sg5
S'Missingnumber (1) - $1,587,441'
p3817
sg7
I0
sg8
I1
sg9
F10.214732927088226
sg48
S'B'
sg10
F0
sg11
S'Missingnumber'
p3818
sba(isaltybot
Fighter
p3819
(dp3820
g4
I0
sg5
S'Kaigen EX3 (-1) - $155,407\r\n'
p3821
sg7
I1
sg8
I0
sg9
F0.097897811635204085
sg48
S'B'
sg10
F0
sg11
S'Kaigen EX3'
p3822
sba(isaltybot
Fighter
p3823
(dp3824
g4
I0
sg5
S'Harima (-2) - $481,705'
p3825
sg7
I0
sg8
I1
sg9
F1.8296300516560315
sg48
S'S'
sg10
F0
sg11
S'Harima'
p3826
sba(isaltybot
Fighter
p3827
(dp3828
g4
I0
sg5
S'Roy wilson (-1) - $263,280\r\n'
p3829
sg7
I1
sg8
I0
sg9
F0.54655857838303523
sg48
S'S'
sg10
F0
sg11
S'Roy wilson'
p3830
sba(isaltybot
Fighter
p3831
(dp3832
g4
I0
sg5
S'Raph (-1) - $125,773\r\n'
p3833
sg7
I0
sg8
I1
sg9
F0.97415382232205094
sg48
S'B'
sg10
F0
sg11
S'Raph'
p3834
sba(isaltybot
Fighter
p3835
(dp3836
g4
I0
sg5
S'Gikoneko (5) - $318,209'
p3837
sg7
I1
sg8
I0
sg9
F1.9932037557862032
sg48
S'B'
sg10
F0
sg11
S'Gikoneko'
p3838
sba(isaltybot
Fighter
p3839
(dp3840
g4
I0
sg5
S'Gotenks gt (1) - $159,647\r\n'
p3841
sg7
I0
sg8
I1
sg9
F0.50170485435672785
sg48
S'B'
sg10
F0
sg11
S'Gotenks gt'
p3842
sba(isaltybot
Fighter
p3843
(dp3844
g4
I0
sg5
S'Dorniar ex (-2) - $144,983'
p3845
sg7
I0
sg8
I1
sg9
F0.58163502736011041
sg48
S'S'
sg10
F0
sg11
S'Dorniar ex'
p3846
sba(isaltybot
Fighter
p3847
(dp3848
g4
I0
sg5
S'Emily (2) - $205,771'
p3849
sg7
I1
sg8
I0
sg9
F1.0742417123466459
sg48
S'S'
sg10
F0
sg11
S'Emily'
p3850
sba(isaltybot
Fighter
p3851
(dp3852
g4
I0
sg5
S'Doraemon EX3 (-5) - $191,550\r\n'
p3853
sg7
I0
sg8
I1
sg9
F0.93088919235460776
sg48
S'S'
sg10
F0
sg11
S'Doraemon EX3'
p3854
sba(isaltybot
Fighter
p3855
(dp3856
g4
I0
sg5
S'Geegus (-1) - $117,828'
p3857
sg7
I0
sg8
I1
sg9
F0.43910783162837497
sg48
S'B'
sg10
F0
sg11
S'Geegus'
p3858
sba(isaltybot
Fighter
p3859
(dp3860
g4
I0
sg5
S'Misuzu EX (1) - $268,335\r\n'
p3861
sg7
I1
sg8
I0
sg9
F2.2773449434769324
sg48
S'B'
sg10
F0
sg11
S'Misuzu EX'
p3862
sba(isaltybot
Fighter
p3863
(dp3864
g4
I0
sg5
S'Clonekyo xi (2) - $259,791'
p3865
sg7
I1
sg8
I0
sg9
F1.6603883321403006
sg48
S'A'
sg10
F0
sg11
S'Clonekyo xi'
p3866
sba(isaltybot
Fighter
p3867
(dp3868
g4
I0
sg5
S'Dabura EX3 (-6) - $156,464\r\n'
p3869
sg7
I0
sg8
I1
sg9
F0.6022687468003125
sg48
S'A'
sg10
F0
sg11
S'Dabura EX3'
p3870
sba(isaltybot
Fighter
p3871
(dp3872
g4
I0
sg5
S'Eve silvan (5) - $379,160'
p3873
sg7
I1
sg8
I0
sg9
F3.7198442052801459
sg48
S'S'
sg10
F0
sg11
S'Eve silvan'
p3874
sba(isaltybot
Fighter
p3875
(dp3876
g4
I0
sg5
S'Kamijo toma EX (-4) - $101,929\r\n'
p3877
sg7
I0
sg8
I1
sg9
F0.26882846291802931
sg48
S'S'
sg10
F0
sg11
S'Kamijo toma EX'
p3878
sba(isaltybot
Fighter
p3879
(dp3880
g4
I0
sg5
S'Carol stanzack (-6) - $168,600'
p3881
sg7
I0
sg8
I1
sg9
F1.2593837535014005
sg48
S'A'
sg10
F0
sg11
S'Carol stanzack'
p3882
sba(isaltybot
Fighter
p3883
(dp3884
g4
I0
sg5
S'Mash figaro (9) - $229,071\r\n'
p3885
sg7
I1
sg8
I0
sg9
F2.3486512257389807
sg48
S'B'
sg10
F0
sg11
S'Mash figaro'
p3886
sba(isaltybot
Fighter
p3887
(dp3888
g4
I0
sg5
S'Ghoston (-2) - $1,618,717'
p3889
sg7
I1
sg8
I0
sg9
F32.622926701465161
sg48
S'A'
sg10
F0
sg11
S'Ghoston'
p3890
sba(isaltybot
Fighter
p3891
(dp3892
g4
I0
sg5
S'Tenshi baiken (3) - $499,130'
p3893
sg7
I1
sg8
I0
sg9
F2.0657986226077742
sg48
S'A'
sg10
F0
sg11
S'Tenshi baiken'
p3894
sba(isaltybot
Fighter
p3895
(dp3896
g4
I0
sg5
S'Dantel (0) - $96,987'
p3897
sg7
I0
sg8
I1
sg9
F1.0879202234461407
sg48
S'B'
sg10
F0
sg11
S'Dantel'
p3898
sba(isaltybot
Fighter
p3899
(dp3900
g4
I0
sg5
S'Ciel EX (4) - $202,048'
p3901
sg7
I0
sg8
I1
sg9
F0.065416705788650636
sg48
S'S'
sg10
F0
sg11
S'Ciel EX'
p3902
sba(isaltybot
Fighter
p3903
(dp3904
g4
I0
sg5
S'Maxima EX3 (-1) - $61,897'
p3905
sg7
I1
sg8
I0
sg9
F0.15574863618978602
sg48
S'B'
sg10
F0
sg11
S'Maxima EX3'
p3906
sba(isaltybot
Fighter
p3907
(dp3908
g4
I0
sg5
S'Edward newgate (-3) - $397,416\r\n'
p3909
sg7
I0
sg8
I1
sg9
F6.4206019677851911
sg48
S'B'
sg10
F0
sg11
S'Edward newgate'
p3910
sba(isaltybot
Fighter
p3911
(dp3912
g4
I0
sg5
S'Kyle dunamis (-2) - $142,497\r\n'
p3913
sg7
I0
sg8
I1
sg9
F1.04009371989139
sg48
S'B'
sg10
F0
sg11
S'Kyle dunamis'
p3914
sba(isaltybot
Fighter
p3915
(dp3916
g4
I0
sg5
S'Saori - athena (-4) - $356,146'
p3917
sg7
I0
sg8
I1
sg9
F1.7960774820844112
sg48
S'S'
sg10
F0
sg11
S'Saori - athena'
p3918
sba(isaltybot
Fighter
p3919
(dp3920
g4
I0
sg5
S'Sailor jupiter k (-1) - $198,291\r\n'
p3921
sg7
I1
sg8
I0
sg9
F0.55676885322311631
sg48
S'S'
sg10
F0
sg11
S'Sailor jupiter k'
p3922
sba(isaltybot
Fighter
p3923
(dp3924
g4
I0
sg5
S'Mr_shihan (1) - $184,956'
p3925
sg7
I0
sg8
I1
sg9
F0.50982121691575755
sg48
S'A'
sg10
F0
sg11
S'Mr_shihan'
p3926
sba(isaltybot
Fighter
p3927
(dp3928
g4
I0
sg5
S'Lf2 - louis (2) - $362,786\r\n'
p3929
sg7
I1
sg8
I0
sg9
F1.9614719176452777
sg48
S'A'
sg10
F0
sg11
S'Lf2 - louis'
p3930
sba(isaltybot
Fighter
p3931
(dp3932
g4
I0
sg5
S'Moriya ex (-1) - $634,157'
p3933
sg7
I1
sg8
I0
sg9
F1.9395019099669999
sg48
S'A'
sg10
F0
sg11
S'Moriya ex'
p3934
sba(isaltybot
Fighter
p3935
(dp3936
g4
I0
sg5
S'Filz-rout (-9) - $326,969\r\n'
p3937
sg7
I0
sg8
I1
sg9
F0.51559629555457087
sg48
S'A'
sg10
F0
sg11
S'Filz-rout'
p3938
sba(isaltybot
Fighter
p3939
(dp3940
g4
I0
sg5
S'Mamiya EX (-3) - $170,006'
p3941
sg7
I1
sg8
I0
sg9
F0.94849835692407258
sg48
S'A'
sg10
F0
sg11
S'Mamiya EX'
p3942
sba(isaltybot
Fighter
p3943
(dp3944
g4
I0
sg5
S'Masked rider blade (-1) - $179,237\r\n'
p3945
sg7
I0
sg8
I1
sg9
F1.0542980835970495
sg48
S'A'
sg10
F0
sg11
S'Masked rider blade'
p3946
sba(isaltybot
Fighter
p3947
(dp3948
g4
I0
sg5
S'Knuckles custom (4) - $265,716'
p3949
sg7
I1
sg8
I0
sg9
F2.2774420817155638
sg48
S'S'
sg10
F0
sg11
S'Knuckles custom'
p3950
sba(isaltybot
Fighter
p3951
(dp3952
g4
I0
sg5
S'Haizilyo (-1) - $116,673\r\n'
p3953
sg7
I0
sg8
I1
sg9
F0.43908910265095064
sg48
S'S'
sg10
F0
sg11
S'Haizilyo'
p3954
sba(isaltybot
Fighter
p3955
(dp3956
g4
I0
sg5
S'Sakura EX3 (1) - $441,473\r\n'
p3957
sg7
I1
sg8
I0
sg9
F3.7241277500337429
sg48
S'A'
sg10
F0
sg11
S'Sakura EX3'
p3958
sba(isaltybot
Fighter
p3959
(dp3960
g4
I0
sg5
S'Takuma (2) - $191,771'
p3961
sg7
I1
sg8
I1
sg9
F1.9745910100329653
sg48
S'A'
sg10
F0
sg11
S'Takuma'
p3962
sba(isaltybot
Fighter
p3963
(dp3964
g4
I0
sg5
S'The territorial mammoth (3) - $204,239\r\n'
p3965
sg7
I0
sg8
I1
sg9
F1.0650150439847526
sg48
S'A'
sg10
F0
sg11
S'The territorial mammoth'
p3966
sba(isaltybot
Fighter
p3967
(dp3968
g4
I0
sg5
S'Aya (1) - $119,761'
p3969
sg7
I1
sg8
I0
sg9
F0.26702385491289915
sg48
S'B'
sg10
F0
sg11
S'Aya'
p3970
sba(isaltybot
Fighter
p3971
(dp3972
g4
I0
sg5
S'Narukana EX3 (4) - $1,378,042'
p3973
sg7
I1
sg8
I0
sg9
F9.5474587074603701
sg48
S'S'
sg10
F0
sg11
S'Narukana EX3'
p3974
sba(isaltybot
Fighter
p3975
(dp3976
g4
I0
sg5
S'Dragon claw EX3 (-2) - $144,336\r\n'
p3977
sg7
I0
sg8
I1
sg9
F0.10473991358753942
sg48
S'S'
sg10
F0
sg11
S'Dragon claw EX3'
p3978
sba(isaltybot
Fighter
p3979
(dp3980
g4
I0
sg5
S'Charlie EX3 (-1) - $274,977'
p3981
sg7
I1
sg8
I0
sg9
F2.1333576427141683
sg48
S'A'
sg10
F0
sg11
S'Charlie EX3'
p3982
sba(isaltybot
Fighter
p3983
(dp3984
g4
I0
sg5
S'Yuri945 (-1) - $128,894\r\n'
p3985
sg7
I0
sg8
I1
sg9
F0.46874465864417753
sg48
S'A'
sg10
F0
sg11
S'Yuri945'
p3986
sba(isaltybot
Fighter
p3987
(dp3988
g4
I0
sg5
S'Koneko EX (-1) - $63,623\r\n'
p3989
sg7
I1
sg8
I0
sg9
F1.4712561280177596
sg48
S'S'
sg10
F0
sg11
S'Koneko EX'
p3990
sba(isaltybot
Fighter
p3991
(dp3992
g4
I0
sg5
S'Son goku (1) - $186,103'
p3993
sg7
I0
sg8
I1
sg9
F0.75558253215538518
sg48
S'B'
sg10
F0
sg11
S'Son goku'
p3994
sba(isaltybot
Fighter
p3995
(dp3996
g4
I0
sg5
S'Elektra (-7) - $80,234'
p3997
sg7
I0
sg8
I1
sg9
F0.19640693350697291
sg48
S'B'
sg10
F0
sg11
S'Elektra'
p3998
sba(isaltybot
Fighter
p3999
(dp4000
g4
I0
sg5
S'Popeye (-1) - $408,509\r\n'
p4001
sg7
I1
sg8
I0
sg9
F5.0914699503950942
sg48
S'B'
sg10
F0
sg11
S'Popeye'
p4002
sba(isaltybot
Fighter
p4003
(dp4004
g4
I0
sg5
S'Ingrid EX2 (2) - $81,429'
p4005
sg7
I0
sg8
I1
sg9
F0.18145091205661748
sg48
S'A'
sg10
F0
sg11
S'Ingrid EX2'
p4006
sba(isaltybot
Fighter
p4007
(dp4008
g4
I0
sg5
S'Tarantulra_dfo (6) - $448,766\r\n'
p4009
sg7
I1
sg8
I0
sg9
F5.5111323975487849
sg48
S'A'
sg10
F0
sg11
S'Tarantulra_dfo'
p4010
sba(isaltybot
Fighter
p4011
(dp4012
g4
I0
sg5
S'CirnoJ (1) - $426,782'
p4013
sg7
I1
sg8
I0
sg9
F2.6951134799247258
sg48
S'A'
sg10
F0
sg11
S'CirnoJ'
p4014
sba(isaltybot
Fighter
p4015
(dp4016
g4
I0
sg5
S'Jagyuta EX2 (2) - $158,354\r\n'
p4017
sg7
I0
sg8
I1
sg9
F0.37104189023904477
sg48
S'A'
sg10
F0
sg11
S'Jagyuta EX2'
p4018
sba(isaltybot
Fighter
p4019
(dp4020
g4
I0
sg5
S'Kyon_ak (-2) - $245,721'
p4021
sg7
I2
sg8
I0
sg9
F2.0840162771478985
sg48
S'B'
sg10
F0
sg11
S'Kyon_ak'
p4022
sba(isaltybot
Fighter
p4023
(dp4024
g4
I0
sg5
S'Juugo (-2) - $170,574\r\n'
p4025
sg7
I0
sg8
I1
sg9
F0.69417754282295774
sg48
S'B'
sg10
F0
sg11
S'Juugo'
p4026
sba(isaltybot
Fighter
p4027
(dp4028
g4
I0
sg5
S'Adon ca (-1) - $343,139'
p4029
sg7
I1
sg8
I0
sg9
F1.9672468553999978
sg48
S'B'
sg10
F0
sg11
S'Adon ca'
p4030
sba(isaltybot
Fighter
p4031
(dp4032
g4
I0
sg5
S'Oozaru (-2) - $174,426\r\n'
p4033
sg7
I0
sg8
I1
sg9
F0.50832461480624469
sg48
S'B'
sg10
F0
sg11
S'Oozaru'
p4034
sba(isaltybot
Fighter
p4035
(dp4036
g4
I0
sg5
S'Broly (6) - $349,092'
p4037
sg7
I0
sg8
I1
sg9
F1.1373853547283539
sg48
S'B'
sg10
F0
sg11
S'Broly'
p4038
sba(isaltybot
Fighter
p4039
(dp4040
g4
I0
sg5
S'Deadpool mvc3 (1) - $306,925\r\n'
p4041
sg7
I1
sg8
I0
sg9
F0.87920949205367072
sg48
S'B'
sg10
F0
sg11
S'Deadpool mvc3'
p4042
sba(isaltybot
Fighter
p4043
(dp4044
g4
I0
sg5
S'Ukitake (2) - $536,015\r\n'
p4045
sg7
I1
sg8
I0
sg9
F3.0455051647140374
sg48
S'B'
sg10
F0
sg11
S'Ukitake'
p4046
sba(isaltybot
Fighter
p4047
(dp4048
g4
I0
sg5
S'Jaguar junichi (1) - $413,174'
p4049
sg7
I1
sg8
I0
sg9
F1.5614392447781837
sg48
S'B'
sg10
F0
sg11
S'Jaguar junichi'
p4050
sba(isaltybot
Fighter
p4051
(dp4052
g4
I0
sg5
S'Erile (-5) - $264,611\r\n'
p4053
sg7
I0
sg8
I1
sg9
F0.64043478050409752
sg48
S'B'
sg10
F0
sg11
S'Erile'
p4054
sba(isaltybot
Fighter
p4055
(dp4056
g4
I0
sg5
S'Chang (-2) - $345,390\r\n'
p4057
sg7
I1
sg8
I0
sg9
F1.6206362612612613
sg48
S'B'
sg10
F0
sg11
S'Chang'
p4058
sba(isaltybot
Fighter
p4059
(dp4060
g4
I0
sg5
S'Kana-chan dhq (3) - $381,873'
p4061
sg7
I0
sg8
I1
sg9
F1.5540918358626248
sg48
S'B'
sg10
F0
sg11
S'Kana-chan dhq'
p4062
sba(isaltybot
Fighter
p4063
(dp4064
g4
I0
sg5
S'Norimaro EX3 (1) - $104,654\r\n'
p4065
sg7
I1
sg8
I0
sg9
F1.287051271014475
sg48
S'B'
sg10
F0
sg11
S'Norimaro EX3'
p4066
sba(isaltybot
Fighter
p4067
(dp4068
g4
I0
sg5
S'Kagami EX2 (-3) - $125,426'
p4069
sg7
I0
sg8
I2
sg9
F0.79740982887401191
sg48
S'S'
sg10
F0
sg11
S'Kagami EX2'
p4070
sba(isaltybot
Fighter
p4071
(dp4072
g4
I0
sg5
S'Deluxe may (-1) - $241,697'
p4073
sg7
I1
sg8
I0
sg9
F1.4673648423033725
sg48
S'S'
sg10
F0
sg11
S'Deluxe may'
p4074
sba(isaltybot
Fighter
p4075
(dp4076
g4
I0
sg5
S'Cody(neoneo) (2) - $164,715\r\n'
p4077
sg7
I0
sg8
I1
sg9
F0.68149377112665854
sg48
S'S'
sg10
F0
sg11
S'Cody(neoneo)'
p4078
sba(isaltybot
Fighter
p4079
(dp4080
g4
I0
sg5
S'Chloe valens (1) - $27,596'
p4081
sg7
I0
sg8
I1
sg9
F0.091473500329816396
sg48
S'A'
sg10
F0
sg11
S'Chloe valens'
p4082
sba(isaltybot
Fighter
p4083
(dp4084
g4
I0
sg5
S'Zoffy (1) - $301,683\r\n'
p4085
sg7
I1
sg8
I0
sg9
F10.932127844615161
sg48
S'A'
sg10
F0
sg11
S'Zoffy'
p4086
sba(isaltybot
Fighter
p4087
(dp4088
g4
I0
sg5
S"Evil ryu ssf'2 plus (1) - $71,447"
p4089
sg7
I0
sg8
I1
sg9
F0.086209621856293564
sg48
S'S'
sg10
F0
sg11
S"Evil ryu ssf'2 plus"
p4090
sba(isaltybot
Fighter
p4091
(dp4092
g4
I0
sg5
S'Daimon (7) - $828,759\r\n'
p4093
sg7
I1
sg8
I0
sg9
F11.59963329460999
sg48
S'S'
sg10
F0
sg11
S'Daimon'
p4094
sba(isaltybot
Fighter
p4095
(dp4096
g4
I0
sg5
S'Poison qyc (-9) - $26,729'
p4097
sg7
I0
sg8
I1
sg9
F0.48305712685016172
sg48
S'S'
sg10
F0
sg11
S'Poison qyc'
p4098
sba(isaltybot
Fighter
p4099
(dp4100
g4
I0
sg5
S'Green lantern js (-3) - $63,508'
p4101
sg7
I1
sg8
I0
sg9
F0.19560061845128465
sg48
S'B'
sg10
F0
sg11
S'Green lantern js'
p4102
sba(isaltybot
Fighter
p4103
(dp4104
g4
I0
sg5
S'Zombies (1) - $324,682\r\n'
p4105
sg7
I0
sg8
I1
sg9
F5.112458272973484
sg48
S'B'
sg10
F0
sg11
S'Zombies'
p4106
sba(isaltybot
Fighter
p4107
(dp4108
g4
I0
sg5
S'Pocket chunli (-2) - $121,112'
p4109
sg7
I0
sg8
I1
sg9
F0.45702296586440855
sg48
S'A'
sg10
F0
sg11
S'Pocket chunli'
p4110
sba(isaltybot
Fighter
p4111
(dp4112
g4
I0
sg5
S'Kira daidoji (-1) - $265,002\r\n'
p4113
sg7
I1
sg8
I0
sg9
F2.1880738489992733
sg48
S'A'
sg10
F0
sg11
S'Kira daidoji'
p4114
sba(isaltybot
Fighter
p4115
(dp4116
g4
I0
sg5
S'Street fighter is boring you idiots (-5) - $100,594\r\n'
p4117
sg7
I0
sg8
I1
sg9
F0.04416065603996646
sg48
S'B'
sg10
F0
sg11
S'Street fighter is boring you idiots'
p4118
sba(isaltybot
Fighter
p4119
(dp4120
g4
I0
sg5
S'Oyashirorika EX (1) - $343,490\r\n'
p4121
sg7
I0
sg8
I1
sg9
F0.20621199450325475
sg48
S'S'
sg10
F0
sg11
S'Oyashirorika EX'
p4122
sba(isaltybot
Fighter
p4123
(dp4124
g4
I0
sg5
S'Tretista-kelverian (-1) - $101,346'
p4125
sg7
I0
sg8
I1
sg9
F0.092548691573764261
sg48
S'X'
sg10
F0
sg11
S'Tretista-kelverian'
p4126
sba(isaltybot
Fighter
p4127
(dp4128
g4
I0
sg5
S'Psyqhical (13) - $1,095,056\r\n'
p4129
sg7
I1
sg8
I0
sg9
F10.805123043830047
sg48
S'X'
sg10
F0
sg11
S'Psyqhical'
p4130
sba(isaltybot
Fighter
p4131
(dp4132
g4
I0
sg5
S'Cliff-tsunade-godaime (1) - $175,537'
p4133
sg7
I0
sg8
I1
sg9
F0.76043701832895072
sg48
S'S'
sg10
F0
sg11
S'Cliff-tsunade-godaime'
p4134
sba(isaltybot
Fighter
p4135
(dp4136
g4
I0
sg5
S'Bonegolem (-1) - $230,837\r\n'
p4137
sg7
I1
sg8
I0
sg9
F1.3150332978232508
sg48
S'S'
sg10
F0
sg11
S'Bonegolem'
p4138
sba(isaltybot
Fighter
p4139
(dp4140
g4
I0
sg5
S'Nao EX3 (1) - $165,873'
p4141
sg7
I1
sg8
I0
sg9
F0.51013202852775741
sg48
S'S'
sg10
F0
sg11
S'Nao EX3'
p4142
sba(isaltybot
Fighter
p4143
(dp4144
g4
I0
sg5
S'Tyrant J (5) - $325,157\r\n'
p4145
sg7
I0
sg8
I1
sg9
F1.9602768383040037
sg48
S'S'
sg10
F0
sg11
S'Tyrant J'
p4146
sba(isaltybot
Fighter
p4147
(dp4148
g4
I0
sg5
S'Yuri (-7) - $94,432'
p4149
sg7
I0
sg8
I1
sg9
F0.19946601777687653
sg48
S'A'
sg10
F0
sg11
S'Yuri'
p4150
sba(isaltybot
Fighter
p4151
(dp4152
g4
I0
sg5
S'Kyouken wakamoto (-1) - $473,424\r\n'
p4153
sg7
I1
sg8
I0
sg9
F5.0133852931209759
sg48
S'A'
sg10
F0
sg11
S'Kyouken wakamoto'
p4154
sba(isaltybot
Fighter
p4155
(dp4156
g4
I0
sg5
S'Armored gohan (1) - $133,104'
p4157
sg7
I0
sg8
I1
sg9
F1.0873710266401981
sg48
S'B'
sg10
F0
sg11
S'Armored gohan'
p4158
sba(isaltybot
Fighter
p4159
(dp4160
g4
I0
sg5
S'Rangle EX3 (0) - $122,409\r\n'
p4161
sg7
I1
sg8
I0
sg9
F0.91964929679047958
sg48
S'B'
sg10
F0
sg11
S'Rangle EX3'
p4162
sba(isaltybot
Fighter
p4163
(dp4164
g4
I0
sg5
S'Deluxe tetsu yatogi (1) - $185,172'
p4165
sg7
I1
sg8
I0
sg9
F0.965589166245157
sg48
S'A'
sg10
F0
sg11
S'Deluxe tetsu yatogi'
p4166
sba(isaltybot
Fighter
p4167
(dp4168
g4
I0
sg5
S'King lion ngbc (2) - $39,012\r\n'
p4169
sg7
I0
sg8
I1
sg9
F0.1260961332717053
sg48
S'B'
sg10
F0
sg11
S'King lion ngbc'
p4170
sba(isaltybot
Fighter
p4171
(dp4172
g4
I0
sg5
S'Gaia EX3 (3) - $323,690'
p4173
sg7
I0
sg8
I1
sg9
F0.6080809447055685
sg48
S'B'
sg10
F0
sg11
S'Gaia EX3'
p4174
sba(isaltybot
Fighter
p4175
(dp4176
g4
I0
sg5
S'Ultraman dyna (2) - $281,987'
p4177
sg7
I0
sg8
I1
sg9
F1.6071481494146747
sg48
S'A'
sg10
F0
sg11
S'Ultraman dyna'
p4178
sba(isaltybot
Fighter
p4179
(dp4180
g4
I0
sg5
S'Nyamo EX (-2) - $111,514'
p4181
sg7
I0
sg8
I1
sg9
F0.071862778014426171
sg48
S'S'
sg10
F0
sg11
S'Nyamo EX'
p4182
sba(isaltybot
Fighter
p4183
(dp4184
g4
I0
sg5
S'A-minagi (7) - $1,551,763\r\n'
p4185
sg7
I1
sg8
I0
sg9
F13.915409724339545
sg48
S'S'
sg10
F0
sg11
S'A-minagi'
p4186
sba(isaltybot
Fighter
p4187
(dp4188
g4
I0
sg5
S'Cheep-chomp (9) - $581,461'
p4189
sg7
I1
sg8
I0
sg9
F7.1471188357343038
sg48
S'A'
sg10
F0
sg11
S'Cheep-chomp'
p4190
sba(isaltybot
Fighter
p4191
(dp4192
g4
I0
sg5
S'Zonu (-1) - $81,356\r\n'
p4193
sg7
I0
sg8
I1
sg9
F0.13991652062649085
sg48
S'A'
sg10
F0
sg11
S'Zonu'
p4194
sba(isaltybot
Fighter
p4195
(dp4196
g4
I0
sg5
S'Muscle power (-1) - $352,292'
p4197
sg7
I0
sg8
I0
sg9
F2.7900559924604211
sg48
S'A'
sg10
F0
sg11
S'Muscle power'
p4198
sba(isaltybot
Fighter
p4199
(dp4200
g4
I0
sg5
S'Ai momoyama (-1) - $126,267\r\n'
p4201
sg7
I0
sg8
I0
sg9
F0.35841574602886245
sg48
S'A'
sg10
F0
sg11
S'Ai momoyama'
p4202
sba(isaltybot
Fighter
p4203
(dp4204
g4
I0
sg5
S'Mech zangief (2) - $2,171,342'
p4205
sg7
I1
sg8
I0
sg9
F18.353453303692934
sg48
S'S'
sg10
F0
sg11
S'Mech zangief'
p4206
sba(isaltybot
Fighter
p4207
(dp4208
g4
I0
sg5
S'Lilith a (-8) - $57,705'
p4209
sg7
I0
sg8
I1
sg9
F0.21635210222032258
sg48
S'B'
sg10
F0
sg11
S'Lilith a'
p4210
sba(isaltybot
Fighter
p4211
(dp4212
g4
I0
sg5
S'Mina EX2 (-1) - $266,718\r\n'
p4213
sg7
I1
sg8
I0
sg9
F4.6220951390694047
sg48
S'B'
sg10
F0
sg11
S'Mina EX2'
p4214
sba(isaltybot
Fighter
p4215
(dp4216
g4
I0
sg5
S'Sinclair (-2) - $35,808'
p4217
sg7
I0
sg8
I1
sg9
F0.026081541234954569
sg48
S'B'
sg10
F0
sg11
S'Sinclair'
p4218
sba(isaltybot
Fighter
p4219
(dp4220
g4
I0
sg5
S'V2ab (-1) - $68,600'
p4221
sg7
I1
sg8
I0
sg9
F0.26514331653319317
sg48
S'S'
sg10
F0
sg11
S'V2ab'
p4222
sba(isaltybot
Fighter
p4223
(dp4224
g4
I0
sg5
S'B.jenet_n (2) - $873,659'
p4225
sg7
I1
sg8
I0
sg9
F5.8713247894839418
sg48
S'A'
sg10
F0
sg11
S'B.jenet_n'
p4226
sba(isaltybot
Fighter
p4227
(dp4228
g4
I0
sg5
S'Kazuma EX (0) - $148,801\r\n'
p4229
sg7
I0
sg8
I1
sg9
F0.17031931222593713
sg48
S'A'
sg10
F0
sg11
S'Kazuma EX'
p4230
sba(isaltybot
Fighter
p4231
(dp4232
g4
I0
sg5
S'Tokinomiya kamui EX3 (-2) - $2,282,191'
p4233
sg7
I1
sg8
I0
sg9
F18.195517675761007
sg48
S'S'
sg10
F0
sg11
S'Tokinomiya kamui EX3'
p4234
sba(isaltybot
Fighter
p4235
(dp4236
g4
I0
sg5
S'Shiki vp (-5) - $382,745'
p4237
sg7
I1
sg8
I0
sg9
F15.931776556776557
sg48
S'B'
sg10
F0
sg11
S'Shiki vp'
p4238
sba(isaltybot
Fighter
p4239
(dp4240
g4
I0
sg5
S'Axel stone (-4) - $24,024\r\n'
p4241
sg7
I0
sg8
I1
sg9
F0.062767639028596056
sg48
S'B'
sg10
F0
sg11
S'Axel stone'
p4242
sba(isaltybot
Fighter
p4243
(dp4244
g4
I0
sg5
S'Ren idagawa (1) - $475,173'
p4245
sg7
I1
sg8
I0
sg9
F6.9428120571002765
sg48
S'B'
sg10
F0
sg11
S'Ren idagawa'
p4246
sba(isaltybot
Fighter
p4247
(dp4248
g4
I0
sg5
S'Scott pilgrim EX3 (-2) - $68,441\r\n'
p4249
sg7
I0
sg8
I1
sg9
F0.14403385714255651
sg48
S'B'
sg10
F0
sg11
S'Scott pilgrim EX3'
p4250
sba(isaltybot
Fighter
p4251
(dp4252
g4
I0
sg5
S'T. kawk (1) - $297,373'
p4253
sg7
I0
sg8
I1
sg9
F2.2895275784546212
sg48
S'A'
sg10
F0
sg11
S'T. kawk'
p4254
sba(isaltybot
Fighter
p4255
(dp4256
g4
I0
sg5
S'Trigger (-3) - $129,884\r\n'
p4257
sg7
I1
sg8
I0
sg9
F0.43677132759194681
sg48
S'A'
sg10
F0
sg11
S'Trigger'
p4258
sba(isaltybot
Fighter
p4259
(dp4260
g4
I0
sg5
S'Sho kamui (5) - $521,941'
p4261
sg7
I1
sg8
I0
sg9
F1.491890856705121
sg48
S'A'
sg10
F0
sg11
S'Sho kamui'
p4262
sba.