(lp1
(isaltybot
Fighter
p2
(dp3
S'streak'
p4
I0
sS'string'
p5
S'Blue eyes white karin (1) - $538,526'
p6
sS'wins'
p7
I1
sS'loses'
p8
I0
sS'bet_ratio'
p9
F8.1369233791154834
sS'wlRatio'
p10
F0
sS'name'
p11
S'Blue eyes white karin'
p12
sba(isaltybot
Fighter
p13
(dp14
g4
I0
sg5
S'Kisume EX (-4) - $66,183\r\n'
p15
sg7
I0
sg8
I1
sg9
F0.12289657323880369
sg10
F0
sg11
S'Kisume EX'
p16
sba(isaltybot
Fighter
p17
(dp18
g4
I0
sg5
S'Daimon 71113 (-5) - $167,183'
p19
sg7
I0
sg8
I1
sg9
F0.60794260321893245
sg10
F0
sg11
S'Daimon 71113'
p20
sba(isaltybot
Fighter
p21
(dp22
g4
I0
sg5
S'Rera EX3 (1) - $274,998\r\n'
p23
sg7
I1
sg8
I0
sg9
F1.6448921241992307
sg10
F0
sg11
S'Rera EX3'
p24
sba(isaltybot
Fighter
p25
(dp26
g4
I0
sg5
S'Gaira EX2 (2) - $179,146'
p27
sg7
I1
sg8
I0
sg9
F6.5061194842927188
sg10
F0
sg11
S'Gaira EX2'
p28
sba(isaltybot
Fighter
p29
(dp30
g4
I0
sg5
S'Death force (-1) - $27,535\r\n'
p31
sg7
I0
sg8
I1
sg9
F0.15370145021379211
sg10
F0
sg11
S'Death force'
p32
sba(isaltybot
Fighter
p33
(dp34
g4
I0
sg5
S'Lupin the 3rd (-3) - $130,147'
p35
sg7
I0
sg8
I1
sg9
F1.1540924004611155
sg10
F0
sg11
S'Lupin the 3rd'
p36
sba(isaltybot
Fighter
p37
(dp38
g4
I0
sg5
S'Conker (2) - $112,770\r\n'
p39
sg7
I1
sg8
I0
sg9
F0.86648174756237173
sg10
F0
sg11
S'Conker'
p40
sba(isaltybot
Fighter
p41
(dp42
g4
I0
sg5
S'Perfect storm x (1) - $104,813'
p43
sg7
I0
sg8
I1
sg9
F0.07644468366912309
sg10
F0
sg11
S'Perfect storm x'
p44
sba(isaltybot
Fighter
p45
(dp46
g4
I0
sg5
S'Ash of blueblood (3) - $1,371,096\r\n'
p47
sg7
I2
sg8
I0
sg9
F14.93230671059713
sS'tier'
p48
S'S'
sg10
F0
sg11
S'Ash of blueblood'
p49
sba(isaltybot
Fighter
p50
(dp51
g4
I0
sg5
S'Hydron (1) - $77,060'
p52
sg7
I1
sg8
I0
sg9
F0.32262926522922336
sg10
F0
sg11
S'Hydron'
p53
sba(isaltybot
Fighter
p54
(dp55
g4
I0
sg5
S'Donatello 0d (2) - $238,850\r\n'
p56
sg7
I0
sg8
I1
sg9
F3.0995328315598236
sg10
F0
sg11
S'Donatello 0d'
p57
sba(isaltybot
Fighter
p58
(dp59
g4
I0
sg5
S'Kazama sogetsu (-1) - $507,868'
p60
sg7
I1
sg8
I0
sg9
F3.5299007478662183
sg10
F0
sg11
S'Kazama sogetsu'
p61
sba(isaltybot
Fighter
p62
(dp63
g4
I0
sg5
S'Xiaoyen (1) - $143,876\r\n'
p64
sg7
I0
sg8
I1
sg9
F0.28329408428961855
sg10
F0
sg11
S'Xiaoyen'
p65
sba(isaltybot
Fighter
p66
(dp67
g4
I0
sg5
S'Trishula,doragon of the ice barrier (-1) - $67,099'
p68
sg7
I0
sg8
I1
sg9
F0.2281619259737831
sg10
F0
sg11
S'Trishula,doragon of the ice barrier'
p69
sba(isaltybot
Fighter
p70
(dp71
g4
I0
sg5
S'Mike EX2 (2) - $294,085\r\n'
p72
sg7
I1
sg8
I0
sg9
F4.3828522034605584
sg10
F0
sg11
S'Mike EX2'
p73
sba(isaltybot
Fighter
p74
(dp75
g4
I0
sg5
S'Eriol hiiragizawa (-5) - $74,010'
p76
sg7
I1
sg8
I0
sg9
F0.25156185206082893
sg10
F0
sg11
S'Eriol hiiragizawa'
p77
sba(isaltybot
Fighter
p78
(dp79
g4
I0
sg5
S'Dimlos EX (-2) - $294,202\r\n'
p80
sg7
I0
sg8
I1
sg9
F3.9751655181732199
sg10
F0
sg11
S'Dimlos EX'
p81
sba(isaltybot
Fighter
p82
(dp83
g4
I0
sg5
S'Wiler (-1) - $300,146'
p84
sg7
I1
sg8
I0
sg9
F1.0270039075598623
sg10
F0
sg11
S'Wiler'
p85
sba(isaltybot
Fighter
p86
(dp87
g4
I0
sg5
S'Mysty_monkstyle (2) - $292,254\r\n'
p88
sg7
I1
sg8
I1
sg9
F1.5703826678362436
sg48
S'A'
sg10
F0
sg11
S'Mysty_monkstyle'
p89
sba(isaltybot
Fighter
p90
(dp91
g4
I0
sg5
S'Titan the great (-4) - $129,922'
p92
sg7
I1
sg8
I0
sg9
F0.75875722712141569
sg10
F0
sg11
S'Titan the great'
p93
sba(isaltybot
Fighter
p94
(dp95
g4
I0
sg5
S'Princess silver (-1) - $171,230\r\n'
p96
sg7
I0
sg8
I1
sg9
F1.317944612921599
sg10
F0
sg11
S'Princess silver'
p97
sba(isaltybot
Fighter
p98
(dp99
g4
I0
sg5
S'Gengetu EX (1) - $2,526,438'
p100
sg7
I1
sg8
I0
sg9
F48.091483610614077
sg10
F0
sg11
S'Gengetu EX'
p101
sba(isaltybot
Fighter
p102
(dp103
g4
I0
sg5
S'Jotaro kujo (-6) - $52,534\r\n'
p104
sg7
I0
sg8
I1
sg9
F0.020793702437977898
sg10
F0
sg11
S'Jotaro kujo'
p105
sba(isaltybot
Fighter
p106
(dp107
g4
I0
sg5
S'Prometheus (-2) - $251,986'
p108
sg7
I2
sg8
I0
sg9
F1.7923370764649149
sg48
S'A'
sg10
F0
sg11
S'Prometheus'
p109
sba(isaltybot
Fighter
p110
(dp111
g4
I0
sg5
S'Android 16 ai-barbatos (1) - $115,576\r\n'
p112
sg7
I1
sg8
I1
sg9
F0.74441883200885695
sg48
S'A'
sg10
F0
sg11
S'Android 16 ai-barbatos'
p113
sba(isaltybot
Fighter
p114
(dp115
g4
I0
sg5
S'Mr.karateka (-1) - $110,261'
p116
sg7
I0
sg8
I2
sg9
F0.12786107473962385
sg48
S'S'
sg10
F0
sg11
S'Mr.karateka'
p117
sba(isaltybot
Fighter
p118
(dp119
g4
I0
sg5
S'S.geist (-1) - $901,389\r\n'
p120
sg7
I1
sg8
I1
sg9
F8.1144907702077145
sg48
S'S'
sg10
F0
sg11
S'S.geist'
p121
sba(isaltybot
Fighter
p122
(dp123
g4
I0
sg5
S'Hina (0) - $149,709'
p124
sg7
I0
sg8
I1
sg9
F0.99905239204276253
sg10
F0
sg11
S'Hina'
p125
sba(isaltybot
Fighter
p126
(dp127
g4
I0
sg5
S'Demonica (-3) - $149,851\r\n'
p128
sg7
I2
sg8
I1
sg9
F4.5170885571258701
sg48
S'A'
sg10
F0
sg11
S'Demonica'
p129
sba(isaltybot
Fighter
p130
(dp131
g4
I0
sg5
S'Jotaro (-1) - $223,724'
p132
sg7
I1
sg8
I0
sg9
F1.3507782594520183
sg10
F0
sg11
S'Jotaro'
p133
sba(isaltybot
Fighter
p134
(dp135
g4
I0
sg5
S'Gulool ja ja (-5) - $165,626\r\n'
p136
sg7
I1
sg8
I1
sg9
F0.9571849065300585
sg10
F0
sg11
S'Gulool ja ja'
p137
sba(isaltybot
Fighter
p138
(dp139
g4
I0
sg5
S'Hikaru EX3 (-5) - $117,742'
p140
sg7
I0
sg8
I1
sg9
F0.30446396479097226
sg10
F0
sg11
S'Hikaru EX3'
p141
sba(isaltybot
Fighter
p142
(dp143
g4
I0
sg5
S'Legion EX3 (7) - $386,719\r\n'
p144
sg7
I1
sg8
I0
sg9
F3.2844609400214027
sg10
F0
sg11
S'Legion EX3'
p145
sba(isaltybot
Fighter
p146
(dp147
g4
I0
sg5
S'Shaq Diesel (1) - $36,190'
p148
sg7
I1
sg8
I1
sg9
F0.15202109311356041
sg48
S'B'
sg10
F0
sg11
S'Shaq Diesel'
p149
sba(isaltybot
Fighter
p150
(dp151
g4
I0
sg5
S'Nucrear cirno (5) - $384,823\r\n'
p152
sg7
I1
sg8
I1
sg9
F9.811979881561987
sg48
S'B'
sg10
F0
sg11
S'Nucrear cirno'
p153
sba(isaltybot
Fighter
p154
(dp155
g4
I0
sg5
S'Han EX3 (-5) - $198,498'
p156
sg7
I1
sg8
I2
sg9
F1.1228152779283713
sg48
S'S'
sg10
F0
sg11
S'Han EX3'
p157
sba(isaltybot
Fighter
p158
(dp159
g4
I0
sg5
S'Zeeky h. bomb (1) - $185,356\r\n'
p160
sg7
I1
sg8
I0
sg9
F0.93379278380638597
sg10
F0
sg11
S'Zeeky h. bomb'
p161
sba(isaltybot
Fighter
p162
(dp163
g4
I0
sg5
S'Kingjoe (2) - $435,347'
p164
sg7
I2
sg8
I0
sg9
F5.7938023330307864
sg48
S'S'
sg10
F0
sg11
S'Kingjoe'
p165
sba(isaltybot
Fighter
p166
(dp167
g4
I0
sg5
S'Person-lichkeit (-2) - $57,327\r\n'
p168
sg7
I0
sg8
I1
sg9
F0.13168116468012872
sg10
F0
sg11
S'Person-lichkeit'
p169
sba(isaltybot
Fighter
p170
(dp171
g4
I0
sg5
S'Devilbat-schilt (-1) - $242,046'
p172
sg7
I0
sg8
I1
sg9
F1.1969143280998888
sg10
F0
sg11
S'Devilbat-schilt'
p173
sba(isaltybot
Fighter
p174
(dp175
g4
I0
sg5
S'94_flan (1) - $202,225\r\n'
p176
sg7
I1
sg8
I0
sg9
F0.83548168529948852
sg10
F0
sg11
S'94_flan'
p177
sba(isaltybot
Fighter
p178
(dp179
g4
I0
sg5
S'Young_rugal (5) - $348,855'
p180
sg7
I1
sg8
I0
sg9
F3.8776746512532649
sg10
F0
sg11
S'Young_rugal'
p181
sba(isaltybot
Fighter
p182
(dp183
g4
I0
sg5
S'Condor EX (-5) - $89,965\r\n'
p184
sg7
I0
sg8
I2
sg9
F0.19317668754273021
sg48
S'A'
sg10
F0
sg11
S'Condor EX'
p185
sba(isaltybot
Fighter
p186
(dp187
g4
I0
sg5
S'Majin boo EX3 (1) - $149,719'
p188
sg7
I0
sg8
I1
sg9
F2.9473984684134891
sg10
F0
sg11
S'Majin boo EX3'
p189
sba(isaltybot
Fighter
p190
(dp191
g4
I0
sg5
S'Birdie sfa (1) - $50,797\r\n'
p192
sg7
I1
sg8
I0
sg9
F0.33928225542516316
sg10
F0
sg11
S'Birdie sfa'
p193
sba(isaltybot
Fighter
p194
(dp195
g4
I0
sg5
S'Donovan (2) - $150,537'
p196
sg7
I1
sg8
I1
sg9
F1.6719636753314724
sg48
S'A'
sg10
F0
sg11
S'Donovan'
p197
sba(isaltybot
Fighter
p198
(dp199
g4
I0
sg5
S'Himekawa kotone (1) - $194,641\r\n'
p200
sg7
I1
sg8
I0
sg9
F1.2929778061207544
sg10
F0
sg11
S'Himekawa kotone'
p201
sba(isaltybot
Fighter
p202
(dp203
g4
I0
sg5
S'The atom (2) - $61,047'
p204
sg7
I0
sg8
I1
sg9
F0.13611280192105737
sg10
F0
sg11
S'The atom'
p205
sba(isaltybot
Fighter
p206
(dp207
g4
I0
sg5
S'Xeona (7) - $448,503\r\n'
p208
sg7
I1
sg8
I0
sg9
F7.3468475109341984
sg10
F0
sg11
S'Xeona'
p209
sba(isaltybot
Fighter
p210
(dp211
g4
I0
sg5
S'Miko (1) - $319,977'
p212
sg7
I1
sg8
I0
sg9
F7.0847799132052076
sg10
F0
sg11
S'Miko'
p213
sba(isaltybot
Fighter
p214
(dp215
g4
I0
sg5
S'Jill ex (1) - $45,164\r\n'
p216
sg7
I0
sg8
I3
sg9
F0.3615573697463641
sg48
S'A'
sg10
F0
sg11
S'Jill ex'
p217
sba(isaltybot
Fighter
p218
(dp219
g4
I0
sg5
S'Chintao FF (2) - $73,708'
p220
sg7
I0
sg8
I1
sg9
F0.34586833090892027
sg10
F0
sg11
S'Chintao FF'
p221
sba(isaltybot
Fighter
p222
(dp223
g4
I0
sg5
S'Zuepia (2) - $213,110\r\n'
p224
sg7
I1
sg8
I0
sg9
F2.8912736744993759
sg10
F0
sg11
S'Zuepia'
p225
sba(isaltybot
Fighter
p226
(dp227
g4
I0
sg5
S'Gundam epyon (1) - $145,835'
p228
sg7
I1
sg8
I0
sg9
F0.97766261974833579
sg10
F0
sg11
S'Gundam epyon'
p229
sba(isaltybot
Fighter
p230
(dp231
g4
I0
sg5
S'Meta jade (-2) - $149,167\r\n'
p232
sg7
I0
sg8
I1
sg9
F1.0228477388829842
sg10
F0
sg11
S'Meta jade'
p233
sba(isaltybot
Fighter
p234
(dp235
g4
I0
sg5
S'Ryu Evil (-4) - $56,603'
p236
sg7
I0
sg8
I1
sg9
F0.23595496250349121
sg10
F0
sg11
S'Ryu Evil'
p237
sba(isaltybot
Fighter
p238
(dp239
g4
I0
sg5
S'Ken sf3 (7) - $239,889\r\n'
p240
sg7
I1
sg8
I0
sg9
F4.2380969206579158
sg10
F0
sg11
S'Ken sf3'
p241
sba(isaltybot
Fighter
p242
(dp243
g4
I0
sg5
S'Dk (5) - $87,828'
p244
sg7
I0
sg8
I3
sg9
F0.44861928106364402
sg48
S'A'
sg10
F0
sg11
S'Dk'
p245
sba(isaltybot
Fighter
p246
(dp247
g4
I0
sg5
S'Shadow agent (6) - $305,153\r\n'
p248
sg7
I1
sg8
I0
sg9
F3.4744386755932051
sg10
F0
sg11
S'Shadow agent'
p249
sba(isaltybot
Fighter
p250
(dp251
g4
I0
sg5
S'Makoto EX3 (1) - $163,513'
p252
sg7
I0
sg8
I1
sg9
F0.67674740083438178
sg10
F0
sg11
S'Makoto EX3'
p253
sba(isaltybot
Fighter
p254
(dp255
g4
I0
sg5
S'Komepo (-1) - $241,616\r\n'
p256
sg7
I1
sg8
I0
sg9
F1.4776562108211579
sg10
F0
sg11
S'Komepo'
p257
sba(isaltybot
Fighter
p258
(dp259
g4
I0
sg5
S'El stinger (-2) - $319,927'
p260
sg7
I0
sg8
I1
sg9
F6.0722189534420252
sg10
F0
sg11
S'El stinger'
p261
sba(isaltybot
Fighter
p262
(dp263
g4
I0
sg5
S'Underdog (-1) - $52,687\r\n'
p264
sg7
I1
sg8
I0
sg9
F0.16468444363870507
sg10
F0
sg11
S'Underdog'
p265
sba(isaltybot
Fighter
p266
(dp267
g4
I0
sg5
S'Lomias (4) - $332,896'
p268
sg7
I0
sg8
I1
sg9
F2.0234993769565084
sg10
F0
sg11
S'Lomias'
p269
sba(isaltybot
Fighter
p270
(dp271
g4
I0
sg5
S'Juri pf (-3) - $164,515\r\n'
p272
sg7
I1
sg8
I0
sg9
F0.49419338171681249
sg10
F0
sg11
S'Juri pf'
p273
sba(isaltybot
Fighter
p274
(dp275
g4
I0
sg5
S'Drunken master (-1) - $284,404'
p276
sg7
I0
sg8
I1
sg9
F1.7792597782838266
sg10
F0
sg11
S'Drunken master'
p277
sba(isaltybot
Fighter
p278
(dp279
g4
I0
sg5
S'Natsuka fuou (2) - $159,844\r\n'
p280
sg7
I1
sg8
I0
sg9
F0.56203147635054362
sg10
F0
sg11
S'Natsuka fuou'
p281
sba(isaltybot
Fighter
p282
(dp283
g4
I0
sg5
S'Leo FM (-9) - $42,411'
p284
sg7
I0
sg8
I1
sg9
F0.16287179093300563
sg10
F0
sg11
S'Leo FM'
p285
sba(isaltybot
Fighter
p286
(dp287
g4
I0
sg5
S'Captain america (1) - $260,395\r\n'
p288
sg7
I1
sg8
I0
sg9
F6.1397986371460238
sg10
F0
sg11
S'Captain america'
p289
sba(isaltybot
Fighter
p290
(dp291
g4
I0
sg5
S'Hisame shizumaru (2) - $431,014'
p292
sg7
I0
sg8
I1
sg9
F1.310642619740495
sg10
F0
sg11
S'Hisame shizumaru'
p293
sba(isaltybot
Fighter
p294
(dp295
g4
I0
sg5
S'Nash shadow (4) - $328,857\r\n'
p296
sg7
I1
sg8
I0
sg9
F0.76298449702329851
sg10
F0
sg11
S'Nash shadow'
p297
sba(isaltybot
Fighter
p298
(dp299
g4
I0
sg5
S'Evil homer (1) - $86,802'
p300
sg7
I1
sg8
I1
sg9
F2.2847277274638453
sg10
F0
sg11
S'Evil homer'
p301
sba(isaltybot
Fighter
p302
(dp303
g4
I0
sg5
S'Trish (-9) - $28,410\r\n'
p304
sg7
I0
sg8
I1
sg9
F0.32729660606898459
sg10
F0
sg11
S'Trish'
p305
sba(isaltybot
Fighter
p306
(dp307
g4
I0
sg5
S'Vixen (-2) - $45,051'
p308
sg7
I0
sg8
I1
sg9
F0.38589232943595014
sg10
F0
sg11
S'Vixen'
p309
sba(isaltybot
Fighter
p310
(dp311
g4
I0
sg5
S'Rosa_obsn (3) - $116,745\r\n'
p312
sg7
I2
sg8
I1
sg9
F1.8252470484152266
sg10
F0
sg11
S'Rosa_obsn'
p313
sba(isaltybot
Fighter
p314
(dp315
g4
I0
sg5
S'Bruce shotoman (-4) - $54,186'
p316
sg7
I1
sg8
I1
sg9
F0.38629485274100622
sg10
F0
sg11
S'Bruce shotoman'
p317
sba(isaltybot
Fighter
p318
(dp319
g4
I0
sg5
S'Rogue SP (-4) - $135,466\r\n'
p320
sg7
I0
sg8
I1
sg9
F2.5000184549514635
sg10
F0
sg11
S'Rogue SP'
p321
sba(isaltybot
Fighter
p322
(dp323
g4
I0
sg5
S'Reject no. 253 (-3) - $150,982'
p324
sg7
I4
sg8
I0
sg9
F1.2360217339239714
sg10
F0
sg11
S'Reject no. 253'
p325
sba(isaltybot
Fighter
p326
(dp327
g4
I0
sg5
S'Houoh (3) - $104,600\r\n'
p328
sg7
I0
sg8
I1
sg9
F0.69279781695831288
sg10
F0
sg11
S'Houoh'
p329
sba(isaltybot
Fighter
p330
(dp331
g4
I0
sg5
S'Hayato (1) - $97,533'
p332
sg7
I0
sg8
I1
sg9
F0.71189892265919241
sg10
F0
sg11
S'Hayato'
p333
sba(isaltybot
Fighter
p334
(dp335
g4
I0
sg5
S'Number muncher (1) - $137,004\r\n'
p336
sg7
I1
sg8
I1
sg9
F1.1498753696083628
sg10
F0
sg11
S'Number muncher'
p337
sba(isaltybot
Fighter
p338
(dp339
g4
I0
sg5
S'Elisabeth (6) - $213,989'
p340
sg7
I3
sg8
I1
sg9
F1.4382149553749275
sg10
F0
sg11
S'Elisabeth'
p341
sba(isaltybot
Fighter
p342
(dp343
g4
I0
sg5
S'Squall (-2) - $124,978\r\n'
p344
sg7
I0
sg8
I2
sg9
F1.748249892825283
sg48
S'B'
sg10
F0
sg11
S'Squall'
p345
sba(isaltybot
Fighter
p346
(dp347
g4
I0
sg5
S'Reptile mk2 (-2) - $204,502'
p348
sg7
I0
sg8
I1
sg9
F1.4318261380981054
sg10
F0
sg11
S'Reptile mk2'
p349
sba(isaltybot
Fighter
p350
(dp351
g4
I0
sg5
S'Akiha (4) - $142,826\r\n'
p352
sg7
I2
sg8
I1
sg9
F1.0506358972871972
sg48
S'B'
sg10
F0
sg11
S'Akiha'
p353
sba(isaltybot
Fighter
p354
(dp355
g4
I0
sg5
S'Shadow kouma (2) - $50,106'
p356
sg7
I0
sg8
I1
sg9
F0.19813906035597489
sg10
F0
sg11
S'Shadow kouma'
p357
sba(isaltybot
Fighter
p358
(dp359
g4
I0
sg5
S'Captain agent (2) - $252,883\r\n'
p360
sg7
I2
sg8
I1
sg9
F3.2615612193804293
sg10
F0
sg11
S'Captain agent'
p361
sba(isaltybot
Fighter
p362
(dp363
g4
I0
sg5
S'Godmars- $310,707'
p364
sg7
I1
sg8
I0
sg9
F0.67232660444846437
sg10
F0
sg11
S'Godmars'
p365
sba(isaltybot
Fighter
p366
(dp367
g4
I0
sg5
S'Albion- $462,137\r\n'
p368
sg7
I0
sg8
I1
sg9
F1.4873723475814835
sg10
F0
sg11
S'Albion'
p369
sba(isaltybot
Fighter
p370
(dp371
g4
I0
sg5
S'Stupid little drill tank- $248,516'
p372
sg7
I1
sg8
I1
sg9
F1.2147252866027343
sg48
S'S'
sg10
F0
sg11
S'Stupid little drill tank'
p373
sba(isaltybot
Fighter
p374
(dp375
g4
I0
sg5
S'Koopa clown car- $211,206\r\n'
p376
sg7
I0
sg8
I1
sg9
F0.8498688213233756
sg10
F0
sg11
S'Koopa clown car'
p377
sba(isaltybot
Fighter
p378
(dp379
g4
I0
sg5
S'Son of sun- $94,766'
p380
sg7
I0
sg8
I1
sg9
F0.016744218919097997
sg10
F0
sg11
S'Son of sun'
p381
sba(isaltybot
Fighter
p382
(dp383
g4
I0
sg5
S'Rare akuma- $5,659,625\r\n'
p384
sg7
I1
sg8
I0
sg9
F59.72210497435789
sg10
F0
sg11
S'Rare akuma'
p385
sba(isaltybot
Fighter
p386
(dp387
g4
I0
sg5
S'Pikkon (1) - $79,536'
p388
sg7
I0
sg8
I1
sg9
F0.37506366122795437
sg10
F0
sg11
S'Pikkon'
p389
sba(isaltybot
Fighter
p390
(dp391
g4
I0
sg5
S'Freedom gundam (2) - $212,060\r\n'
p392
sg7
I1
sg8
I0
sg9
F2.6662140414403539
sg10
F0
sg11
S'Freedom gundam'
p393
sba(isaltybot
Fighter
p394
(dp395
g4
I0
sg5
S'Marcia (-1) - $119,076'
p396
sg7
I0
sg8
I1
sg9
F0.71894509316170163
sg10
F0
sg11
S'Marcia'
p397
sba(isaltybot
Fighter
p398
(dp399
g4
I0
sg5
S'Yunfei (-2) - $76,482'
p400
sg7
I0
sg8
I1
sg9
F0.078379408726449898
sg10
F0
sg11
S'Yunfei'
p401
sba(isaltybot
Fighter
p402
(dp403
g4
I0
sg5
S'Filea EX3 (2) - $975,792\r\n'
p404
sg7
I1
sg8
I0
sg9
F12.758452969326116
sg10
F0
sg11
S'Filea EX3'
p405
sba(isaltybot
Fighter
p406
(dp407
g4
I0
sg5
S'Yukari Tanizaki (-3) - $75,805'
p408
sg7
I0
sg8
I1
sg9
F0.13204927656401877
sg10
F0
sg11
S'Yukari Tanizaki'
p409
sba(isaltybot
Fighter
p410
(dp411
g4
I0
sg5
S'Yuiran (-2) - $574,066\r\n'
p412
sg7
I1
sg8
I0
sg9
F7.5729305454785303
sg10
F0
sg11
S'Yuiran'
p413
sba(isaltybot
Fighter
p414
(dp415
g4
I0
sg5
S'Dragon_warrior(dnf) +q (-2) - $66,006'
p416
sg7
I0
sg8
I1
sg9
F0.022736988304949704
sg10
F0
sg11
S'Dragon_warrior(dnf) +q'
p417
sba(isaltybot
Fighter
p418
(dp419
g4
I0
sg5
S'Spidermanu (1) - $2,903,023\r\n'
p420
sg7
I1
sg8
I0
sg9
F43.98119867890798
sg10
F0
sg11
S'Spidermanu'
p421
sba(isaltybot
Fighter
p422
(dp423
g4
I0
sg5
S'Hakurou (1) - $234,058'
p424
sg7
I1
sg8
I0
sg9
F0.78425577826474469
sg10
F0
sg11
S'Hakurou'
p425
sba(isaltybot
Fighter
p426
(dp427
g4
I0
sg5
S'Pocket Akuma (-1) - $298,446\r\n'
p428
sg7
I0
sg8
I1
sg9
F1.275094207418674
sg10
F0
sg11
S'Pocket Akuma'
p429
sba(isaltybot
Fighter
p430
(dp431
g4
I0
sg5
S'Original the character (9) - $28,313'
p432
sg7
I1
sg8
I0
sg9
F0.27073312997829391
sg48
S'S'
sg10
F0
sg11
S'Original the character'
p433
sba(isaltybot
Fighter
p434
(dp435
g4
I0
sg5
S'Uroboros (3) - $104,579\r\n'
p436
sg7
I0
sg8
I1
sg9
F3.693674283897856
sg48
S'S'
sg10
F0
sg11
S'Uroboros'
p437
sba(isaltybot
Fighter
p438
(dp439
g4
I0
sg5
S'Kyosuke shigure (1) - $298,239'
p440
sg7
I0
sg8
I1
sg9
F1.0046588244805563
sg48
S'A'
sg10
F0
sg11
S'Kyosuke shigure'
p441
sba(isaltybot
Fighter
p442
(dp443
g4
I0
sg5
S'Kill bill uma-ex (4) - $296,856\r\n'
p444
sg7
I1
sg8
I0
sg9
F0.99536277951575747
sg48
S'A'
sg10
F0
sg11
S'Kill bill uma-ex'
p445
sba(isaltybot
Fighter
p446
(dp447
g4
I0
sg5
S'A-agito (-1) - $514,810'
p448
sg7
I1
sg8
I0
sg9
F1.307546949370368
sg48
S'S'
sg10
F0
sg11
S'A-agito'
p449
sba(isaltybot
Fighter
p450
(dp451
g4
I0
sg5
S'D4?roll? (-1) - $393,722\r\n'
p452
sg7
I0
sg8
I1
sg9
F0.76479089372778308
sg48
S'S'
sg10
F0
sg11
S'D4?roll?'
p453
sba(isaltybot
Fighter
p454
(dp455
g4
I0
sg5
S'Chinese gouki (-4) - $261,041'
p456
sg7
I0
sg8
I1
sg9
F0.59744079170214126
sg48
S'S'
sg10
F0
sg11
S'Chinese gouki'
p457
sba(isaltybot
Fighter
p458
(dp459
g4
I0
sg5
S'Triceratops (1) - $436,932\r\n'
p460
sg7
I1
sg8
I0
sg9
F1.6738060304703093
sg48
S'S'
sg10
F0
sg11
S'Triceratops'
p461
sba(isaltybot
Fighter
p462
(dp463
g4
I0
sg5
S'Saku (-1) - $410,443'
p464
sg7
I1
sg8
I0
sg9
F1.5304529725859857
sg48
S'A'
sg10
F0
sg11
S'Saku'
p465
sba(isaltybot
Fighter
p466
(dp467
g4
I0
sg5
S'Khan ex (-1) - $268,184\r\n'
p468
sg7
I0
sg8
I1
sg9
F0.65340132490991443
sg48
S'A'
sg10
F0
sg11
S'Khan ex'
p469
sba(isaltybot
Fighter
p470
(dp471
g4
I0
sg5
S'Zero Hotaru (-8) - $74,053'
p472
sg7
I0
sg8
I1
sg9
F0.12805822825086982
sg48
S'B'
sg10
F0
sg11
S'Zero Hotaru'
p473
sba(isaltybot
Fighter
p474
(dp475
g4
I0
sg5
S'Ronove (3) - $578,276\r\n'
p476
sg7
I1
sg8
I0
sg9
F7.8089476456051745
sg48
S'B'
sg10
F0
sg11
S'Ronove'
p477
sba(isaltybot
Fighter
p478
(dp479
g4
I0
sg5
S'General bush (-1) - $58,021'
p480
sg7
I0
sg8
I2
sg9
F0.098276535001392107
sg48
S'B'
sg10
F0
sg11
S'General bush'
p481
sba(isaltybot
Fighter
p482
(dp483
g4
I0
sg5
S'Strawbelly jam (4) - $934,235\r\n'
p484
sg7
I1
sg8
I0
sg9
F16.101670084969236
sg48
S'B'
sg10
F0
sg11
S'Strawbelly jam'
p485
sba(isaltybot
Fighter
p486
(dp487
g4
I0
sg5
S'Mahvel ryu (-1) - $2,072,244'
p488
sg7
I1
sg8
I0
sg9
F35.070471161657188
sg48
S'S'
sg10
F0
sg11
S'Mahvel ryu'
p489
sba(isaltybot
Fighter
p490
(dp491
g4
I0
sg5
S'Sittara (1) - $59,088\r\n'
p492
sg7
I0
sg8
I2
sg9
F0.21218310894333439
sg48
S'S'
sg10
F0
sg11
S'Sittara'
p493
sba(isaltybot
Fighter
p494
(dp495
g4
I0
sg5
S'Sentinel (6) - $247,899\r\n'
p496
sg7
I0
sg8
I1
sg9
F0.98378084496757756
sg48
S'A'
sg10
F0
sg11
S'Sentinel'
p497
sba(isaltybot
Fighter
p498
(dp499
g4
I0
sg5
S'Lucario (-3) - $310,654'
p500
sg7
I0
sg8
I1
sg9
F1.9444677428440877
sg48
S'A'
sg10
F0
sg11
S'Lucario'
p501
sba(isaltybot
Fighter
p502
(dp503
g4
I0
sg5
S'Rugal (-2) - $159,763\r\n'
p504
sg7
I1
sg8
I0
sg9
F0.51427955217058208
sg48
S'A'
sg10
F0
sg11
S'Rugal'
p505
sba(isaltybot
Fighter
p506
(dp507
g4
I0
sg5
S'Venom GG (1) - $328,885'
p508
sg7
I1
sg8
I0
sg9
F0.84579103970950165
sg48
S'S'
sg10
F0
sg11
S'Venom GG'
p509
sba(isaltybot
Fighter
p510
(dp511
g4
I0
sg5
S'Shingo EX2 (-3) - $388,849\r\n'
p512
sg7
I0
sg8
I1
sg9
F1.182325128844429
sg48
S'S'
sg10
F0
sg11
S'Shingo EX2'
p513
sba(isaltybot
Fighter
p514
(dp515
g4
I0
sg5
S'Shinsaku maekawa (4) - $535,189'
p516
sg7
I1
sg8
I0
sg9
F3.4688336520076484
sg48
S'B'
sg10
F0
sg11
S'Shinsaku maekawa'
p517
sba(isaltybot
Fighter
p518
(dp519
g4
I0
sg5
S'Radel (1) - $154,285\r\n'
p520
sg7
I0
sg8
I1
sg9
F0.28828133612611617
sg48
S'B'
sg10
F0
sg11
S'Radel'
p521
sba(isaltybot
Fighter
p522
(dp523
g4
I0
sg5
S'Orochimaru (-3) - $130,297'
p524
sg7
I1
sg8
I0
sg9
F0.37998874297529578
sg48
S'B'
sg10
F0
sg11
S'Orochimaru'
p525
sba(isaltybot
Fighter
p526
(dp527
g4
I0
sg5
S'Thin nen (3) - $342,897\r\n'
p528
sg7
I0
sg8
I1
sg9
F2.631656906912669
sg48
S'B'
sg10
F0
sg11
S'Thin nen'
p529
sba(isaltybot
Fighter
p530
(dp531
g4
I0
sg5
S'Sailor mercury EX (-2) - $552,028'
p532
sg7
I1
sg8
I0
sg9
F5.9216493960653063
sg48
S'B'
sg10
F0
sg11
S'Sailor mercury EX'
p533
sba(isaltybot
Fighter
p534
(dp535
g4
I0
sg5
S'Regina (1) - $93,222\r\n'
p536
sg7
I0
sg8
I1
sg9
F0.16887186881824834
sg48
S'B'
sg10
F0
sg11
S'Regina'
p537
sba(isaltybot
Fighter
p538
(dp539
g4
I0
sg5
S'Mariabell armitage (2) - $521,811'
p540
sg7
I1
sg8
I0
sg9
F1.6877856447444601
sg48
S'A'
sg10
F0
sg11
S'Mariabell armitage'
p541
sba(isaltybot
Fighter
p542
(dp543
g4
I0
sg5
S'Munch (-3) - $309,169\r\n'
p544
sg7
I0
sg8
I1
sg9
F0.59249230085222426
sg48
S'A'
sg10
F0
sg11
S'Munch'
p545
sba(isaltybot
Fighter
p546
(dp547
g4
I0
sg5
S'Nightwolf (-1) - $634,005'
p548
sg7
I1
sg8
I0
sg9
F6.1255338061100266
sg48
S'B'
sg10
F0
sg11
S'Nightwolf'
p549
sba(isaltybot
Fighter
p550
(dp551
g4
I0
sg5
S'Holy god earth (-1) - $103,502\r\n'
p552
sg7
I0
sg8
I1
sg9
F0.16325107846152634
sg48
S'B'
sg10
F0
sg11
S'Holy god earth'
p553
sba(isaltybot
Fighter
p554
(dp555
g4
I0
sg5
S'E-terry 71113 (-2) - $263,579'
p556
sg7
I0
sg8
I1
sg9
F0.763417346826468
sg48
S'A'
sg10
F0
sg11
S'E-terry 71113'
p557
sba(isaltybot
Fighter
p558
(dp559
g4
I0
sg5
S'Samchay ex (4) - $345,262\r\n'
p560
sg7
I1
sg8
I0
sg9
F1.309899498821985
sg48
S'A'
sg10
F0
sg11
S'Samchay ex'
p561
sba(isaltybot
Fighter
p562
(dp563
g4
I0
sg5
S'Super androide 17 hd (2) - $231,409'
p564
sg7
I0
sg8
I1
sg9
F0.61830088760400359
sg48
S'S'
sg10
F0
sg11
S'Super androide 17 hd'
p565
sba(isaltybot
Fighter
p566
(dp567
g4
I0
sg5
S'Mageko EX (1) - $374,266\r\n'
p568
sg7
I1
sg8
I0
sg9
F1.6173355401043175
sg48
S'S'
sg10
F0
sg11
S'Mageko EX'
p569
sba(isaltybot
Fighter
p570
(dp571
g4
I0
sg5
S'Arrange_unknown (-4) - $336,915'
p572
sg7
I0
sg8
I1
sg9
F3.1872835979036194
sg48
S'S'
sg10
F0
sg11
S'Arrange_unknown'
p573
sba(isaltybot
Fighter
p574
(dp575
g4
I0
sg5
S'Fang 0d (-3) - $105,706\r\n'
p576
sg7
I1
sg8
I0
sg9
F0.31374679073356782
sg48
S'S'
sg10
F0
sg11
S'Fang 0d'
p577
sba(isaltybot
Fighter
p578
(dp579
g4
I0
sg5
S'Kung fu head (-1) - $488,934'
p580
sg7
I0
sg8
I1
sg9
F2.0540424727456048
sg48
S'S'
sg10
F0
sg11
S'Kung fu head'
p581
sba(isaltybot
Fighter
p582
(dp583
g4
I0
sg5
S'Kim sueil (1) - $238,035\r\n'
p584
sg7
I1
sg8
I0
sg9
F0.48684485022518376
sg48
S'S'
sg10
F0
sg11
S'Kim sueil'
p585
sba(isaltybot
Fighter
p586
(dp587
g4
I0
sg5
S'Vegeta ssj5 (-1) - $256,994'
p588
sg7
I0
sg8
I1
sg9
F0.83401700525735056
sg48
S'B'
sg10
F0
sg11
S'Vegeta ssj5'
p589
sba(isaltybot
Fighter
p590
(dp591
g4
I0
sg5
S'The Sailor Man (-5) - $308,140\r\n'
p592
sg7
I1
sg8
I1
sg9
F0.86609371538701707
sg48
S'B'
sg10
F0
sg11
S'The Sailor Man'
p593
sba(isaltybot
Fighter
p594
(dp595
g4
I0
sg5
S'Trunks EX3 (3) - $382,201'
p596
sg7
I0
sg8
I1
sg9
F1.8224433646927556
sg48
S'A'
sg10
F0
sg11
S'Trunks EX3'
p597
sba(isaltybot
Fighter
p598
(dp599
g4
I0
sg5
S'Miyuki (1) - $209,719\r\n'
p600
sg7
I1
sg8
I0
sg9
F0.54871389661460857
sg48
S'A'
sg10
F0
sg11
S'Miyuki'
p601
sba(isaltybot
Fighter
p602
(dp603
g4
I0
sg5
S'Killer whale (-2) - $1,665,713'
p604
sg7
I2
sg8
I0
sg9
F14.190366316573801
sg48
S'Unknown'
p605
sg10
F0
sg11
S'Killer whale'
p606
sba(isaltybot
Fighter
p607
(dp608
g4
I0
sg5
S'Another blood k (3) - $104,157\r\n'
p609
sg7
I0
sg8
I1
sg9
F0.06252997965435822
sg48
S'S'
sg10
F0
sg11
S'Another blood k'
p610
sba(isaltybot
Fighter
p611
(dp612
g4
I0
sg5
S'Ivy (-6) - $349,733'
p613
sg7
I0
sg8
I1
sg9
F2.205473750591203
sg48
S'B'
sg10
F0
sg11
S'Ivy'
p614
sba(isaltybot
Fighter
p615
(dp616
g4
I0
sg5
S'Blaze EX2 (-5) - $158,575\r\n'
p617
sg7
I1
sg8
I0
sg9
F0.4534173212136115
sg48
S'B'
sg10
F0
sg11
S'Blaze EX2'
p618
sba(isaltybot
Fighter
p619
(dp620
g4
I0
sg5
S'Seikimatsukyu-seisya kenshirou (-2) - $754,863'
p621
sg7
I0
sg8
I1
sg9
F7.5622420356641955
sg48
S'X'
sg10
F0
sg11
S'Seikimatsukyu-seisya kenshirou'
p622
sba(isaltybot
Fighter
p623
(dp624
g4
I0
sg5
S'Himan zellode (-1) - $99,820\r\n'
p625
sg7
I1
sg8
I0
sg9
F0.13223591565621842
sg48
S'X'
sg10
F0
sg11
S'Himan zellode'
p626
sba(isaltybot
Fighter
p627
(dp628
g4
I0
sg5
S'Oyashiro_chie (4) - $1,114,440'
p629
sg7
I1
sg8
I0
sg9
F10.523711495967818
sg48
S'S'
sg10
F0
sg11
S'Oyashiro_chie'
p630
sba(isaltybot
Fighter
p631
(dp632
g4
I0
sg5
S'Atari dragon EX2 (2) - $105,898\r\n'
p633
sg7
I0
sg8
I1
sg9
F0.095023509565342237
sg48
S'S'
sg10
F0
sg11
S'Atari dragon EX2'
p634
sba(isaltybot
Fighter
p635
(dp636
g4
I0
sg5
S'Sasquatch (-4) - $222,900'
p637
sg7
I0
sg8
I1
sg9
F0.44867240070934122
sg48
S'S'
sg10
F0
sg11
S'Sasquatch'
p638
sba(isaltybot
Fighter
p639
(dp640
g4
I0
sg5
S'Haohmaru (3) - $496,799\r\n'
p641
sg7
I1
sg8
I0
sg9
F2.2287976671152983
sg48
S'S'
sg10
F0
sg11
S'Haohmaru'
p642
sba(isaltybot
Fighter
p643
(dp644
g4
I0
sg5
S'Peach mizuki (1) - $422,950'
p645
sg7
I1
sg8
I0
sg9
F2.4535766702826876
sg48
S'B'
sg10
F0
sg11
S'Peach mizuki'
p646
sba(isaltybot
Fighter
p647
(dp648
g4
I0
sg5
S'Galvatron (1) - $172,381\r\n'
p649
sg7
I0
sg8
I1
sg9
F0.40756827048114436
sg48
S'B'
sg10
F0
sg11
S'Galvatron'
p650
sba(isaltybot
Fighter
p651
(dp652
g4
I0
sg5
S'Millia (12) - $2,510,450'
p653
sg7
I1
sg8
I0
sg9
F43.689632968448166
sg48
S'S'
sg10
F0
sg11
S'Millia'
p654
sba(isaltybot
Fighter
p655
(dp656
g4
I0
sg5
S'Lin EX (1) - $57,461\r\n'
p657
sg7
I0
sg8
I1
sg9
F0.022888725128960945
sg48
S'S'
sg10
F0
sg11
S'Lin EX'
p658
sba(isaltybot
Fighter
p659
(dp660
g4
I0
sg5
S'Makendo (-1) - $231,634'
p661
sg7
I0
sg8
I1
sg9
F0.99024012790861715
sg48
S'A'
sg10
F0
sg11
S'Makendo'
p662
sba(isaltybot
Fighter
p663
(dp664
g4
I0
sg5
S'Sheng long (-3) - $233,917\r\n'
p665
sg7
I1
sg8
I0
sg9
F1.0098560660352107
sg48
S'A'
sg10
F0
sg11
S'Sheng long'
p666
sba(isaltybot
Fighter
p667
(dp668
g4
I0
sg5
S'Demoniho (2) - $405,394'
p669
sg7
I1
sg8
I0
sg9
F9.3767405282879217
sg48
S'B'
sg10
F0
sg11
S'Demoniho'
p670
sba(isaltybot
Fighter
p671
(dp672
g4
I0
sg5
S'Carol (1) - $43,234\r\n'
p673
sg7
I0
sg8
I1
sg9
F0.10664686699852489
sg48
S'B'
sg10
F0
sg11
S'Carol'
p674
sba(isaltybot
Fighter
p675
(dp676
g4
I0
sg5
S'Reika EX3 (1) - $105,474'
p677
sg7
I0
sg8
I1
sg9
F0.2661999237799107
sg48
S'B'
sg10
F0
sg11
S'Reika EX3'
p678
sba(isaltybot
Fighter
p679
(dp680
g4
I0
sg5
S'Zangoose (-1) - $396,221\r\n'
p681
sg7
I1
sg8
I0
sg9
F3.7565750801145308
sg48
S'B'
sg10
F0
sg11
S'Zangoose'
p682
sba(isaltybot
Fighter
p683
(dp684
g4
I0
sg5
S'Vita (5) - $175,417'
p685
sg7
I0
sg8
I1
sg9
F0.51689773547655182
sg48
S'B'
sg10
F0
sg11
S'Vita'
p686
sba(isaltybot
Fighter
p687
(dp688
g4
I0
sg5
S'Chizuru 71113 (1) - $339,365\r\n'
p689
sg7
I1
sg8
I0
sg9
F1.9346186515560067
sg48
S'B'
sg10
F0
sg11
S'Chizuru 71113'
p690
sba(isaltybot
Fighter
p691
(dp692
g4
I0
sg5
S'Orsted (-5) - $79,132'
p693
sg7
I0
sg8
I1
sg9
F0.30585015924059245
sg48
S'S'
sg10
F0
sg11
S'Orsted'
p694
sba(isaltybot
Fighter
p695
(dp696
g4
I0
sg5
S'Ciel EX3 (2) - $258,728\r\n'
p697
sg7
I1
sg8
I0
sg9
F3.2695748875296973
sg48
S'S'
sg10
F0
sg11
S'Ciel EX3'
p698
sba(isaltybot
Fighter
p699
(dp700
g4
I0
sg5
S'Clayface (-3) - $252,684'
p701
sg7
I1
sg8
I1
sg9
F0.78613404610596505
sg48
g605
sg10
F0
sg11
S'Clayface'
p702
sba(isaltybot
Fighter
p703
(dp704
g4
I0
sg5
S'Nico robin (1) - $73,845\r\n'
p705
sg7
I0
sg8
I1
sg9
F0.29224248468442798
sg48
S'B'
sg10
F0
sg11
S'Nico robin'
p706
sba(isaltybot
Fighter
p707
(dp708
g4
I0
sg5
S'Wonder Woman Reloaded (-2) - $298,049'
p709
sg7
I0
sg8
I1
sg9
F1.8895792256534778
sg48
S'A'
sg10
F0
sg11
S'Wonder Woman Reloaded'
p710
sba(isaltybot
Fighter
p711
(dp712
g4
I0
sg5
S'Rin_tohsaka (-1) - $157,733\r\n'
p713
sg7
I1
sg8
I0
sg9
F0.52921835000285189
sg48
S'A'
sg10
F0
sg11
S'Rin_tohsaka'
p714
sba(isaltybot
Fighter
p715
(dp716
g4
I0
sg5
S'Lloyd irving (-2) - $152,768'
p717
sg7
I0
sg8
I1
sg9
F0.39340344660644205
sg48
S'A'
sg10
F0
sg11
S'Lloyd irving'
p718
sba(isaltybot
Fighter
p719
(dp720
g4
I0
sg5
S'Haggar ex (1) - $388,324\r\n'
p721
sg7
I1
sg8
I0
sg9
F2.5419197737746124
sg48
S'A'
sg10
F0
sg11
S'Haggar ex'
p722
sba(isaltybot
Fighter
p723
(dp724
g4
I0
sg5
S'Etomo shuko EX3 (1) - $128,934'
p725
sg7
I1
sg8
I0
sg9
F2.8547958551058366
sg48
S'A'
sg10
F0
sg11
S'Etomo shuko EX3'
p726
sba(isaltybot
Fighter
p727
(dp728
g4
I0
sg5
S'John anderson (-6) - $84,077'
p729
sg7
I0
sg8
I1
sg9
F0.14722197902257086
sg48
S'A'
sg10
F0
sg11
S'John anderson'
p730
sba(isaltybot
Fighter
p731
(dp732
g4
I0
sg5
S'Fujibayashi suzu (-1) - $571,090\r\n'
p733
sg7
I1
sg8
I0
sg9
F6.7924640508105663
sg48
S'A'
sg10
F0
sg11
S'Fujibayashi suzu'
p734
sba(isaltybot
Fighter
p735
(dp736
g4
I0
sg5
S'Jin CVS (-2) - $330,472'
p737
sg7
I1
sg8
I1
sg9
F0.88799750072744532
sg48
S'B'
sg10
F0
sg11
S'Jin CVS'
p738
sba(isaltybot
Fighter
p739
(dp740
g4
I0
sg5
S'Leo (-4) - $414,170\r\n'
p741
sg7
I0
sg8
I1
sg9
F1.2532680529666658
sg48
S'B'
sg10
F0
sg11
S'Leo'
p742
sba(isaltybot
Fighter
p743
(dp744
g4
I0
sg5
S'Balrog_a (-4) - $93,166'
p745
sg7
I0
sg8
I1
sg9
F0.16080514764261994
sg48
S'B'
sg10
F0
sg11
S'Balrog_a'
p746
sba(isaltybot
Fighter
p747
(dp748
g4
I0
sg5
S'Yoshi EX2 (1) - $579,372\r\n'
p749
sg7
I1
sg8
I0
sg9
F6.2187063950368158
sg48
S'B'
sg10
F0
sg11
S'Yoshi EX2'
p750
sba(isaltybot
Fighter
p751
(dp752
g4
I0
sg5
S'T ninja (2) - $108,606'
p753
sg7
I0
sg8
I1
sg9
F0.33703137073574913
sg48
S'B'
sg10
F0
sg11
S'T ninja'
p754
sba(isaltybot
Fighter
p755
(dp756
g4
I0
sg5
S'Sf4 omni (5) - $322,243\r\n'
p757
sg7
I1
sg8
I0
sg9
F2.9670828499346262
sg48
S'B'
sg10
F0
sg11
S'Sf4 omni'
p758
sba(isaltybot
Fighter
p759
(dp760
g4
I0
sg5
S'Geese EX2 (4) - $917,641'
p761
sg7
I1
sg8
I0
sg9
F24.294212644286773
sg48
S'B'
sg10
F0
sg11
S'Geese EX2'
p762
sba(isaltybot
Fighter
p763
(dp764
g4
I0
sg5
S'Mr2.bon kure (-1) - $37,772\r\n'
p765
sg7
I0
sg8
I1
sg9
F0.041162066646978503
sg48
S'B'
sg10
F0
sg11
S'Mr2.bon kure'
p766
sba(isaltybot
Fighter
p767
(dp768
g4
I0
sg5
S'Charlotte (1) - $110,432'
p769
sg7
I0
sg8
I2
sg9
F0.61294759211558991
sg48
S'A'
sg10
F0
sg11
S'Charlotte'
p770
sba(isaltybot
Fighter
p771
(dp772
g4
I0
sg5
S'Gen shougo (-1) - $499,778\r\n'
p773
sg7
I2
sg8
I0
sg9
F4.7213465030206683
sg48
S'A'
sg10
F0
sg11
S'Gen shougo'
p774
sba(isaltybot
Fighter
p775
(dp776
g4
I0
sg5
S'The Colonel (0) - $167,181'
p777
sg7
I1
sg8
I0
sg9
F1.3397845843150455
sg48
S'A'
sg10
F0
sg11
S'The Colonel'
p778
sba(isaltybot
Fighter
p779
(dp780
g4
I0
sg5
S'The manticore, the queen, and the dragon (-1) - $124,782\r\n'
p781
sg7
I0
sg8
I1
sg9
F0.74638864464263288
sg48
S'A'
sg10
F0
sg11
S'The manticore, the queen, and the dragon'
p782
sba(isaltybot
Fighter
p783
(dp784
g4
I0
sg5
S'Dokuro chan (1) - $969,525'
p785
sg7
I1
sg8
I0
sg9
F7.073365580336624
sg48
S'S'
sg10
F0
sg11
S'Dokuro chan'
p786
sba(isaltybot
Fighter
p787
(dp788
g4
I0
sg5
S'Nanaya_reaver (2) - $137,067\r\n'
p789
sg7
I0
sg8
I1
sg9
F0.14137541579639515
sg48
S'S'
sg10
F0
sg11
S'Nanaya_reaver'
p790
sba(isaltybot
Fighter
p791
(dp792
g4
I0
sg5
S'Yorihime watatsuki (4) - $8,263,138'
p793
sg7
I1
sg8
I0
sg9
F59.899080108154344
sg48
S'X'
sg10
F0
sg11
S'Yorihime watatsuki'
p794
sba(isaltybot
Fighter
p795
(dp796
g4
I0
sg5
S'Super homer (-1) - $137,951\r\n'
p797
sg7
I0
sg8
I1
sg9
F0.016694747201365875
sg48
S'X'
sg10
F0
sg11
S'Super homer'
p798
sba(isaltybot
Fighter
p799
(dp800
g4
I0
sg5
S'Missing iq gomes (-1) - $349,852'
p801
sg7
I0
sg8
I1
sg9
F1.8305932584739999
sg48
S'A'
sg10
F0
sg11
S'Missing iq gomes'
p802
sba(isaltybot
Fighter
p803
(dp804
g4
I0
sg5
S'Gigant (1) - $191,114\r\n'
p805
sg7
I1
sg8
I0
sg9
F0.5462709945919989
sg48
S'A'
sg10
F0
sg11
S'Gigant'
p806
sba(isaltybot
Fighter
p807
(dp808
g4
I0
sg5
S'Sugoi cirno (-2) - $555,300'
p809
sg7
I1
sg8
I0
sg9
F3.0395086866563763
sg48
S'A'
sg10
F0
sg11
S'Sugoi cirno'
p810
sba(isaltybot
Fighter
p811
(dp812
g4
I0
sg5
S'Gustoff EX3 (-1) - $182,694\r\n'
p813
sg7
I0
sg8
I2
sg9
F1.090054303151861
sg48
S'A'
sg10
F0
sg11
S'Gustoff EX3'
p814
sba(isaltybot
Fighter
p815
(dp816
g4
I0
sg5
S'Haru-chan (1) - $2,372,514'
p817
sg7
I1
sg8
I0
sg9
F11.725788675104901
sg48
S'B'
sg10
F0
sg11
S'Haru-chan'
p818
sba(isaltybot
Fighter
p819
(dp820
g4
I0
sg5
S'Keith wayne (-1) - $202,333\r\n'
p821
sg7
I0
sg8
I1
sg9
F0.085282110031805927
sg48
S'B'
sg10
F0
sg11
S'Keith wayne'
p822
sba(isaltybot
Fighter
p823
(dp824
g4
I0
sg5
S'Orochi(rance) (-1) - $197,922'
p825
sg7
I0
sg8
I1
sg9
F0.47546544310183292
sg48
S'X'
sg10
F0
sg11
S'Orochi(rance)'
p826
sba(isaltybot
Fighter
p827
(dp828
g4
I0
sg5
S'Remilia (-5) - $416,270\r\n'
p829
sg7
I1
sg8
I0
sg9
F2.1032022716019441
sg48
S'X'
sg10
F0
sg11
S'Remilia'
p830
sba(isaltybot
Fighter
p831
(dp832
g4
I0
sg5
S'Galactus (2) - $793,608'
p833
sg7
I1
sg8
I0
sg9
F7.1975403814585395
sg48
S'S'
sg10
F0
sg11
S'Galactus'
p834
sba(isaltybot
Fighter
p835
(dp836
g4
I0
sg5
S'Ssj three broli (1) - $49,035'
p837
sg7
I0
sg8
I1
sg9
F0.096806099564091225
sg48
S'B'
sg10
F0
sg11
S'Ssj three broli'
p838
sba(isaltybot
Fighter
p839
(dp840
g4
I0
sg5
S'Athena asamiya (5) - $506,528\r\n'
p841
sg7
I1
sg8
I0
sg9
F10.329927602732742
sg48
S'B'
sg10
F0
sg11
S'Athena asamiya'
p842
sba(isaltybot
Fighter
p843
(dp844
g4
I0
sg5
S'Aoba (-4) - $92,636'
p845
sg7
I0
sg8
I1
sg9
F0.082543637120221836
sg48
S'S'
sg10
F0
sg11
S'Aoba'
p846
sba(isaltybot
Fighter
p847
(dp848
g4
I0
sg5
S'Dark eternal champion (5) - $1,122,267\r\n'
p849
sg7
I1
sg8
I0
sg9
F12.11480417980051
sg48
S'S'
sg10
F0
sg11
S'Dark eternal champion'
p850
sba(isaltybot
Fighter
p851
(dp852
g4
I0
sg5
S'Kaede kasiwagi (-2) - $367,175'
p853
sg7
I1
sg8
I0
sg9
F0.92621321507671039
sg48
S'S'
sg10
F0
sg11
S'Kaede kasiwagi'
p854
sba(isaltybot
Fighter
p855
(dp856
g4
I0
sg5
S'Tin star (-3) - $396,426\r\n'
p857
sg7
I0
sg8
I1
sg9
F1.0796650098726766
sg48
S'S'
sg10
F0
sg11
S'Tin star'
p858
sba(isaltybot
Fighter
p859
(dp860
g4
I0
sg5
S'Pocket Sakura (2) - $257,881'
p861
sg7
I1
sg8
I0
sg9
F1.1163438020822061
sg48
S'B'
sg10
F0
sg11
S'Pocket Sakura'
p862
sba(isaltybot
Fighter
p863
(dp864
g4
I0
sg5
S'Ralf 2k2 (1) - $231,005\r\n'
p865
sg7
I0
sg8
I1
sg9
F0.89578138753921377
sg48
S'B'
sg10
F0
sg11
S'Ralf 2k2'
p866
sba(isaltybot
Fighter
p867
(dp868
g4
I0
sg5
S'Kogasa_f (-1) - $107,350'
p869
sg7
I2
sg8
I0
sg9
F1.2877234527927786
sg48
S'B'
sg10
F0
sg11
S'Kogasa_f'
p870
sba(isaltybot
Fighter
p871
(dp872
g4
I0
sg5
S'Axearmor (-1) - $250,366\r\n'
p873
sg7
I0
sg8
I1
sg9
F2.3322403353516536
sg48
S'B'
sg10
F0
sg11
S'Axearmor'
p874
sba(isaltybot
Fighter
p875
(dp876
g4
I0
sg5
S'Kisarah-n (-1) - $630,867'
p877
sg7
I1
sg8
I0
sg9
F9.743721619868408
sg48
S'A'
sg10
F0
sg11
S'Kisarah-n'
p878
sba(isaltybot
Fighter
p879
(dp880
g4
I0
sg5
S'Toyohime EX2 (-6) - $64,746\r\n'
p881
sg7
I0
sg8
I1
sg9
F0.10263018988154397
sg48
S'A'
sg10
F0
sg11
S'Toyohime EX2'
p882
sba(isaltybot
Fighter
p883
(dp884
g4
I0
sg5
S'Geese (-8) - $136,741'
p885
sg7
I0
sg8
I1
sg9
F0.004318792934943548
sg48
S'B'
sg10
F0
sg11
S'Geese'
p886
sba(isaltybot
Fighter
p887
(dp888
g4
I0
sg5
S'Annoying orange (3) - $31,661,856\r\n'
p889
sg7
I1
sg8
I0
sg9
F231.546178541915
sg48
S'B'
sg10
F0
sg11
S'Annoying orange'
p890
sba(isaltybot
Fighter
p891
(dp892
g4
I0
sg5
S'Saizo (-3) - $573,624'
p893
sg7
I1
sg8
I0
sg9
F4.0823553692540901
sg48
S'S'
sg10
F0
sg11
S'Saizo'
p894
sba(isaltybot
Fighter
p895
(dp896
g4
I0
sg5
S'Baby bonnie hood EX3 (-2) - $140,513\r\n'
p897
sg7
I0
sg8
I1
sg9
F0.2449566266404474
sg48
S'S'
sg10
F0
sg11
S'Baby bonnie hood EX3'
p898
sba(isaltybot
Fighter
p899
(dp900
g4
I0
sg5
S'Mictlan (8) - $185,096'
p901
sg7
I1
sg8
I0
sg9
F0.39991703324719768
sg48
S'S'
sg10
F0
sg11
S'Mictlan'
p902
sba(isaltybot
Fighter
p903
(dp904
g4
I0
sg5
S'Regin (1) - $462,836\r\n'
p905
sg7
I0
sg8
I1
sg9
F2.5005186497817351
sg48
S'S'
sg10
F0
sg11
S'Regin'
p906
sba(isaltybot
Fighter
p907
(dp908
g4
I0
sg5
S'Antlar (2) - $672,323'
p909
sg7
I2
sg8
I0
sg9
F6.7057186821579871
sg48
S'S'
sg10
F0
sg11
S'Antlar'
p910
sba(isaltybot
Fighter
p911
(dp912
g4
I0
sg5
S'Amiba EX (-1) - $212,476\r\n'
p913
sg7
I0
sg8
I1
sg9
F0.31603262122521469
sg48
S'S'
sg10
F0
sg11
S'Amiba EX'
p914
sba(isaltybot
Fighter
p915
(dp916
g4
I0
sg5
S'Shishin (5) - $355,812'
p917
sg7
I1
sg8
I0
sg9
F1.1712047399605003
sg48
S'A'
sg10
F0
sg11
S'Shishin'
p918
sba(isaltybot
Fighter
p919
(dp920
g4
I0
sg5
S'Jin EX (1) - $303,800\r\n'
p921
sg7
I0
sg8
I1
sg9
F0.85382168111249757
sg48
S'A'
sg10
F0
sg11
S'Jin EX'
p922
sba(isaltybot
Fighter
p923
(dp924
g4
I0
sg5
S'Yami_miko EX (9) - $562,325'
p925
sg7
I0
sg8
I1
sg9
F3.8406242529795445
sg48
S'S'
sg10
F0
sg11
S'Yami_miko EX'
p926
sba(isaltybot
Fighter
p927
(dp928
g4
I0
sg5
S'Nail (1) - $146,415\r\n'
p929
sg7
I1
sg8
I0
sg9
F0.26037433868314586
sg48
S'S'
sg10
F0
sg11
S'Nail'
p930
sba(isaltybot
Fighter
p931
(dp932
g4
I0
sg5
S'Ochamaro (-5) - $456,877'
p933
sg7
I1
sg8
I0
sg9
F2.0766003672526954
sg48
S'B'
sg10
F0
sg11
S'Ochamaro'
p934
sba(isaltybot
Fighter
p935
(dp936
g4
I0
sg5
S'Finn and jake (-3) - $220,012\r\n'
p937
sg7
I0
sg8
I1
sg9
F0.48155630508867814
sg48
S'B'
sg10
F0
sg11
S'Finn and jake'
p938
sba(isaltybot
Fighter
p939
(dp940
g4
I0
sg5
S'Alien baltan 6th (-7) - $192,518\r\n'
p941
sg7
I1
sg8
I0
sg9
F0.77467044375412453
sg48
S'S'
sg10
F0
sg11
S'Alien baltan 6th'
p942
sba(isaltybot
Fighter
p943
(dp944
g4
I0
sg5
S'Cyborg EX (-1) - $242,912'
p945
sg7
I0
sg8
I1
sg9
F0.75616042634259317
sg48
S'B'
sg10
F0
sg11
S'Cyborg EX'
p946
sba(isaltybot
Fighter
p947
(dp948
g4
I0
sg5
S'Hatchetman (1) - $321,244\r\n'
p949
sg7
I1
sg8
I0
sg9
F1.3224706889737847
sg48
S'B'
sg10
F0
sg11
S'Hatchetman'
p950
sba(isaltybot
Fighter
p951
(dp952
g4
I0
sg5
S'Godman (-7) - $163,318'
p953
sg7
I0
sg8
I1
sg9
F0.29220281972375295
sg48
S'B'
sg10
F0
sg11
S'Godman'
p954
sba(isaltybot
Fighter
p955
(dp956
g4
I0
sg5
S'Eagle (-1) - $558,920\r\n'
p957
sg7
I1
sg8
I0
sg9
F3.4222804589818634
sg48
S'B'
sg10
F0
sg11
S'Eagle'
p958
sba(isaltybot
Fighter
p959
(dp960
g4
I0
sg5
S'Deidara nzc (1) - $675,903'
p961
sg7
I1
sg8
I0
sg9
F9.3122675043399195
sg48
S'B'
sg10
F0
sg11
S'Deidara nzc'
p962
sba(isaltybot
Fighter
p963
(dp964
g4
I0
sg5
S'Bad mr frosty (-8) - $72,582\r\n'
p965
sg7
I0
sg8
I1
sg9
F0.10738523131277714
sg48
S'B'
sg10
F0
sg11
S'Bad mr frosty'
p966
sba(isaltybot
Fighter
p967
(dp968
g4
I0
sg5
S'Rider (-6) - $249,268'
p969
sg7
I0
sg8
I1
sg9
F0.57163693069761046
sg48
S'S'
sg10
F0
sg11
S'Rider'
p970
sba(isaltybot
Fighter
p971
(dp972
g4
I0
sg5
S'Gallon EX2 (1) - $436,060\r\n'
p973
sg7
I1
sg8
I0
sg9
F1.749362132323443
sg48
S'S'
sg10
F0
sg11
S'Gallon EX2'
p974
sba(isaltybot
Fighter
p975
(dp976
g4
I0
sg5
S'Dragon rider (-6) - $63,735\r\n'
p977
sg7
I0
sg8
I1
sg9
F0.44624228081721817
sg48
S'B'
sg10
F0
sg11
S'Dragon rider'
p978
sba(isaltybot
Fighter
p979
(dp980
g4
I0
sg5
S'Generals (2) - $99,128'
p981
sg7
I0
sg8
I1
sg9
F0.12736706043793669
sg48
S'X'
sg10
F0
sg11
S'Generals'
p982
sba(isaltybot
Fighter
p983
(dp984
g4
I0
sg5
S'Circuit-geese (-3) - $778,286\r\n'
p985
sg7
I1
sg8
I0
sg9
F7.8513235412799611
sg48
S'X'
sg10
F0
sg11
S'Circuit-geese'
p986
sba(isaltybot
Fighter
p987
(dp988
g4
I0
sg5
S'Phobos(yanagi_ai) (-1) - $100,265'
p989
sg7
I0
sg8
I1
sg9
F0.058563131248233147
sg48
S'X'
sg10
F0
sg11
S'Phobos(yanagi_ai)'
p990
sba(isaltybot
Fighter
p991
(dp992
g4
I0
sg5
S'Kaeru (4) - $1,712,084\r\n'
p993
sg7
I1
sg8
I0
sg9
F17.075589687328581
sg48
S'X'
sg10
F0
sg11
S'Kaeru'
p994
sba(isaltybot
Fighter
p995
(dp996
g4
I0
sg5
S'Crilin sposato (-5) - $172,337'
p997
sg7
I0
sg8
I1
sg9
F0.35005931246292971
sg48
S'B'
sg10
F0
sg11
S'Crilin sposato'
p998
sba(isaltybot
Fighter
p999
(dp1000
g4
I0
sg5
S'Maxime (-2) - $492,308\r\n'
p1001
sg7
I1
sg8
I0
sg9
F2.8566587558098377
sg48
S'B'
sg10
F0
sg11
S'Maxime'
p1002
sba(isaltybot
Fighter
p1003
(dp1004
g4
I0
sg5
S'Dark donald (26) - $2,704,032'
p1005
sg7
I1
sg8
I0
sg9
F1.6539949561090963
sg48
S'X'
sg10
F0
sg11
S'Dark donald'
p1006
sba(isaltybot
Fighter
p1007
(dp1008
g4
I0
sg5
S'Mother (1) - $1,634,849\r\n'
p1009
sg7
I0
sg8
I1
sg9
F0.60459676512703997
sg48
S'X'
sg10
F0
sg11
S'Mother'
p1010
sba(isaltybot
Fighter
p1011
(dp1012
g4
I0
sg5
S'Leona (-1) - $246,304'
p1013
sg7
I0
sg8
I1
sg9
F0.68724940079410479
sg48
S'B'
sg10
F0
sg11
S'Leona'
p1014
sba(isaltybot
Fighter
p1015
(dp1016
g4
I0
sg5
S'Kensou EX3 (3) - $358,391\r\n'
p1017
sg7
I1
sg8
I0
sg9
F1.4550758412368456
sg48
S'B'
sg10
F0
sg11
S'Kensou EX3'
p1018
sba(isaltybot
Fighter
p1019
(dp1020
g4
I0
sg5
S'Toguro 100% (3) - $395,581'
p1021
sg7
I0
sg8
I1
sg9
F1.3398715612488907
sg48
S'S'
sg10
F0
sg11
S'Toguro 100%'
p1022
sba(isaltybot
Fighter
p1023
(dp1024
g4
I0
sg5
S'Jin chonrei (1) - $295,238\r\n'
p1025
sg7
I1
sg8
I0
sg9
F0.74634019328531953
sg48
S'S'
sg10
F0
sg11
S'Jin chonrei'
p1026
sba(isaltybot
Fighter
p1027
(dp1028
g4
I0
sg5
S'Sachiko (-2) - $254,321'
p1029
sg7
I1
sg8
I0
sg9
F1.9328682064494556
sg48
S'B'
sg10
F0
sg11
S'Sachiko'
p1030
sba(isaltybot
Fighter
p1031
(dp1032
g4
I0
sg5
S'Frankenroid (-1) - $131,577\r\n'
p1033
sg7
I0
sg8
I1
sg9
F0.51736584867156077
sg48
S'B'
sg10
F0
sg11
S'Frankenroid'
p1034
sba(isaltybot
Fighter
p1035
(dp1036
g4
I0
sg5
S'Dudley EX3 (-3) - $66,358'
p1037
sg7
I0
sg8
I1
sg9
F0.13003239150413762
sg48
S'B'
sg10
F0
sg11
S'Dudley EX3'
p1038
sba(isaltybot
Fighter
p1039
(dp1040
g4
I0
sg5
S'Alucard RAI (-2) - $510,319\r\n'
p1041
sg7
I1
sg8
I0
sg9
F7.6903915127038189
sg48
S'B'
sg10
F0
sg11
S'Alucard RAI'
p1042
sba(isaltybot
Fighter
p1043
(dp1044
g4
I0
sg5
S'Lililen (2) - $121,999'
p1045
sg7
I0
sg8
I1
sg9
F0.6963373496726617
sg48
S'B'
sg10
F0
sg11
S'Lililen'
p1046
sba(isaltybot
Fighter
p1047
(dp1048
g4
I0
sg5
S'Noah (-3) - $175,201\r\n'
p1049
sg7
I1
sg8
I0
sg9
F1.436085541684768
sg48
S'B'
sg10
F0
sg11
S'Noah'
p1050
sba(isaltybot
Fighter
p1051
(dp1052
g4
I0
sg5
S'Kou EX (-2) - $344,094'
p1053
sg7
I0
sg8
I1
sg9
F3.3439975121235386
sg48
S'A'
sg10
F0
sg11
S'Kou EX'
p1054
sba(isaltybot
Fighter
p1055
(dp1056
g4
I0
sg5
S'Shoujo genkai (1) - $102,899\r\n'
p1057
sg7
I1
sg8
I0
sg9
F0.2990432846838364
sg48
S'A'
sg10
F0
sg11
S'Shoujo genkai'
p1058
sba(isaltybot
Fighter
p1059
(dp1060
g4
I0
sg5
S'Spacemouse deluxe (11) - $3,088,630'
p1061
sg7
I1
sg8
I0
sg9
F22.944003684554584
sg48
S'S'
sg10
F0
sg11
S'Spacemouse deluxe'
p1062
sba(isaltybot
Fighter
p1063
(dp1064
g4
I0
sg5
S'Suika_ibuki (-4) - $134,616\r\n'
p1065
sg7
I0
sg8
I1
sg9
F0.043584372359266085
sg48
S'S'
sg10
F0
sg11
S'Suika_ibuki'
p1066
sba(isaltybot
Fighter
p1067
(dp1068
g4
I0
sg5
S'Namazu (-6) - $780,160'
p1069
sg7
I1
sg8
I0
sg9
F5.1965975927369126
sg48
S'S'
sg10
F0
sg11
S'Namazu'
p1070
sba(isaltybot
Fighter
p1071
(dp1072
g4
I0
sg5
S'Vegeta gt (-6) - $150,129\r\n'
p1073
sg7
I0
sg8
I1
sg9
F0.19243360336341264
sg48
S'S'
sg10
F0
sg11
S'Vegeta gt'
p1074
sba(isaltybot
Fighter
p1075
(dp1076
g4
I0
sg5
S'Supermario64 (5) - $268,678'
p1077
sg7
I0
sg8
I1
sg9
F0.39387227055831237
sg48
S'S'
sg10
F0
sg11
S'Supermario64'
p1078
sba(isaltybot
Fighter
p1079
(dp1080
g4
I0
sg5
S'Blue colonel (4) - $682,145\r\n'
p1081
sg7
I1
sg8
I0
sg9
F2.5388941409419452
sg48
S'S'
sg10
F0
sg11
S'Blue colonel'
p1082
sba(isaltybot
Fighter
p1083
(dp1084
g4
I0
sg5
S'Turbo bonkers (-1) - $216,304'
p1085
sg7
I0
sg8
I1
sg9
F0.8867280218090885
sg48
S'B'
sg10
F0
sg11
S'Turbo bonkers'
p1086
sba(isaltybot
Fighter
p1087
(dp1088
g4
I0
sg5
S'Tloz link (1) - $243,935\r\n'
p1089
sg7
I1
sg8
I0
sg9
F1.1277415119461498
sg48
S'B'
sg10
F0
sg11
S'Tloz link'
p1090
sba(isaltybot
Fighter
p1091
(dp1092
g4
I0
sg5
S'Dream bison (-5) - $187,971'
p1093
sg7
I0
sg8
I1
sg9
F0.27520570407894351
sg48
S'S'
sg10
F0
sg11
S'Dream bison'
p1094
sba(isaltybot
Fighter
p1095
(dp1096
g4
I0
sg5
S'Eleking (1) - $683,020\r\n'
p1097
sg7
I1
sg8
I0
sg9
F3.6336456155470791
sg48
S'S'
sg10
F0
sg11
S'Eleking'
p1098
sba(isaltybot
Fighter
p1099
(dp1100
g4
I0
sg5
S'Namek gohan (-3) - $72,998'
p1101
sg7
I0
sg8
I2
sg9
F0.20226612925962403
sg48
S'B'
sg10
F0
sg11
S'Namek gohan'
p1102
sba(isaltybot
Fighter
p1103
(dp1104
g4
I0
sg5
S'Cammy_a (1) - $836,337\r\n'
p1105
sg7
I1
sg8
I0
sg9
F11.456985122880079
sg48
S'B'
sg10
F0
sg11
S'Cammy_a'
p1106
sba(isaltybot
Fighter
p1107
(dp1108
g4
I0
sg5
S'Suwako ai (-1) - $3,980,749'
p1109
sg7
I1
sg8
I0
sg9
F33.274951517988498
sg48
S'S'
sg10
F0
sg11
S'Suwako ai'
p1110
sba(isaltybot
Fighter
p1111
(dp1112
g4
I0
sg5
S'Haruhi suzumiya (-5) - $119,632\r\n'
p1113
sg7
I0
sg8
I1
sg9
F0.030052635823057419
sg48
S'S'
sg10
F0
sg11
S'Haruhi suzumiya'
p1114
sba(isaltybot
Fighter
p1115
(dp1116
g4
I0
sg5
S'Evil Ryu SF4 (2) - $345,228'
p1117
sg7
I1
sg8
I0
sg9
F1.4318812447895279
sg48
S'B'
sg10
F0
sg11
S'Evil Ryu SF4'
p1118
sba(isaltybot
Fighter
p1119
(dp1120
g4
I0
sg5
S'Sailor moon (-3) - $241,101\r\n'
p1121
sg7
I0
sg8
I1
sg9
F0.69838193889255795
sg48
S'B'
sg10
F0
sg11
S'Sailor moon'
p1122
sba(isaltybot
Fighter
p1123
(dp1124
g4
I0
sg5
S'Warlock (1) - $608,010'
p1125
sg7
I0
sg8
I1
sg9
F3.3154115023256576
sg48
S'A'
sg10
F0
sg11
S'Warlock'
p1126
sba(isaltybot
Fighter
p1127
(dp1128
g4
I0
sg5
S'Shizuha (-1) - $183,389\r\n'
p1129
sg7
I1
sg8
I0
sg9
F0.30162168385388399
sg48
S'A'
sg10
F0
sg11
S'Shizuha'
p1130
sba(isaltybot
Fighter
p1131
(dp1132
g4
I0
sg5
S'F_gills (-3) - $130,296'
p1133
sg7
I0
sg8
I1
sg9
F0.31058500469586525
sg48
S'S'
sg10
F0
sg11
S'F_gills'
p1134
sba(isaltybot
Fighter
p1135
(dp1136
g4
I0
sg5
S'Asutorea EX3 (1) - $419,518\r\n'
p1137
sg7
I1
sg8
I0
sg9
F3.2197304598759748
sg48
S'S'
sg10
F0
sg11
S'Asutorea EX3'
p1138
sba(isaltybot
Fighter
p1139
(dp1140
g4
I0
sg5
S'Cyber-peacock (-2) - $265,392'
p1141
sg7
I0
sg8
I0
sg9
F2.2162541336807293
sg48
S'S'
sg10
F0
sg11
S'Cyber-peacock'
p1142
sba(isaltybot
Fighter
p1143
(dp1144
g4
I0
sg5
S'Subaru mikage (1) - $119,748\r\n'
p1145
sg7
I0
sg8
I2
sg9
F0.6662376053660416
sg48
S'S'
sg10
F0
sg11
S'Subaru mikage'
p1146
sba(isaltybot
Fighter
p1147
(dp1148
g4
I0
sg5
S'Emily barnet- $227,621'
p1149
sg7
I0
sg8
I1
sg9
F1.3703028113900428
sg48
S'A'
sg10
F0
sg11
S'Emily barnet'
p1150
sba(isaltybot
Fighter
p1151
(dp1152
g4
I0
sg5
S'Katana- $166,110\r\n'
p1153
sg7
I1
sg8
I0
sg9
F0.72976570703054644
sg48
S'A'
sg10
F0
sg11
S'Katana'
p1154
sba(isaltybot
Fighter
p1155
(dp1156
g4
I0
sg5
S'Gohan fight money- $163,875'
p1157
sg7
I0
sg8
I1
sg9
F0.14344561846397863
sg48
S'Unknown'
p1158
sg10
F0
sg11
S'Gohan fight money'
p1159
sba(isaltybot
Fighter
p1160
(dp1161
g4
I0
sg5
S'Videl fight money- $1,142,419\r\n'
p1162
sg7
I1
sg8
I0
sg9
F6.9712829900839051
sg48
g1158
sg10
F0
sg11
S'Videl fight money'
p1163
sba(isaltybot
Fighter
p1164
(dp1165
g4
I0
sg5
S'Masked rider kabuto- $290,412'
p1166
sg7
I1
sg8
I0
sg9
F1.3626689189189189
sg48
S'B'
sg10
F0
sg11
S'Masked rider kabuto'
p1167
sba(isaltybot
Fighter
p1168
(dp1169
g4
I0
sg5
S'Masked rider 555_z- $213,120\r\n'
p1170
sg7
I0
sg8
I1
sg9
F0.73385397297632327
sg48
S'B'
sg10
F0
sg11
S'Masked rider 555_z'
p1171
sba(isaltybot
Fighter
p1172
(dp1173
g4
I0
sg5
S'Absolute_white_len- $379,445'
p1174
sg7
I1
sg8
I0
sg9
F1.1904717084725556
sg48
S'S'
sg10
F0
sg11
S'Absolute_white_len'
p1175
sba(isaltybot
Fighter
p1176
(dp1177
g4
I0
sg5
S'Dongdong- $318,735\r\n'
p1178
sg7
I0
sg8
I1
sg9
F0.84000316251367124
sg48
S'S'
sg10
F0
sg11
S'Dongdong'
p1179
sba(isaltybot
Fighter
p1180
(dp1181
g4
I0
sg5
S'Cammy- $191,376\r\n'
p1182
sg7
I1
sg8
I0
sg9
F2.1789862003005873
sg48
S'A'
sg10
F0
sg11
S'Cammy'
p1183
sba(isaltybot
Fighter
p1184
(dp1185
g4
I0
sg5
S'Jazu EX3- $80,283'
p1186
sg7
I0
sg8
I1
sg9
F0.17764987818559602
sg48
S'S'
sg10
F0
sg11
S'Jazu EX3'
p1187
sba(isaltybot
Fighter
p1188
(dp1189
g4
I0
sg5
S'Hinako shijo- $451,917\r\n'
p1190
sg7
I3
sg8
I0
sg9
F6.9626953795504543
sg48
S'S'
sg10
F0
sg11
S'Hinako shijo'
p1191
sba(isaltybot
Fighter
p1192
(dp1193
g4
I0
sg5
S'David bell- $489,734'
p1194
sg7
I1
sg8
I0
sg9
F4.0247698882314271
sg48
S'S'
sg10
F0
sg11
S'David bell'
p1195
sba(isaltybot
Fighter
p1196
(dp1197
g4
I0
sg5
S'Evil dooby dummy- $121,680\r\n'
p1198
sg7
I0
sg8
I1
sg9
F0.24846140966320493
sg48
S'S'
sg10
F0
sg11
S'Evil dooby dummy'
p1199
sba(isaltybot
Fighter
p1200
(dp1201
g4
I0
sg5
S'Vanessa- $265,230'
p1202
sg7
I1
sg8
I0
sg9
F2.3302173569257261
sg48
S'B'
sg10
F0
sg11
S'Vanessa'
p1203
sba(isaltybot
Fighter
p1204
(dp1205
g4
I0
sg5
S'Shermie- $113,822\r\n'
p1206
sg7
I1
sg8
I1
sg9
F1.4400797574810074
sg48
S'B'
sg10
F0
sg11
S'Shermie'
p1207
sba(isaltybot
Fighter
p1208
(dp1209
g4
I0
sg5
S'Hourai-car (-2) - $413,145'
p1210
sg7
I2
sg8
I0
sg9
F2.7278917388541468
sg48
S'S'
sg10
F0
sg11
S'Hourai-car'
p1211
sba(isaltybot
Fighter
p1212
(dp1213
g4
I0
sg5
S'Huryou hatune (-3) - $114,489\r\n'
p1214
sg7
I0
sg8
I1
sg9
F0.2771157825944886
sg48
S'S'
sg10
F0
sg11
S'Huryou hatune'
p1215
sba(isaltybot
Fighter
p1216
(dp1217
g4
I0
sg5
S'Charging chuck (-4) - $104,831\r\n'
p1218
sg7
I0
sg8
I1
sg9
F0.5281211901379359
sg48
S'S'
sg10
F0
sg11
S'Charging chuck'
p1219
sba(isaltybot
Fighter
p1220
(dp1221
g4
I0
sg5
S'Chipp (-4) - $109,330'
p1222
sg7
I1
sg8
I0
sg9
F1.0169570353558373
sg48
S'S'
sg10
F0
sg11
S'Chipp'
p1223
sba(isaltybot
Fighter
p1224
(dp1225
g4
I0
sg5
S'Megaman plus (-8) - $107,507\r\n'
p1226
sg7
I0
sg8
I1
sg9
F0.98332571114973022
sg48
S'S'
sg10
F0
sg11
S'Megaman plus'
p1227
sba(isaltybot
Fighter
p1228
(dp1229
g4
I0
sg5
S'Leona ex (3) - $926,376'
p1230
sg7
I1
sg8
I0
sg9
F18.834905660377359
sg48
S'B'
sg10
F0
sg11
S'Leona ex'
p1231
sba(isaltybot
Fighter
p1232
(dp1233
g4
I0
sg5
S'Isaiah bradley (-4) - $49,184\r\n'
p1234
sg7
I0
sg8
I1
sg9
F0.053092912597044829
sg48
S'B'
sg10
F0
sg11
S'Isaiah bradley'
p1235
sba(isaltybot
Fighter
p1236
(dp1237
g4
I0
sg5
S'Chippzanuff (4) - $135,049'
p1238
sg7
I2
sg8
I2
sg9
F1.9077677394200223
sg48
S'B'
sg10
F0
sg11
S'Chippzanuff'
p1239
sba(isaltybot
Fighter
p1240
(dp1241
g4
I0
sg5
S'Aoko 7thmoonstyle (2) - $99,713'
p1242
sg7
I0
sg8
I1
sg9
F0.13789484019698275
sg48
S'S'
sg10
F0
sg11
S'Aoko 7thmoonstyle'
p1243
sba(isaltybot
Fighter
p1244
(dp1245
g4
I0
sg5
S'Silversamurai mvc2 (6) - $723,109\r\n'
p1246
sg7
I1
sg8
I0
sg9
F7.2519029614995034
sg48
S'S'
sg10
F0
sg11
S'Silversamurai mvc2'
p1247
sba(isaltybot
Fighter
p1248
(dp1249
g4
I0
sg5
S'Zangoose EX2 (1) - $339,918'
p1250
sg7
I2
sg8
I0
sg9
F2.0482838892475423
sg48
S'A'
sg10
F0
sg11
S'Zangoose EX2'
p1251
sba(isaltybot
Fighter
p1252
(dp1253
g4
I0
sg5
S'Seth ex (1) - $127,330\r\n'
p1254
sg7
I0
sg8
I1
sg9
F0.37459034237669087
sg48
S'A'
sg10
F0
sg11
S'Seth ex'
p1255
sba(isaltybot
Fighter
p1256
(dp1257
g4
I0
sg5
S'Goku (-1) - $177,877'
p1258
sg7
I0
sg8
I1
sg9
F0.33068294206444226
sg48
S'S'
sg10
F0
sg11
S'Goku'
p1259
sba(isaltybot
Fighter
p1260
(dp1261
g4
I0
sg5
S'Rion (-4) - $537,908\r\n'
p1262
sg7
I1
sg8
I0
sg9
F3.0240447050489947
sg48
S'S'
sg10
F0
sg11
S'Rion'
p1263
sba(isaltybot
Fighter
p1264
(dp1265
g4
I0
sg5
S'Bsb ridley (-1) - $63,111'
p1266
sg7
I0
sg8
I2
sg9
F0.14765772740712507
sg48
S'S'
sg10
F0
sg11
S'Bsb ridley'
p1267
sba(isaltybot
Fighter
p1268
(dp1269
g4
I0
sg5
S"K' dempsey (7) - $418,823\r\n"
p1270
sg7
I1
sg8
I0
sg9
F6.63629161318946
sg48
S'S'
sg10
F0
sg11
S"K' dempsey"
p1271
sba(isaltybot
Fighter
p1272
(dp1273
g4
I0
sg5
S'Rei (-5) - $272,085'
p1274
sg7
I1
sg8
I0
sg9
F2.2721465076660987
sg48
S'S'
sg10
F0
sg11
S'Rei'
p1275
sba(isaltybot
Fighter
p1276
(dp1277
g4
I0
sg5
S'Rotom (-1) - $352,322'
p1278
sg7
I1
sg8
I0
sg9
F12.394793315743184
sg48
S'B'
sg10
F0
sg11
S'Rotom'
p1279
sba(isaltybot
Fighter
p1280
(dp1281
g4
I0
sg5
S'Namor (-1) - $28,425\r\n'
p1282
sg7
I0
sg8
I1
sg9
F0.080679037925534033
sg48
S'B'
sg10
F0
sg11
S'Namor'
p1283
sba(isaltybot
Fighter
p1284
(dp1285
g4
I0
sg5
S'Nega peach EX3 (5) - $199,966'
p1286
sg7
I1
sg8
I0
sg9
F1.201357765094623
sg48
S'S'
sg10
F0
sg11
S'Nega peach EX3'
p1287
sba(isaltybot
Fighter
p1288
(dp1289
g4
I0
sg5
S'Elpizo (-1) - $166,450\r\n'
p1290
sg7
I0
sg8
I1
sg9
F0.83239150655611449
sg48
S'S'
sg10
F0
sg11
S'Elpizo'
p1291
sba(isaltybot
Fighter
p1292
(dp1293
g4
I0
sg5
S'Knight (1) - $1,411,060'
p1294
sg7
I1
sg8
I0
sg9
F15.684543989329184
sg48
S'A'
sg10
F0
sg11
S'Knight'
p1295
sba(isaltybot
Fighter
p1296
(dp1297
g4
I0
sg5
S'Buu Hyper Dimension (1) - $211,184'
p1298
sg7
I0
sg8
I1
sg9
F0.99752960459502993
sg48
S'B'
sg10
F0
sg11
S'Buu Hyper Dimension'
p1299
sba(isaltybot
Fighter
p1300
(dp1301
g4
I0
sg5
S'Kintaro (2) - $211,707\r\n'
p1302
sg7
I2
sg8
I0
sg9
F2.3172553310419701
sg48
S'B'
sg10
F0
sg11
S'Kintaro'
p1303
sba(isaltybot
Fighter
p1304
(dp1305
g4
I0
sg5
S'Cho-kichiku toki (-1) - $614,037'
p1306
sg7
I1
sg8
I0
sg9
F2.8298592068576167
sg48
S'X'
sg10
F0
sg11
S'Cho-kichiku toki'
p1307
sba(isaltybot
Fighter
p1308
(dp1309
g4
I0
sg5
S'Super big bird (-3) - $216,985\r\n'
p1310
sg7
I0
sg8
I1
sg9
F0.35337447091950486
sg48
S'X'
sg10
F0
sg11
S'Super big bird'
p1311
sba(isaltybot
Fighter
p1312
(dp1313
g4
I0
sg5
S'Roomi (-1) - $988,106'
p1314
sg7
I1
sg8
I0
sg9
F24.282561682886072
sg48
S'B'
sg10
F0
sg11
S'Roomi'
p1315
sba(isaltybot
Fighter
p1316
(dp1317
g4
I0
sg5
S'(sman) (-2) - $40,692\r\n'
p1318
sg7
I0
sg8
I1
sg9
F0.041181816525757357
sg48
S'B'
sg10
F0
sg11
S'(sman)'
p1319
sba(isaltybot
Fighter
p1320
(dp1321
g4
I0
sg5
S'Dan NGPC (-1) - $48,954'
p1322
sg7
I0
sg8
I1
sg9
F0.18615882480444462
sg48
S'B'
sg10
F0
sg11
S'Dan NGPC'
p1323
sba(isaltybot
Fighter
p1324
(dp1325
g4
I0
sg5
S'Spider girl (1) - $262,969\r\n'
p1326
sg7
I1
sg8
I0
sg9
F5.3717571597826534
sg48
S'B'
sg10
F0
sg11
S'Spider girl'
p1327
sba(isaltybot
Fighter
p1328
(dp1329
g4
I0
sg5
S'Meta-knight (-6) - $42,160'
p1330
sg7
I0
sg8
I1
sg9
F0.038510336864969935
sg48
S'B'
sg10
F0
sg11
S'Meta-knight'
p1331
sba(isaltybot
Fighter
p1332
(dp1333
g4
I0
sg5
S'Marian (5) - $1,094,771\r\n'
p1334
sg7
I1
sg8
I0
sg9
F25.967054079696396
sg48
S'B'
sg10
F0
sg11
S'Marian'
p1335
sba(isaltybot
Fighter
p1336
(dp1337
g4
I0
sg5
S'Enoch (2) - $408,705'
p1338
sg7
I1
sg8
I0
sg9
F9.2695788256106688
sg48
S'B'
sg10
F0
sg11
S'Enoch'
p1339
sba(isaltybot
Fighter
p1340
(dp1341
g4
I0
sg5
S'Sonic v2 EX (1) - $44,091\r\n'
p1342
sg7
I0
sg8
I1
sg9
F0.10787976657980695
sg48
S'B'
sg10
F0
sg11
S'Sonic v2 EX'
p1343
sba(isaltybot
Fighter
p1344
(dp1345
g4
I0
sg5
S'Reiko (-3) - $252,699'
p1346
sg7
I1
sg8
I0
sg9
F1.4887065227636913
sg48
S'S'
sg10
F0
sg11
S'Reiko'
p1347
sba(isaltybot
Fighter
p1348
(dp1349
g4
I0
sg5
S'Kenshi (-1) - $169,744\r\n'
p1350
sg7
I0
sg8
I1
sg9
F0.67172406697295994
sg48
S'S'
sg10
F0
sg11
S'Kenshi'
p1351
sba(isaltybot
Fighter
p1352
(dp1353
g4
I0
sg5
S'K EX (1) - $137,108'
p1354
sg7
I1
sg8
I0
sg9
F1.4700590777016522
sg48
S'A'
sg10
F0
sg11
S'K EX'
p1355
sba(isaltybot
Fighter
p1356
(dp1357
g4
I0
sg5
S'Tabunne (-2) - $93,267\r\n'
p1358
sg7
I0
sg8
I1
sg9
F0.68024477054584709
sg48
S'A'
sg10
F0
sg11
S'Tabunne'
p1359
sba(isaltybot
Fighter
p1360
(dp1361
g4
I0
sg5
S'Sailor mars (1) - $412,807'
p1362
sg7
I1
sg8
I0
sg9
F5.362104798275011
sg48
S'B'
sg10
F0
sg11
S'Sailor mars'
p1363
sba(isaltybot
Fighter
p1364
(dp1365
g4
I0
sg5
S'Ickybod clay (-9) - $76,986\r\n'
p1366
sg7
I0
sg8
I1
sg9
F0.18649393057772762
sg48
S'B'
sg10
F0
sg11
S'Ickybod clay'
p1367
sba(isaltybot
Fighter
p1368
(dp1369
g4
I0
sg5
S'Loud demon (1) - $45,439'
p1370
sg7
I0
sg8
I1
sg9
F0.31660616364383809
sg48
S'B'
sg10
F0
sg11
S'Loud demon'
p1371
sba(isaltybot
Fighter
p1372
(dp1373
g4
I0
sg5
S'Mai 2k2 (4) - $143,519\r\n'
p1374
sg7
I1
sg8
I0
sg9
F3.1584982063865841
sg48
S'B'
sg10
F0
sg11
S'Mai 2k2'
p1375
sba(isaltybot
Fighter
p1376
(dp1377
g4
I0
sg5
S'Fuuma (-1) - $1,538,788'
p1378
sg7
I1
sg8
I0
sg9
F4.9937950282339196
sg48
S'B'
sg10
F0
sg11
S'Fuuma'
p1379
sba(isaltybot
Fighter
p1380
(dp1381
g4
I0
sg5
S'Zombie (1) - $53,627'
p1382
sg7
I0
sg8
I1
sg9
F0.10074317038439717
sg48
S'B'
sg10
F0
sg11
S'Zombie'
p1383
sba(isaltybot
Fighter
p1384
(dp1385
g4
I0
sg5
S'Lucifer 2 (-1) - $532,314\r\n'
p1386
sg7
I1
sg8
I0
sg9
F9.9262311895127446
sg48
S'B'
sg10
F0
sg11
S'Lucifer 2'
p1387
sba(isaltybot
Fighter
p1388
(dp1389
g4
I0
sg5
S'Armor jack (-1) - $1,988,463'
p1390
sg7
I1
sg8
I0
sg9
F45.199531743686492
sg48
S'S'
sg10
F0
sg11
S'Armor jack'
p1391
sba(isaltybot
Fighter
p1392
(dp1393
g4
I0
sg5
S'Evil dan (-4) - $43,993\r\n'
p1394
sg7
I0
sg8
I1
sg9
F0.022124123003545954
sg48
S'S'
sg10
F0
sg11
S'Evil dan'
p1395
sba(isaltybot
Fighter
p1396
(dp1397
g4
I0
sg5
S'Nakoruru ex EX3 (-2) - $224,828'
p1398
sg7
I1
sg8
I0
sg9
F2.6900702346339305
sg48
S'S'
sg10
F0
sg11
S'Nakoruru ex EX3'
p1399
sba(isaltybot
Fighter
p1400
(dp1401
g4
I0
sg5
S'Mr.karate EX2 (-4) - $83,577\r\n'
p1402
sg7
I0
sg8
I1
sg9
F0.37173750600459016
sg48
S'S'
sg10
F0
sg11
S'Mr.karate EX2'
p1403
sba(isaltybot
Fighter
p1404
(dp1405
g4
I0
sg5
S'Shingo 98 (2) - $340,062'
p1406
sg7
I1
sg8
I0
sg9
F5.861015839092742
sg48
S'B'
sg10
F0
sg11
S'Shingo 98'
p1407
sba(isaltybot
Fighter
p1408
(dp1409
g4
I0
sg5
S'Wonder woman (-4) - $38,166'
p1410
sg7
I0
sg8
I1
sg9
F0.016061468383323948
sg48
S'B'
sg10
F0
sg11
S'Wonder woman'
p1411
sba(isaltybot
Fighter
p1412
(dp1413
g4
I0
sg5
S'Blodia (6) - $2,376,246\r\n'
p1414
sg7
I1
sg8
I0
sg9
F62.26080804904889
sg48
S'B'
sg10
F0
sg11
S'Blodia'
p1415
sba(isaltybot
Fighter
p1416
(dp1417
g4
I0
sg5
S'Eliza EX (6) - $429,319'
p1418
sg7
I1
sg8
I0
sg9
F5.7672384841686704
sg48
S'B'
sg10
F0
sg11
S'Eliza EX'
p1419
sba(isaltybot
Fighter
p1420
(dp1421
g4
I0
sg5
S'Captain commando (-5) - $74,441\r\n'
p1422
sg7
I0
sg8
I1
sg9
F0.17339321110875597
sg48
S'B'
sg10
F0
sg11
S'Captain commando'
p1423
sba(isaltybot
Fighter
p1424
(dp1425
g4
I0
sg5
S'Wang-fu (-1) - $48,759'
p1426
sg7
I0
sg8
I1
sg9
F0.072523177103862274
sg48
S'S'
sg10
F0
sg11
S'Wang-fu'
p1427
sba(isaltybot
Fighter
p1428
(dp1429
g4
I0
sg5
S'Ferroman (-1) - $132,643'
p1430
sg7
I1
sg8
I0
sg9
F1.2721352668124448
sg48
S'B'
sg10
F0
sg11
S'Ferroman'
p1431
sba(isaltybot
Fighter
p1432
(dp1433
g4
I0
sg5
S'Koi reika (-3) - $104,268\r\n'
p1434
sg7
I0
sg8
I1
sg9
F0.78607992883152522
sg48
S'B'
sg10
F0
sg11
S'Koi reika'
p1435
sba(isaltybot
Fighter
p1436
(dp1437
g4
I0
sg5
S'Yoshi (1) - $829,351'
p1438
sg7
I1
sg8
I0
sg9
F9.0396420552394652
sg48
S'B'
sg10
F0
sg11
S'Yoshi'
p1439
sba(isaltybot
Fighter
p1440
(dp1441
g4
I0
sg5
S'Super soldier (1) - $91,746\r\n'
p1442
sg7
I0
sg8
I1
sg9
F0.11062384925079972
sg48
S'B'
sg10
F0
sg11
S'Super soldier'
p1443
sba(isaltybot
Fighter
p1444
(dp1445
g4
I0
sg5
S'Crocodile (-1) - $97,752\r\n'
p1446
sg7
I0
sg8
I1
sg9
F0.19559084233399629
sg48
S'A'
sg10
F0
sg11
S'Crocodile'
p1447
sba(isaltybot
Fighter
p1448
(dp1449
g4
I0
sg5
S'Liu kang (4) - $113,233'
p1450
sg7
I1
sg8
I0
sg9
F0.84581139122315596
sg48
S'A'
sg10
F0
sg11
S'Liu kang'
p1451
sba(isaltybot
Fighter
p1452
(dp1453
g4
I0
sg5
S'Miku_tt (-1) - $133,875\r\n'
p1454
sg7
I0
sg8
I2
sg9
F1.7088764195140331
sg48
S'A'
sg10
F0
sg11
S'Miku_tt'
p1455
sba(isaltybot
Fighter
p1456
(dp1457
g4
I0
sg5
S'Basara (-2) - $168,886'
p1458
sg7
I1
sg8
I0
sg9
F2.3135702348009533
sg48
S'B'
sg10
F0
sg11
S'Basara'
p1459
sba(isaltybot
Fighter
p1460
(dp1461
g4
I0
sg5
S'Alvan EX (2) - $297,957'
p1462
sg7
I1
sg8
I0
sg9
F7.8556513485723327
sg48
S'B'
sg10
F0
sg11
S'Alvan EX'
p1463
sba(isaltybot
Fighter
p1464
(dp1465
g4
I0
sg5
S'Maplestory mage (-5) - $37,929\r\n'
p1466
sg7
I0
sg8
I1
sg9
F0.12729689183338536
sg48
S'B'
sg10
F0
sg11
S'Maplestory mage'
p1467
sba(isaltybot
Fighter
p1468
(dp1469
g4
I0
sg5
S'Son gohan EX3 (-1) - $86,511'
p1470
sg7
I0
sg8
I1
sg9
F0.036155016340825318
sg48
S'S'
sg10
F0
sg11
S'Son gohan EX3'
p1471
sba(isaltybot
Fighter
p1472
(dp1473
g4
I0
sg5
S'Mictlan EX (-1) - $2,392,780\r\n'
p1474
sg7
I1
sg8
I0
sg9
F27.658679243102032
sg48
S'S'
sg10
F0
sg11
S'Mictlan EX'
p1475
sba(isaltybot
Fighter
p1476
(dp1477
g4
I0
sg5
S'Flan Scarlet (-1) - $392,632'
p1478
sg7
I0
sg8
I1
sg9
F0.16716565336603142
sg48
S'S'
sg10
F0
sg11
S'Flan Scarlet'
p1479
sba(isaltybot
Fighter
p1480
(dp1481
g4
I0
sg5
S'Private (5) - $2,348,760\r\n'
p1482
sg7
I1
sg8
I0
sg9
F5.9820900996352817
sg48
S'S'
sg10
F0
sg11
S'Private'
p1483
sba(isaltybot
Fighter
p1484
(dp1485
g4
I0
sg5
S'Asellus EX (-3) - $154,488'
p1486
sg7
I1
sg8
I1
sg9
F1.0574766752523346
sg48
S'A'
sg10
F0
sg11
S'Asellus EX'
p1487
sba(isaltybot
Fighter
p1488
(dp1489
g4
I0
sg5
S'Capt Commando (-2) - $253,168\r\n'
p1490
sg7
I0
sg8
I1
sg9
F1.6387551136657863
sg48
S'A'
sg10
F0
sg11
S'Capt Commando'
p1491
sba(isaltybot
Fighter
p1492
(dp1493
g4
I0
sg5
S'Sula (-2) - $74,962'
p1494
sg7
I0
sg8
I1
sg9
F0.12556490976519186
sg48
S'B'
sg10
F0
sg11
S'Sula'
p1495
sba(isaltybot
Fighter
p1496
(dp1497
g4
I0
sg5
S'Devil daimajin (-2) - $596,998\r\n'
p1498
sg7
I1
sg8
I0
sg9
F7.9640084309383417
sg48
S'B'
sg10
F0
sg11
S'Devil daimajin'
p1499
sba(isaltybot
Fighter
p1500
(dp1501
g4
I0
sg5
S'Ironman EX (3) - $216,476'
p1502
sg7
I1
sg8
I0
sg9
F3.7219490388913723
sg48
S'B'
sg10
F0
sg11
S'Ironman EX'
p1503
sba(isaltybot
Fighter
p1504
(dp1505
g4
I0
sg5
S'The tick (1) - $58,162\r\n'
p1506
sg7
I0
sg8
I1
sg9
F0.26867643526303148
sg48
S'B'
sg10
F0
sg11
S'The tick'
p1507
sba(isaltybot
Fighter
p1508
(dp1509
g4
I0
sg5
S'Ibuki sf3 (-5) - $86,064'
p1510
sg7
I1
sg8
I0
sg9
F0.33592636973602552
sg48
S'A'
sg10
F0
sg11
S'Ibuki sf3'
p1511
sba(isaltybot
Fighter
p1512
(dp1513
g4
I0
sg5
S'Aska EX2 (-2) - $256,199\r\n'
p1514
sg7
I0
sg8
I1
sg9
F2.9768428146495629
sg48
S'A'
sg10
F0
sg11
S'Aska EX2'
p1515
sba(isaltybot
Fighter
p1516
(dp1517
g4
I0
sg5
S'Sylveon_var1 (-1) - $314,794'
p1518
sg7
I1
sg8
I0
sg9
F1.3001569469684453
sg48
S'S'
sg10
F0
sg11
S'Sylveon_var1'
p1519
sba(isaltybot
Fighter
p1520
(dp1521
g4
I0
sg5
S'Kawashima-san EX2 (-2) - $242,120\r\n'
p1522
sg7
I0
sg8
I1
sg9
F0.76913791241256191
sg48
S'S'
sg10
F0
sg11
S'Kawashima-san EX2'
p1523
sba(isaltybot
Fighter
p1524
(dp1525
g4
I0
sg5
S'Yun (1) - $95,940'
p1526
sg7
I0
sg8
I1
sg9
F0.20623432122596996
sg48
S'S'
sg10
F0
sg11
S'Yun'
p1527
sba(isaltybot
Fighter
p1528
(dp1529
g4
I0
sg5
S'Master kojiroh (1) - $465,199\r\n'
p1530
sg7
I1
sg8
I0
sg9
F4.8488534500729621
sg48
S'S'
sg10
F0
sg11
S'Master kojiroh'
p1531
sba(isaltybot
Fighter
p1532
(dp1533
g4
I0
sg5
S'Bowling ball (2) - $290,082'
p1534
sg7
I1
sg8
I0
sg9
F3.3505278477211302
sg48
S'B'
sg10
F0
sg11
S'Bowling ball'
p1535
sba(isaltybot
Fighter
p1536
(dp1537
g4
I0
sg5
S'Master ken (-2) - $86,578\r\n'
p1538
sg7
I0
sg8
I1
sg9
F0.2984604353251839
sg48
S'B'
sg10
F0
sg11
S'Master ken'
p1539
sba(isaltybot
Fighter
p1540
(dp1541
g4
I0
sg5
S'Cleric (1) - $41,959'
p1542
sg7
I0
sg8
I1
sg9
F0.10285404721691789
sg48
S'A'
sg10
F0
sg11
S'Cleric'
p1543
sba(isaltybot
Fighter
p1544
(dp1545
g4
I0
sg5
S'Venom MMV (-1) - $407,947\r\n'
p1546
sg7
I1
sg8
I0
sg9
F9.7225148359112463
sg48
S'A'
sg10
F0
sg11
S'Venom MMV'
p1547
sba(isaltybot
Fighter
p1548
(dp1549
g4
I0
sg5
S'True power sol (-2) - $140,327'
p1550
sg7
I1
sg8
I0
sg9
F1.0555187820618899
sg48
S'B'
sg10
F0
sg11
S'True power sol'
p1551
sba(isaltybot
Fighter
p1552
(dp1553
g4
I0
sg5
S'Fat boo (3) - $132,946\r\n'
p1554
sg7
I0
sg8
I1
sg9
F0.94740142666771188
sg48
S'B'
sg10
F0
sg11
S'Fat boo'
p1555
sba(isaltybot
Fighter
p1556
(dp1557
g4
I0
sg5
S'Invader remi (-2) - $125,279\r\n'
p1558
sg7
I0
sg8
I1
sg9
F0.92765588786292386
sg48
S'B'
sg10
F0
sg11
S'Invader remi'
p1559
sba(isaltybot
Fighter
p1560
(dp1561
g4
I0
sg5
S'Power kung fu man (-2) - $136,348'
p1562
sg7
I0
sg8
I1
sg9
F0.62290648270820959
sg48
S'B'
sg10
F0
sg11
S'Power kung fu man'
p1563
sba(isaltybot
Fighter
p1564
(dp1565
g4
I0
sg5
S'Alex mercer (-1) - $218,890\r\n'
p1566
sg7
I1
sg8
I1
sg9
F1.6105246477738848
sg48
S'B'
sg10
F0
sg11
S'Alex mercer'
p1567
sba(isaltybot
Fighter
p1568
(dp1569
g4
I0
sg5
S'Hercule gt (-4) - $66,170'
p1570
sg7
I0
sg8
I1
sg9
F0.18645739404869252
sg48
S'B'
sg10
F0
sg11
S'Hercule gt'
p1571
sba(isaltybot
Fighter
p1572
(dp1573
g4
I0
sg5
S'Saber (-2) - $354,880\r\n'
p1574
sg7
I3
sg8
I1
sg9
F3.0119440118203942
sg48
S'B'
sg10
F0
sg11
S'Saber'
p1575
sba(isaltybot
Fighter
p1576
(dp1577
g4
I0
sg5
S'Faydal (-2) - $102,378'
p1578
sg7
I1
sg8
I1
sg9
F0.30826841581651154
sg48
S'B'
sg10
F0
sg11
S'Faydal'
p1579
sba(isaltybot
Fighter
p1580
(dp1581
g4
I0
sg5
S'Licht (2) - $321,782\r\n'
p1582
sg7
I0
sg8
I1
sg9
F3.143077614331204
sg48
S'B'
sg10
F0
sg11
S'Licht'
p1583
sba(isaltybot
Fighter
p1584
(dp1585
g4
I0
sg5
S'Anne (-1) - $309,383'
p1586
sg7
I1
sg8
I1
sg9
F0.91157453501057339
sg48
S'B'
sg10
F0
sg11
S'Anne'
p1587
sba(isaltybot
Fighter
p1588
(dp1589
g4
I0
sg5
S'Hol horse (-6) - $125,159'
p1590
sg7
I0
sg8
I1
sg9
F0.34885970242442149
sg48
S'B'
sg10
F0
sg11
S'Hol horse'
p1591
sba(isaltybot
Fighter
p1592
(dp1593
g4
I0
sg5
S'New Nakoruru (-1) - $358,766\r\n'
p1594
sg7
I2
sg8
I1
sg9
F2.1679862833587213
sg48
S'B'
sg10
F0
sg11
S'New Nakoruru'
p1595
sba(isaltybot
Fighter
p1596
(dp1597
g4
I0
sg5
S'Sub-zero CVW (1) - $113,807'
p1598
sg7
I0
sg8
I1
sg9
F0.40659297473419459
sg48
S'B'
sg10
F0
sg11
S'Sub-zero CVW'
p1599
sba(isaltybot
Fighter
p1600
(dp1601
g4
I0
sg5
S'Caramelman no.2 (1) - $279,904\r\n'
p1602
sg7
I1
sg8
I1
sg9
F2.1023859346158456
sg48
S'B'
sg10
F0
sg11
S'Caramelman no.2'
p1603
sba(isaltybot
Fighter
p1604
(dp1605
g4
I0
sg5
S'Kakashi hatake (1) - $241,312'
p1606
sg7
I0
sg8
I1
sg9
F1.196829773937885
sg48
S'B'
sg10
F0
sg11
S'Kakashi hatake'
p1607
sba(isaltybot
Fighter
p1608
(dp1609
g4
I0
sg5
S'Super vegeta EX3 (1) - $201,626\r\n'
p1610
sg7
I4
sg8
I0
sg9
F0.6552962208718115
sg48
S'B'
sg10
F0
sg11
S'Super vegeta EX3'
p1611
sba(isaltybot
Fighter
p1612
(dp1613
g4
I0
sg5
S'Justice- $410,200'
p1614
sg7
I2
sg8
I0
sg9
F2.6206906352392942
sg48
S'S'
sg10
F0
sg11
S'Justice'
p1615
sba(isaltybot
Fighter
p1616
(dp1617
g4
I0
sg5
S'Maximum maxime- $190,966\r\n'
p1618
sg7
I0
sg8
I1
sg9
F0.46554363725012188
sg48
S'S'
sg10
F0
sg11
S'Maximum maxime'
p1619
sba(isaltybot
Fighter
p1620
(dp1621
g4
I0
sg5
S'Toki 2- $149,870\r\n'
p1622
sg7
I0
sg8
I1
sg9
F0.36535836177474401
sg48
S'S'
sg10
F0
sg11
S'Toki 2'
p1623
sba(isaltybot
Fighter
p1624
(dp1625
g4
I0
sg5
S'Veku- $215,093'
p1626
sg7
I1
sg8
I0
sg9
F6.75691892061697
sg48
g605
sg10
F0
sg11
S'Veku'
p1627
sba(isaltybot
Fighter
p1628
(dp1629
g4
I0
sg5
S'Anji mito- $31,833\r\n'
p1630
sg7
I0
sg8
I1
sg9
F0.14799644804805362
sg48
g605
sg10
F0
sg11
S'Anji mito'
p1631
sba(isaltybot
Fighter
p1632
(dp1633
g4
I0
sg5
S'Green lantern- $1,304,867'
p1634
sg7
I1
sg8
I0
sg9
F41.451983862257379
sg48
g605
sg10
F0
sg11
S'Green lantern'
p1635
sba(isaltybot
Fighter
p1636
(dp1637
g4
I0
sg5
S'Sinestro- $31,479\r\n'
p1638
sg7
I0
sg8
I1
sg9
F0.024124297725362048
sg48
g605
sg10
F0
sg11
S'Sinestro'
p1639
sba(isaltybot
Fighter
p1640
(dp1641
g4
I0
sg5
S'Johnny- $1,839,698\r\n'
p1642
sg7
I1
sg8
I1
sg9
F17.829172796406027
sg48
S'S'
sg10
F0
sg11
S'Johnny'
p1643
sba(isaltybot
Fighter
p1644
(dp1645
g4
I0
sg5
S'Brazer- $73,309'
p1646
sg7
I0
sg8
I1
sg9
F0.032988563418689575
sg48
g605
sg10
F0
sg11
S'Brazer'
p1647
sba(isaltybot
Fighter
p1648
(dp1649
g4
I0
sg5
S'Stake- $2,222,255\r\n'
p1650
sg7
I1
sg8
I1
sg9
F35.175897790348493
sg48
S'S'
sg10
F0
sg11
S'Stake'
p1651
sba(isaltybot
Fighter
p1652
(dp1653
g4
I0
sg5
S'P3 heroine- $109,157\r\n'
p1654
sg7
I1
sg8
I0
sg9
F0.70657267878411267
sg48
S'A'
sg10
F0
sg11
S'P3 heroine'
p1655
sba(isaltybot
Fighter
p1656
(dp1657
g4
I0
sg5
S'Guard fish- $157,344\r\n'
p1658
sg7
I0
sg8
I1
sg9
F0.094460450269644294
sg48
g605
sg10
F0
sg11
S'Guard fish'
p1659
sba(isaltybot
Fighter
p1660
(dp1661
g4
I0
sg5
S'Sumiremaru (7) - $3,022,150'
p1662
sg7
I2
sg8
I0
sg9
F47.796580118844417
sg48
S'S'
sg10
F0
sg11
S'Sumiremaru'
p1663
sba(isaltybot
Fighter
p1664
(dp1665
g4
I0
sg5
S'Kongou (-1) - $46,257\r\n'
p1666
sg7
I0
sg8
I1
sg9
F0.015305990768161739
sg48
S'S'
sg10
F0
sg11
S'Kongou'
p1667
sba(isaltybot
Fighter
p1668
(dp1669
g4
I0
sg5
S'Sorluska EX2 (-1) - $110,572'
p1670
sg7
I0
sg8
I1
sg9
F0.30787736361282275
sg48
S'S'
sg10
F0
sg11
S'Sorluska EX2'
p1671
sba(isaltybot
Fighter
p1672
(dp1673
g4
I0
sg5
S'Heidern_ex (1) - $359,143\r\n'
p1674
sg7
I1
sg8
I0
sg9
F3.2480465217234018
sg48
S'S'
sg10
F0
sg11
S'Heidern_ex'
p1675
sba(isaltybot
Fighter
p1676
(dp1677
g4
I0
sg5
S'Kenoh (1) - $407,418'
p1678
sg7
I1
sg8
I0
sg9
F9.4213763759134217
sg48
S'S'
sg10
F0
sg11
S'Kenoh'
p1679
sba(isaltybot
Fighter
p1680
(dp1681
g4
I0
sg5
S'Gohan ssj4 (-1) - $43,244\r\n'
p1682
sg7
I0
sg8
I1
sg9
F0.10614160395466081
sg48
S'S'
sg10
F0
sg11
S'Gohan ssj4'
p1683
sba(isaltybot
Fighter
p1684
(dp1685
g4
I0
sg5
S'Daimon 98 (4) - $767,050'
p1686
sg7
I1
sg8
I0
sg9
F19.049097275684804
sg48
S'A'
sg10
F0
sg11
S'Daimon 98'
p1687
sba(isaltybot
Fighter
p1688
(dp1689
g4
I0
sg5
S'Tetsu yatogi (-5) - $40,267\r\n'
p1690
sg7
I0
sg8
I1
sg9
F0.052495925950068446
sg48
S'A'
sg10
F0
sg11
S'Tetsu yatogi'
p1691
sba(isaltybot
Fighter
p1692
(dp1693
g4
I0
sg5
S'Kung fu man neo (29) - $453,379'
p1694
sg7
I1
sg8
I0
sg9
F1.8732656821994331
sg48
S'S'
sg10
F0
sg11
S'Kung fu man neo'
p1695
sba(isaltybot
Fighter
p1696
(dp1697
g4
I0
sg5
S'Hakureimu (2) - $242,026\r\n'
p1698
sg7
I0
sg8
I1
sg9
F0.5338271071222972
sg48
S'S'
sg10
F0
sg11
S'Hakureimu'
p1699
sba(isaltybot
Fighter
p1700
(dp1701
g4
I0
sg5
S'Beast (-5) - $32,878'
p1702
sg7
I0
sg8
I1
sg9
F0.28885452724429372
sg48
S'B'
sg10
F0
sg11
S'Beast'
p1703
sba(isaltybot
Fighter
p1704
(dp1705
g4
I0
sg5
S'Mrdestructoid (1) - $427,476'
p1706
sg7
I0
sg8
I1
sg9
F1.0346875794212687
sg48
S'S'
sg10
F0
sg11
S'Mrdestructoid'
p1707
sba(isaltybot
Fighter
p1708
(dp1709
g4
I0
sg5
S'Robo-mizuchi (4) - $33,500'
p1710
sg7
I0
sg8
I1
sg9
F0.13309918471782972
sg48
S'B'
sg10
F0
sg11
S'Robo-mizuchi'
p1711
sba(isaltybot
Fighter
p1712
(dp1713
g4
I0
sg5
S'Akys (1) - $251,692\r\n'
p1714
sg7
I1
sg8
I0
sg9
F7.5131940298507462
sg48
S'B'
sg10
F0
sg11
S'Akys'
p1715
sba(isaltybot
Fighter
p1716
(dp1717
g4
I0
sg5
S'Robo-segalow (7) - $196,674'
p1718
sg7
I1
sg8
I0
sg9
F2.8696032799801565
sg48
S'B'
sg10
F0
sg11
S'Robo-segalow'
p1719
sba(isaltybot
Fighter
p1720
(dp1721
g4
I0
sg5
S'Lei-lei (1) - $68,537\r\n'
p1722
sg7
I0
sg8
I1
sg9
F0.34848022616105839
sg48
S'B'
sg10
F0
sg11
S'Lei-lei'
p1723
sba(isaltybot
Fighter
p1724
(dp1725
g4
I0
sg5
S'Biscuit-oliva (0) - $56,235'
p1726
sg7
I0
sg8
I1
sg9
F0.40022062486655752
sg48
S'A'
sg10
F0
sg11
S'Biscuit-oliva'
p1727
sba(isaltybot
Fighter
p1728
(dp1729
g4
I0
sg5
S'Corin (4) - $140,510\r\n'
p1730
sg7
I1
sg8
I0
sg9
F2.4986218547168133
sg48
S'A'
sg10
F0
sg11
S'Corin'
p1731
sba(isaltybot
Fighter
p1732
(dp1733
g4
I0
sg5
S'Vayeate (-8) - $116,605'
p1734
sg7
I0
sg8
I1
sg9
F1.1391879481818714
sg48
S'A'
sg10
F0
sg11
S'Vayeate'
p1735
sba(isaltybot
Fighter
p1736
(dp1737
g4
I0
sg5
S'Nagaoka shiho (-2) - $102,358\r\n'
p1738
sg7
I1
sg8
I0
sg9
F0.87781827537412638
sg48
S'A'
sg10
F0
sg11
S'Nagaoka shiho'
p1739
sba(isaltybot
Fighter
p1740
(dp1741
g4
I0
sg5
S'Junichi (2) - $108,813'
p1742
sg7
I0
sg8
I1
sg9
F2.4133472320794889
sg48
S'S'
sg10
F0
sg11
S'Junichi'
p1743
sba(isaltybot
Fighter
p1744
(dp1745
g4
I0
sg5
S'Rutee (-2) - $45,088\r\n'
p1746
sg7
I1
sg8
I0
sg9
F0.41436225451003095
sg48
S'S'
sg10
F0
sg11
S'Rutee'
p1747
sba(isaltybot
Fighter
p1748
(dp1749
g4
I0
sg5
S'Shampoo (1) - $69,548'
p1750
sg7
I1
sg8
I0
sg9
F0.3433333168778725
sg48
S'A'
sg10
F0
sg11
S'Shampoo'
p1751
sba(isaltybot
Fighter
p1752
(dp1753
g4
I0
sg5
S'Enja ex (-1) - $202,567\r\n'
p1754
sg7
I0
sg8
I1
sg9
F2.912621498820958
sg48
S'A'
sg10
F0
sg11
S'Enja ex'
p1755
sba(isaltybot
Fighter
p1756
(dp1757
g4
I0
sg5
S'Asuta-san (-1) - $151,839'
p1758
sg7
I1
sg8
I0
sg9
F0.76812833250705703
sg48
S'B'
sg10
F0
sg11
S'Asuta-san'
p1759
sba(isaltybot
Fighter
p1760
(dp1761
g4
I0
sg5
S'Kusanagi (-1) - $197,674\r\n'
p1762
sg7
I0
sg8
I1
sg9
F1.3018657920560595
sg48
S'B'
sg10
F0
sg11
S'Kusanagi'
p1763
sba(isaltybot
Fighter
p1764
(dp1765
g4
I0
sg5
S'Dark phoenix (-1) - $73,446'
p1766
sg7
I1
sg8
I0
sg9
F0.34119352231234495
sg48
S'S'
sg10
F0
sg11
S'Dark phoenix'
p1767
sba(isaltybot
Fighter
p1768
(dp1769
g4
I0
sg5
S'Bristol-d (1) - $215,262\r\n'
p1770
sg7
I0
sg8
I1
sg9
F2.9308879993464587
sg48
S'S'
sg10
F0
sg11
S'Bristol-d'
p1771
sba(isaltybot
Fighter
p1772
(dp1773
g4
I0
sg5
S'Reisen e inaba (-9) - $51,192'
p1774
sg7
I0
sg8
I1
sg9
F0.015808299357162509
sg48
S'B'
sg10
F0
sg11
S'Reisen e inaba'
p1775
sba(isaltybot
Fighter
p1776
(dp1777
g4
I0
sg5
S'Hatate_himekaidou (2) - $3,238,299\r\n'
p1778
sg7
I1
sg8
I0
sg9
F63.257911392405063
sg48
S'B'
sg10
F0
sg11
S'Hatate_himekaidou'
p1779
sba(isaltybot
Fighter
p1780
(dp1781
g4
I0
sg5
S'Mukuro EX G (-1) - $1,202,761'
p1782
sg7
I1
sg8
I0
sg9
F28.835582939752104
sg48
S'A'
sg10
F0
sg11
S'Mukuro EX G'
p1783
sba(isaltybot
Fighter
p1784
(dp1785
g4
I0
sg5
S'Terry ex02 (1) - $41,711\r\n'
p1786
sg7
I0
sg8
I1
sg9
F0.034679375204217627
sg48
S'A'
sg10
F0
sg11
S'Terry ex02'
p1787
sba(isaltybot
Fighter
p1788
(dp1789
g4
I0
sg5
S'Kongman (1) - $91,184'
p1790
sg7
I0
sg8
I1
sg9
F2.4850516447278772
sg48
S'S'
sg10
F0
sg11
S'Kongman'
p1791
sba(isaltybot
Fighter
p1792
(dp1793
g4
I0
sg5
S'Yuen-joe (-6) - $36,693\r\n'
p1794
sg7
I1
sg8
I0
sg9
F0.40240612388138269
sg48
S'S'
sg10
F0
sg11
S'Yuen-joe'
p1795
sba(isaltybot
Fighter
p1796
(dp1797
g4
I0
sg5
S'Sagat f22 (1) - $43,394'
p1798
sg7
I0
sg8
I1
sg9
F0.28826135767286448
sg48
S'A'
sg10
F0
sg11
S'Sagat f22'
p1799
sba(isaltybot
Fighter
p1800
(dp1801
g4
I0
sg5
S'Mike Haggar (-1) - $126,513'
p1802
sg7
I1
sg8
I0
sg9
F0.99547557597884928
sg48
S'B'
sg10
F0
sg11
S'Mike Haggar'
p1803
sba(isaltybot
Fighter
p1804
(dp1805
g4
I0
sg5
S'Cell SS (-5) - $127,088\r\n'
p1806
sg7
I0
sg8
I1
sg9
F1.0045449874716432
sg48
S'B'
sg10
F0
sg11
S'Cell SS'
p1807
sba(isaltybot
Fighter
p1808
(dp1809
g4
I0
sg5
S'Kana-chan dhq EX3 (-4) - $41,482'
p1810
sg7
I0
sg8
I1
sg9
F0.01799347702840863
sg48
S'A'
sg10
F0
sg11
S'Kana-chan dhq EX3'
p1811
sba(isaltybot
Fighter
p1812
(dp1813
g4
I0
sg5
S'Dual koa(v0.5.2) (2) - $2,305,391\r\n'
p1814
sg7
I1
sg8
I0
sg9
F55.575695482377895
sg48
S'A'
sg10
F0
sg11
S'Dual koa(v0.5.2)'
p1815
sba(isaltybot
Fighter
p1816
(dp1817
g4
I0
sg5
S'Puss in boots (-2) - $47,590'
p1818
sg7
I0
sg8
I1
sg9
F0.35807262275593277
sg48
S'A'
sg10
F0
sg11
S'Puss in boots'
p1819
sba(isaltybot
Fighter
p1820
(dp1821
g4
I0
sg5
S'Athena945 (-2) - $132,906\r\n'
p1822
sg7
I2
sg8
I0
sg9
F3.1022856337505034
sg48
S'A'
sg10
F0
sg11
S'Athena945'
p1823
sba(isaltybot
Fighter
p1824
(dp1825
g4
I0
sg5
S'Moogle (2) - $112,767'
p1826
sg7
I1
sg8
I0
sg9
F0.12510359012590569
sg48
S'S'
sg10
F0
sg11
S'Moogle'
p1827
sba(isaltybot
Fighter
p1828
(dp1829
g4
I0
sg5
S'Geki de oso (3) - $3,099,963'
p1830
sg7
I1
sg8
I0
sg9
F80.293281185246585
sg48
S'B'
sg10
F0
sg11
S'Geki de oso'
p1831
sba(isaltybot
Fighter
p1832
(dp1833
g4
I0
sg5
S'Tom (-3) - $38,608\r\n'
p1834
sg7
I0
sg8
I1
sg9
F0.012454342196987513
sg48
S'B'
sg10
F0
sg11
S'Tom'
p1835
sba(isaltybot
Fighter
p1836
(dp1837
g4
I0
sg5
S'Leonardo EX (-2) - $41,194'
p1838
sg7
I0
sg8
I1
sg9
F0.22124830145712152
sg48
S'A'
sg10
F0
sg11
S'Leonardo EX'
p1839
sba(isaltybot
Fighter
p1840
(dp1841
g4
I0
sg5
S'Shingo (2) - $186,189\r\n'
p1842
sg7
I1
sg8
I0
sg9
F4.5198087100063118
sg48
S'A'
sg10
F0
sg11
S'Shingo'
p1843
sba(isaltybot
Fighter
p1844
(dp1845
g4
I0
sg5
S'American idiot (1) - $119,161'
p1846
sg7
I1
sg8
I0
sg9
F2.0797437866517732
sg48
S'B'
sg10
F0
sg11
S'American idiot'
p1847
sba(isaltybot
Fighter
p1848
(dp1849
g4
I0
sg5
S'Wing zero (-2) - $57,296\r\n'
p1850
sg7
I0
sg8
I1
sg9
F0.48082845897567156
sg48
S'B'
sg10
F0
sg11
S'Wing zero'
p1851
sba(isaltybot
Fighter
p1852
(dp1853
g4
I0
sg5
S'Sailor venus (-3) - $148,173'
p1854
sg7
I0
sg8
I1
sg9
F0.11411827950364135
sg48
S'B'
sg10
F0
sg11
S'Sailor venus'
p1855
sba(isaltybot
Fighter
p1856
(dp1857
g4
I0
sg5
S'Hanyuu (6) - $1,298,416\r\n'
p1858
sg7
I1
sg8
I0
sg9
F8.7628380339198095
sg48
S'B'
sg10
F0
sg11
S'Hanyuu'
p1859
sba(isaltybot
Fighter
p1860
(dp1861
g4
I0
sg5
S'Godzilla (1) - $21,120'
p1862
sg7
I0
sg8
I1
sg9
F0.079548022598870061
sg48
S'B'
sg10
F0
sg11
S'Godzilla'
p1863
sba(isaltybot
Fighter
p1864
(dp1865
g4
I0
sg5
S'Kracko (-1) - $265,500\r\n'
p1866
sg7
I1
sg8
I0
sg9
F12.571022727272727
sg48
S'B'
sg10
F0
sg11
S'Kracko'
p1867
sba(isaltybot
Fighter
p1868
(dp1869
g4
I0
sg5
S'Felicueid (-1) - $36,642'
p1870
sg7
I0
sg8
I1
sg9
F0.36245833044820114
sg48
S'B'
sg10
F0
sg11
S'Felicueid'
p1871
sba(isaltybot
Fighter
p1872
(dp1873
g4
I0
sg5
S'Kana orikura (1) - $101,093\r\n'
p1874
sg7
I1
sg8
I0
sg9
F2.7589378309044266
sg48
S'B'
sg10
F0
sg11
S'Kana orikura'
p1875
sba(isaltybot
Fighter
p1876
(dp1877
g4
I0
sg5
S'Plok (-8) - $13,618'
p1878
sg7
I1
sg8
I0
sg9
F0.040231735743259014
sg48
S'B'
sg10
F0
sg11
S'Plok'
p1879
sba(isaltybot
Fighter
p1880
(dp1881
g4
I0
sg5
S'Kisei de dekinaiko (-1) - $338,489\r\n'
p1882
sg7
I0
sg8
I1
sg9
F24.855999412542225
sg48
S'B'
sg10
F0
sg11
S'Kisei de dekinaiko'
p1883
sba(isaltybot
Fighter
p1884
(dp1885
g4
I0
sg5
S'Cloud (3d) (-5) - $210,637'
p1886
sg7
I0
sg8
I1
sg9
F0.69447027094749192
sg48
S'B'
sg10
F0
sg11
S'Cloud (3d)'
p1887
sba(isaltybot
Fighter
p1888
(dp1889
g4
I0
sg5
S'Rugal CVS (-1) - $303,306\r\n'
p1890
sg7
I1
sg8
I0
sg9
F1.4399464481548825
sg48
S'B'
sg10
F0
sg11
S'Rugal CVS'
p1891
sba(isaltybot
Fighter
p1892
(dp1893
g4
I0
sg5
S'Pentagon & black hole (-9) - $27,758'
p1894
sg7
I0
sg8
I1
sg9
F0.14338476478761925
sg48
S'A'
sg10
F0
sg11
S'Pentagon & black hole'
p1895
sba(isaltybot
Fighter
p1896
(dp1897
g4
I0
sg5
S'Heat man (-1) - $193,591\r\n'
p1898
sg7
I1
sg8
I0
sg9
F6.9742416600619643
sg48
S'A'
sg10
F0
sg11
S'Heat man'
p1899
sba(isaltybot
Fighter
p1900
(dp1901
g4
I0
sg5
S'Gray fullbuster (-1) - $23,705'
p1902
sg7
I1
sg8
I0
sg9
F0.11727252938615586
sg48
S'B'
sg10
F0
sg11
S'Gray fullbuster'
p1903
sba(isaltybot
Fighter
p1904
(dp1905
g4
I0
sg5
S'Toro inoue (-3) - $202,136\r\n'
p1906
sg7
I0
sg8
I1
sg9
F8.5271461716937349
sg48
S'B'
sg10
F0
sg11
S'Toro inoue'
p1907
sba(isaltybot
Fighter
p1908
(dp1909
g4
I0
sg5
S'Devilch (-1) - $105,746'
p1910
sg7
I0
sg8
I1
sg9
F0.36182909387040041
sg48
S'A'
sg10
F0
sg11
S'Devilch'
p1911
sba(isaltybot
Fighter
p1912
(dp1913
g4
I0
sg5
S'Vise (-2) - $47,538'
p1914
sg7
I0
sg8
I1
sg9
F0.17374618977653999
sg48
S'A'
sg10
F0
sg11
S'Vise'
p1915
sba(isaltybot
Fighter
p1916
(dp1917
g4
I0
sg5
S'Fcmeirin EX2 (-1) - $273,606\r\n'
p1918
sg7
I1
sg8
I0
sg9
F5.7555218982708567
sg48
S'A'
sg10
F0
sg11
S'Fcmeirin EX2'
p1919
sba(isaltybot
Fighter
p1920
(dp1921
g4
I0
sg5
S"Burnin' leo (1) - $120,843"
p1922
sg7
I1
sg8
I0
sg9
F0.77122835680871027
sg48
S'S'
sg10
F0
sg11
S"Burnin' leo"
p1923
sba(isaltybot
Fighter
p1924
(dp1925
g4
I0
sg5
S'Zeorymer (-4) - $156,689\r\n'
p1926
sg7
I0
sg8
I1
sg9
F1.2966328210984501
sg48
S'S'
sg10
F0
sg11
S'Zeorymer'
p1927
sba(isaltybot
Fighter
p1928
(dp1929
g4
I0
sg5
S'Dr.doom (-2) - $1,267,748'
p1930
sg7
I1
sg8
I0
sg9
F26.519150716452256
sg48
S'B'
sg10
F0
sg11
S'Dr.doom'
p1931
sba(isaltybot
Fighter
p1932
(dp1933
g4
I0
sg5
S'Rodimus prime (-3) - $47,805\r\n'
p1934
sg7
I0
sg8
I1
sg9
F0.037708598238766697
sg48
S'B'
sg10
F0
sg11
S'Rodimus prime'
p1935
sba(isaltybot
Fighter
p1936
(dp1937
g4
I0
sg5
S'Symbiote thanos (-5) - $22,142'
p1938
sg7
I0
sg8
I1
sg9
F0.07047686950543329
sg48
S'B'
sg10
F0
sg11
S'Symbiote thanos'
p1939
sba(isaltybot
Fighter
p1940
(dp1941
g4
I0
sg5
S'Birdie (-2) - $314,174\r\n'
p1942
sg7
I1
sg8
I0
sg9
F14.189052479450817
sg48
S'B'
sg10
F0
sg11
S'Birdie'
p1943
sba(isaltybot
Fighter
p1944
(dp1945
g4
I0
sg5
S'Saizo ryo (-1) - $229,551'
p1946
sg7
I1
sg8
I0
sg9
F3.2587697505714002
sg48
S'B'
sg10
F0
sg11
S'Saizo ryo'
p1947
sba(isaltybot
Fighter
p1948
(dp1949
g4
I0
sg5
S'Rev saizo (-8) - $70,441\r\n'
p1950
sg7
I0
sg8
I1
sg9
F0.30686426981367976
sg48
S'B'
sg10
F0
sg11
S'Rev saizo'
p1951
sba(isaltybot
Fighter
p1952
(dp1953
g4
I0
sg5
S'Kusanagi EX (1) - $26,572'
p1954
sg7
I0
sg8
I1
sg9
F0.1835196939036266
sg48
S'A'
sg10
F0
sg11
S'Kusanagi EX'
p1955
sba(isaltybot
Fighter
p1956
(dp1957
g4
I0
sg5
S'Marvel frozen (-1) - $144,791\r\n'
p1958
sg7
I1
sg8
I0
sg9
F5.4490064729790761
sg48
S'A'
sg10
F0
sg11
S'Marvel frozen'
p1959
sba(isaltybot
Fighter
p1960
(dp1961
g4
I0
sg5
S'Julian solo poseidon (4) - $386,095'
p1962
sg7
I1
sg8
I0
sg9
F1.7076067102161405
sg48
S'S'
sg10
F0
sg11
S'Julian solo poseidon'
p1963
sba(isaltybot
Fighter
p1964
(dp1965
g4
I0
sg5
S'Opirus element (1) - $226,103\r\n'
p1966
sg7
I0
sg8
I1
sg9
F0.58561493932840358
sg48
S'S'
sg10
F0
sg11
S'Opirus element'
p1967
sba(isaltybot
Fighter
p1968
(dp1969
g4
I0
sg5
S'Darkwing duck EX (-6) - $28,659'
p1970
sg7
I0
sg8
I2
sg9
F0.0095778382459986416
sg48
S'B'
sg10
F0
sg11
S'Darkwing duck EX'
p1971
sba(isaltybot
Fighter
p1972
(dp1973
g4
I0
sg5
S'Masako(emanon) (2) - $7,110,446\r\n'
p1974
sg7
I1
sg8
I0
sg9
F248.10516766111868
sg48
S'B'
sg10
F0
sg11
S'Masako(emanon)'
p1975
sba(isaltybot
Fighter
p1976
(dp1977
g4
I0
sg5
S'Saki mitonoya (1) - $89,149'
p1978
sg7
I1
sg8
I0
sg9
F1.096368354383678
sg48
S'B'
sg10
F0
sg11
S'Saki mitonoya'
p1979
sba(isaltybot
Fighter
p1980
(dp1981
g4
I0
sg5
S'Pikaman (2) - $81,313\r\n'
p1982
sg7
I0
sg8
I1
sg9
F0.91210221090533827
sg48
S'B'
sg10
F0
sg11
S'Pikaman'
p1983
sba(isaltybot
Fighter
p1984
(dp1985
g4
I0
sg5
S'Sumo (1) - $74,839'
p1986
sg7
I1
sg8
I0
sg9
F0.88346259635702562
sg48
S'B'
sg10
F0
sg11
S'Sumo'
p1987
sba(isaltybot
Fighter
p1988
(dp1989
g4
I0
sg5
S'Keel (3) - $84,711\r\n'
p1990
sg7
I0
sg8
I1
sg9
F1.1319098331084061
sg48
S'B'
sg10
F0
sg11
S'Keel'
p1991
sba(isaltybot
Fighter
p1992
(dp1993
g4
I0
sg5
S'Furude rika (-1) - $79,054'
p1994
sg7
I1
sg8
I0
sg9
F0.71586134453781514
sg48
S'A'
sg10
F0
sg11
S'Furude rika'
p1995
sba(isaltybot
Fighter
p1996
(dp1997
g4
I0
sg5
S'Moraga (3) - $543,215'
p1998
sg7
I1
sg8
I0
sg9
F24.090425296021998
sg48
S'A'
sg10
F0
sg11
S'Moraga'
p1999
sba(isaltybot
Fighter
p2000
(dp2001
g4
I0
sg5
S'Tetsu yatoji (2) - $22,549\r\n'
p2002
sg7
I0
sg8
I1
sg9
F0.041510267573612661
sg48
S'A'
sg10
F0
sg11
S'Tetsu yatoji'
p2003
sba(isaltybot
Fighter
p2004
(dp2005
g4
I0
sg5
S'Mvc2 cyclops (-6) - $44,127'
p2006
sg7
I0
sg8
I1
sg9
F0.2446308389972392
sg48
S'S'
sg10
F0
sg11
S'Mvc2 cyclops'
p2007
sba(isaltybot
Fighter
p2008
(dp2009
g4
I0
sg5
S'Masked rider 1st (1) - $180,382\r\n'
p2010
sg7
I1
sg8
I0
sg9
F4.0877920547510591
sg48
S'S'
sg10
F0
sg11
S'Masked rider 1st'
p2011
sba(isaltybot
Fighter
p2012
(dp2013
g4
I0
sg5
S'Garner (-6) - $160,776'
p2014
sg7
I1
sg8
I0
sg9
F0.33778670459630772
sg48
S'S'
sg10
F0
sg11
S'Garner'
p2015
sba(isaltybot
Fighter
p2016
(dp2017
g4
I0
sg5
S'Ultraman gaia (-2) - $475,969\r\n'
p2018
sg7
I0
sg8
I1
sg9
F2.9604480768273871
sg48
S'S'
sg10
F0
sg11
S'Ultraman gaia'
p2019
sba(isaltybot
Fighter
p2020
(dp2021
g4
I0
sg5
S'W.krauser (-4) - $18,503'
p2022
sg7
I0
sg8
I1
sg9
F0.01133423339099583
sg48
S'S'
sg10
F0
sg11
S'W.krauser'
p2023
sba(isaltybot
Fighter
p2024
(dp2025
g4
I0
sg5
S'Beelzebub (5) - $1,632,488\r\n'
p2026
sg7
I1
sg8
I0
sg9
F88.228287304761395
sg48
S'S'
sg10
F0
sg11
S'Beelzebub'
p2027
sba(isaltybot
Fighter
p2028
(dp2029
g4
I0
sg5
S'Shin eddie (1) - $810,850'
p2030
sg7
I0
sg8
I1
sg9
F0.78790923472183894
sg48
S'B'
sg10
F0
sg11
S'Shin eddie'
p2031
sba(isaltybot
Fighter
p2032
(dp2033
g4
I0
sg5
S'Momizi-e (8) - $1,029,116\r\n'
p2034
sg7
I1
sg8
I0
sg9
F1.2691817228833939
sg48
S'B'
sg10
F0
sg11
S'Momizi-e'
p2035
sba(isaltybot
Fighter
p2036
(dp2037
g4
I0
sg5
S'Nf-kyo EX3 (-2) - $63,594'
p2038
sg7
I1
sg8
I0
sg9
F0.07742354920633375
sg48
S'B'
sg10
F0
sg11
S'Nf-kyo EX3'
p2039
sba(isaltybot
Fighter
p2040
(dp2041
g4
I0
sg5
S'Makai (5) - $821,378\r\n'
p2042
sg7
I0
sg8
I1
sg9
F12.915966915117778
sg48
S'B'
sg10
F0
sg11
S'Makai'
p2043
sba(isaltybot
Fighter
p2044
(dp2045
g4
I0
sg5
S'Evil barney (1) - $755,077'
p2046
sg7
I1
sg8
I0
sg9
F7.4432889081660818
sg48
S'S'
sg10
F0
sg11
S'Evil barney'
p2047
sba(isaltybot
Fighter
p2048
(dp2049
g4
I0
sg5
S'Lucifeller_ex (-4) - $101,444\r\n'
p2050
sg7
I0
sg8
I1
sg9
F0.13434921206711367
sg48
S'S'
sg10
F0
sg11
S'Lucifeller_ex'
p2051
sba(isaltybot
Fighter
p2052
(dp2053
g4
I0
sg5
S'Mako (-2) - $47,986'
p2054
sg7
I0
sg8
I1
sg9
F0.033408268591730017
sg48
S'B'
sg10
F0
sg11
S'Mako'
p2055
sba(isaltybot
Fighter
p2056
(dp2057
g4
I0
sg5
S'Zeus ex (2) - $1,436,351\r\n'
p2058
sg7
I1
sg8
I0
sg9
F29.932709540282584
sg48
S'B'
sg10
F0
sg11
S'Zeus ex'
p2059
sba(isaltybot
Fighter
p2060
(dp2061
g4
I0
sg5
S"Billy 'big bang' blitz (3) - $74,238"
p2062
sg7
I0
sg8
I1
sg9
F0.1111911583872654
sg48
S'S'
sg10
F0
sg11
S"Billy 'big bang' blitz"
p2063
sba(isaltybot
Fighter
p2064
(dp2065
g4
I0
sg5
S'Raoh sai (-3) - $667,661\r\n'
p2066
sg7
I1
sg8
I0
sg9
F8.9935208383846543
sg48
S'S'
sg10
F0
sg11
S'Raoh sai'
p2067
sba(isaltybot
Fighter
p2068
(dp2069
g4
I0
sg5
S'Little busters! ce (-1) - $2,831,955'
p2070
sg7
I1
sg8
I0
sg9
F69.890301085883507
sg48
S'X'
sg10
F0
sg11
S'Little busters! ce'
p2071
sba(isaltybot
Fighter
p2072
(dp2073
g4
I0
sg5
S'Supreme gogeta v1.5 (-2) - $40,520\r\n'
p2074
sg7
I0
sg8
I1
sg9
F0.014308136958390935
sg48
S'X'
sg10
F0
sg11
S'Supreme gogeta v1.5'
p2075
sba(isaltybot
Fighter
p2076
(dp2077
g4
I0
sg5
S'Eri_hasumi (-1) - $47,107'
p2078
sg7
I1
sg8
I0
sg9
F0.12241212193657863
sg48
S'B'
sg10
F0
sg11
S'Eri_hasumi'
p2079
sba(isaltybot
Fighter
p2080
(dp2081
g4
I0
sg5
S'Gelonimon (-1) - $237,554\r\n'
p2082
sg7
I0
sg8
I1
sg9
F0.078604304882285786
sg48
S'S'
sg10
F0
sg11
S'Gelonimon'
p2083
sba(isaltybot
Fighter
p2084
(dp2085
g4
I0
sg5
S'Multiple man (-2) - $24,493'
p2086
sg7
I0
sg8
I1
sg9
F0.021851229995949677
sg48
S'B'
sg10
F0
sg11
S'Multiple man'
p2087
sba(isaltybot
Fighter
p2088
(dp2089
g4
I0
sg5
S'Tyssa willing (9) - $1,120,898\r\n'
p2090
sg7
I1
sg8
I0
sg9
F45.764014208141099
sg48
S'B'
sg10
F0
sg11
S'Tyssa willing'
p2091
sba(isaltybot
Fighter
p2092
(dp2093
g4
I0
sg5
S'Voltz (2) - $421,899'
p2094
sg7
I0
sg8
I1
sg9
F1.2411787548761761
sg48
S'A'
sg10
F0
sg11
S'Voltz'
p2095
sba(isaltybot
Fighter
p2096
(dp2097
g4
I0
sg5
S'Chris_gb (-1) - $445,699\r\n'
p2098
sg7
I1
sg8
I0
sg9
F7.0621444756064715
sg48
S'S'
sg10
F0
sg11
S'Chris_gb'
p2099
sba(isaltybot
Fighter
p2100
(dp2101
g4
I0
sg5
S'Overlord (-2) - $35,714'
p2102
sg7
I0
sg8
I1
sg9
F0.26871623553488933
sg48
S'A'
sg10
F0
sg11
S'Overlord'
p2103
sba(isaltybot
Fighter
p2104
(dp2105
g4
I0
sg5
S'Daos (1) - $360,091'
p2106
sg7
I1
sg8
I0
sg9
F0.19727370890964244
sg48
S'B'
sg10
F0
sg11
S'Daos'
p2107
sba(isaltybot
Fighter
p2108
(dp2109
g4
I0
sg5
S'Mars people (1) - $1,825,337\r\n'
p2110
sg7
I0
sg8
I1
sg9
F5.0690991999244632
sg48
S'B'
sg10
F0
sg11
S'Mars people'
p2111
sba(isaltybot
Fighter
p2112
(dp2113
g4
I0
sg5
S'Blackheart (-1) - $470,943'
p2114
sg7
I1
sg8
I0
sg9
F9.7546138072453861
sg48
S'A'
sg10
F0
sg11
S'Blackheart'
p2115
sba(isaltybot
Fighter
p2116
(dp2117
g4
I0
sg5
S'Saya EX (-5) - $48,279\r\n'
p2118
sg7
I0
sg8
I1
sg9
F0.10251559105879056
sg48
S'A'
sg10
F0
sg11
S'Saya EX'
p2119
sba(isaltybot
Fighter
p2120
(dp2121
g4
I0
sg5
S'Homura EX (-1) - $174,403\r\n'
p2122
sg7
I1
sg8
I0
sg9
F0.094799798662606585
sg48
S'S'
sg10
F0
sg11
S'Homura EX'
p2123
sba(isaltybot
Fighter
p2124
(dp2125
g4
I0
sg5
S'Kim XIII (1) - $5,166,307'
p2126
sg7
I1
sg8
I0
sg9
F180.26822289682124
sg48
S'B'
sg10
F0
sg11
S'Kim XIII'
p2127
sba(isaltybot
Fighter
p2128
(dp2129
g4
I0
sg5
S'Avalanche (-1) - $50,416'
p2130
sg7
I0
sg8
I1
sg9
F0.037162291654995711
sg48
S'B'
sg10
F0
sg11
S'Avalanche'
p2131
sba(isaltybot
Fighter
p2132
(dp2133
g4
I0
sg5
S'Koishi_b (-1) - $1,356,644\r\n'
p2134
sg7
I1
sg8
I0
sg9
F26.908997143763884
sg48
S'B'
sg10
F0
sg11
S'Koishi_b'
p2135
sba(isaltybot
Fighter
p2136
(dp2137
g4
I0
sg5
S'Dark baltan (2) - $123,352'
p2138
sg7
I0
sg8
I1
sg9
F3.026671574039995
sg48
S'A'
sg10
F0
sg11
S'Dark baltan'
p2139
sba(isaltybot
Fighter
p2140
(dp2141
g4
I0
sg5
S'Lyndis (-2) - $40,755\r\n'
p2142
sg7
I1
sg8
I0
sg9
F0.33039594007393475
sg48
S'A'
sg10
F0
sg11
S'Lyndis'
p2143
sba(isaltybot
Fighter
p2144
(dp2145
g4
I0
sg5
S'Yuki Orochi (2) - $181,144'
p2146
sg7
I0
sg8
I1
sg9
F0.92544587890894414
sg48
S'B'
sg10
F0
sg11
S'Yuki Orochi'
p2147
sba(isaltybot
Fighter
p2148
(dp2149
g4
I0
sg5
S'Dirty kf man (3) - $195,737\r\n'
p2150
sg7
I1
sg8
I0
sg9
F1.0805602172856954
sg48
S'B'
sg10
F0
sg11
S'Dirty kf man'
p2151
sba(isaltybot
Fighter
p2152
(dp2153
g4
I0
sg5
S'Remilya scarlet (7) - $94,189'
p2154
sg7
I1
sg8
I0
sg9
F0.47458506746747553
sg48
S'A'
sg10
F0
sg11
S'Remilya scarlet'
p2155
sba(isaltybot
Fighter
p2156
(dp2157
g4
I0
sg5
S'Sailor mercury k (1) - $198,466\r\n'
p2158
sg7
I0
sg8
I1
sg9
F2.1071038019301618
sg48
S'A'
sg10
F0
sg11
S'Sailor mercury k'
p2159
sba(isaltybot
Fighter
p2160
(dp2161
g4
I0
sg5
S'Yagumo_ex (1) - $163,138'
p2162
sg7
I0
sg8
I1
sg9
F0.65379420899709451
sg48
S'S'
sg10
F0
sg11
S'Yagumo_ex'
p2163
sba(isaltybot
Fighter
p2164
(dp2165
g4
I0
sg5
S'Kid gohan EX3 (-1) - $249,525\r\n'
p2166
sg7
I1
sg8
I0
sg9
F1.5295332785739681
sg48
S'S'
sg10
F0
sg11
S'Kid gohan EX3'
p2167
sba(isaltybot
Fighter
p2168
(dp2169
g4
I0
sg5
S'Falco la pasione(nagiai) (-2) - $56,572'
p2170
sg7
I0
sg8
I1
sg9
F0.023532631913480182
sg48
S'S'
sg10
F0
sg11
S'Falco la pasione(nagiai)'
p2171
sba(isaltybot
Fighter
p2172
(dp2173
g4
I0
sg5
S'Shrek (-6) - $2,403,981\r\n'
p2174
sg7
I2
sg8
I0
sg9
F98.421529460804223
sg48
S'S'
sg10
F0
sg11
S'Shrek'
p2175
sba(isaltybot
Fighter
p2176
(dp2177
g4
I0
sg5
S'Rock(mkii) (1) - $236,407'
p2178
sg7
I1
sg8
I0
sg9
F0.9468247865301741
sg48
S'S'
sg10
F0
sg11
S'Rock(mkii)'
p2179
sba(isaltybot
Fighter
p2180
(dp2181
g4
I0
sg5
S'Omega tiger woods (-2) - $249,684\r\n'
p2182
sg7
I0
sg8
I1
sg9
F1.0561616195797925
sg48
S'S'
sg10
F0
sg11
S'Omega tiger woods'
p2183
sba(isaltybot
Fighter
p2184
(dp2185
g4
I0
sg5
S'Syoh (3) - $254,637'
p2186
sg7
I0
sg8
I0
sg9
F0
sg48
S'B'
sg10
F0
sg11
S'Syoh'
p2187
sba(isaltybot
Fighter
p2188
(dp2189
g4
I0
sg5
S'A Bison (1) - $46,718\r\n'
p2190
sg7
I0
sg8
I0
sg9
F0
sg48
S'B'
sg10
F0
sg11
S'A Bison'
p2191
sba(isaltybot
Fighter
p2192
(dp2193
g4
I0
sg5
S'Sanada kojiroh (1) - $1,202,421'
p2194
sg7
I1
sg8
I0
sg9
F14.402666315310352
sg48
S'A'
sg10
F0
sg11
S'Sanada kojiroh'
p2195
sba(isaltybot
Fighter
p2196
(dp2197
g4
I0
sg5
S'Nekonin ex (-4) - $83,486\r\n'
p2198
sg7
I0
sg8
I1
sg9
F0.069431588436995026
sg48
S'A'
sg10
F0
sg11
S'Nekonin ex'
p2199
sba(isaltybot
Fighter
p2200
(dp2201
g4
I0
sg5
S'Real beavis (8) - $550,802'
p2202
sg7
I1
sg8
I0
sg9
F5.1972749318261169
sg48
S'B'
sg10
F0
sg11
S'Real beavis'
p2203
sba(isaltybot
Fighter
p2204
(dp2205
g4
I0
sg5
S'Pingu (-5) - $105,979\r\n'
p2206
sg7
I0
sg8
I1
sg9
F0.19240852429729741
sg48
S'B'
sg10
F0
sg11
S'Pingu'
p2207
sba(isaltybot
Fighter
p2208
(dp2209
g4
I0
sg5
S'Mahvel chun li (1) - $42,984'
p2210
sg7
I0
sg8
I1
sg9
F0.017880340984392139
sg48
S'S'
sg10
F0
sg11
S'Mahvel chun li'
p2211
sba(isaltybot
Fighter
p2212
(dp2213
g4
I0
sg5
S'Lion_gunta (-4) - $137,779'
p2214
sg7
I0
sg8
I1
sg9
F0.93570623310650203
sg48
S'S'
sg10
F0
sg11
S'Lion_gunta'
p2215
sba(isaltybot
Fighter
p2216
(dp2217
g4
I0
sg5
S'Armgon (-4) - $147,246\r\n'
p2218
sg7
I1
sg8
I0
sg9
F1.0687114872368069
sg48
S'S'
sg10
F0
sg11
S'Armgon'
p2219
sba(isaltybot
Fighter
p2220
(dp2221
g4
I0
sg5
S'Real zeroko (-1) - $331,396'
p2222
sg7
I0
sg8
I1
sg9
F8.2927781392322704
sg48
S'S'
sg10
F0
sg11
S'Real zeroko'
p2223
sba(isaltybot
Fighter
p2224
(dp2225
g4
I0
sg5
S'Rin natsume (-3) - $39,962\r\n'
p2226
sg7
I1
sg8
I0
sg9
F0.12058685077671426
sg48
S'S'
sg10
F0
sg11
S'Rin natsume'
p2227
sba(isaltybot
Fighter
p2228
(dp2229
g4
I0
sg5
S'Vegeta ssj3 (-1) - $867,489'
p2230
sg7
I1
sg8
I0
sg9
F5.9032534654408613
sg48
S'B'
sg10
F0
sg11
S'Vegeta ssj3'
p2231
sba(isaltybot
Fighter
p2232
(dp2233
g4
I0
sg5
S'Meira (-6) - $146,951\r\n'
p2234
sg7
I0
sg8
I1
sg9
F0.16939811340547259
sg48
S'B'
sg10
F0
sg11
S'Meira'
p2235
sba(isaltybot
Fighter
p2236
(dp2237
g4
I0
sg5
S'Weregarurumon (-2) - $240,054\r\n'
p2238
sg7
I1
sg8
I0
sg9
F1.3139676179841702
sg48
S'A'
sg10
F0
sg11
S'Weregarurumon'
p2239
sba(isaltybot
Fighter
p2240
(dp2241
g4
I0
sg5
S'The blob (-3) - $85,905'
p2242
sg7
I1
sg8
I0
sg9
F0.20815059630826788
sg48
S'A'
sg10
F0
sg11
S'The blob'
p2243
sba(isaltybot
Fighter
p2244
(dp2245
g4
I0
sg5
S'Nair (-2) - $412,706\r\n'
p2246
sg7
I0
sg8
I1
sg9
F4.8042139572783888
sg48
S'A'
sg10
F0
sg11
S'Nair'
p2247
sba(isaltybot
Fighter
p2248
(dp2249
g4
I0
sg5
S'Hiei (-2) - $213,167'
p2250
sg7
I1
sg8
I0
sg9
F2.4741118165252614
sg48
S'B'
sg10
F0
sg11
S'Hiei'
p2251
sba(isaltybot
Fighter
p2252
(dp2253
g4
I0
sg5
S'King 95 (-1) - $86,159\r\n'
p2254
sg7
I0
sg8
I1
sg9
F0.40418545084370472
sg48
S'B'
sg10
F0
sg11
S'King 95'
p2255
sba(isaltybot
Fighter
p2256
(dp2257
g4
I0
sg5
S'Vegeta z2 (5) - $185,804'
p2258
sg7
I1
sg8
I0
sg9
F1.013727030683951
sg48
S'B'
sg10
F0
sg11
S'Vegeta z2'
p2259
sba(isaltybot
Fighter
p2260
(dp2261
g4
I0
sg5
S'Hellboy (2) - $183,288\r\n'
p2262
sg7
I0
sg8
I1
sg9
F0.98645884910981463
sg48
S'B'
sg10
F0
sg11
S'Hellboy'
p2263
sba(isaltybot
Fighter
p2264
(dp2265
g4
I0
sg5
S'Demitri EX3 (1) - $811,324'
p2266
sg7
I1
sg8
I0
sg9
F9.7555943004869832
sg48
S'S'
sg10
F0
sg11
S'Demitri EX3'
p2267
sba(isaltybot
Fighter
p2268
(dp2269
g4
I0
sg5
S'Reimu hakurei EX (1) - $83,165\r\n'
p2270
sg7
I0
sg8
I1
sg9
F0.102505287653268
sg48
S'S'
sg10
F0
sg11
S'Reimu hakurei EX'
p2271
sba(isaltybot
Fighter
p2272
(dp2273
g4
I0
sg5
S'Koishi_b EX3 (5) - $2,277,910'
p2274
sg7
I1
sg8
I0
sg9
F76.118091291853233
sg48
S'B'
sg10
F0
sg11
S'Koishi_b EX3'
p2275
sba(isaltybot
Fighter
p2276
(dp2277
g4
I0
sg5
S'Morfo (-9) - $29,926\r\n'
p2278
sg7
I0
sg8
I1
sg9
F0.013137481287671594
sg48
S'B'
sg10
F0
sg11
S'Morfo'
p2279
sba(isaltybot
Fighter
p2280
(dp2281
g4
I0
sg5
S'Hauzer (-3) - $254,235\r\n'
p2282
sg7
I1
sg8
I0
sg9
F1.8990476190476191
sg48
S'A'
sg10
F0
sg11
S'Hauzer'
p2283
sba(isaltybot
Fighter
p2284
(dp2285
g4
I0
sg5
S'Celsius (4) - $79,671'
p2286
sg7
I0
sg8
I1
sg9
F0.32556647528757943
sg48
S'A'
sg10
F0
sg11
S'Celsius'
p2287
sba(isaltybot
Fighter
p2288
(dp2289
g4
I0
sg5
S'Gardevoir dx (1) - $244,715\r\n'
p2290
sg7
I1
sg8
I0
sg9
F3.0715693288649573
sg48
S'A'
sg10
F0
sg11
S'Gardevoir dx'
p2291
sba(isaltybot
Fighter
p2292
(dp2293
g4
I0
sg5
S'Shimo EX (-6) - $96,246'
p2294
sg7
I0
sg8
I1
sg9
F0.086352119550394055
sg48
S'S'
sg10
F0
sg11
S'Shimo EX'
p2295
sba(isaltybot
Fighter
p2296
(dp2297
g4
I0
sg5
S'Godzilla_ex (-1) - $1,114,576\r\n'
p2298
sg7
I1
sg8
I0
sg9
F11.580491656796127
sg48
S'S'
sg10
F0
sg11
S'Godzilla_ex'
p2299
sba(isaltybot
Fighter
p2300
(dp2301
g4
I0
sg5
S'Shogun EX3 (-1) - $49,619'
p2302
sg7
I0
sg8
I1
sg9
F0.20642930839379617
sg48
S'A'
sg10
F0
sg11
S'Shogun EX3'
p2303
sba(isaltybot
Fighter
p2304
(dp2305
g4
I0
sg5
S'17th angel (-1) - $240,368\r\n'
p2306
sg7
I1
sg8
I0
sg9
F4.84427336302626
sg48
S'A'
sg10
F0
sg11
S'17th angel'
p2307
sba(isaltybot
Fighter
p2308
(dp2309
g4
I0
sg5
S'Saya(p_ai) (4) - $82,418'
p2310
sg7
I1
sg8
I1
sg9
F0.80176322116590071
sg48
S'A'
sg10
F0
sg11
S'Saya(p_ai)'
p2311
sba(isaltybot
Fighter
p2312
(dp2313
g4
I0
sg5
S'Lucifer (5) - $172,635\r\n'
p2314
sg7
I0
sg8
I1
sg9
F2.0946273872212382
sg48
S'A'
sg10
F0
sg11
S'Lucifer'
p2315
sba(isaltybot
Fighter
p2316
(dp2317
g4
I0
sg5
S'Shizuka (1) - $122,683'
p2318
sg7
I0
sg8
I1
sg9
F0.48281195272745875
sg48
S'A'
sg10
F0
sg11
S'Shizuka'
p2319
sba(isaltybot
Fighter
p2320
(dp2321
g4
I0
sg5
S'Yurung (-2) - $254,101\r\n'
p2322
sg7
I4
sg8
I0
sg9
F6.1748732172364198
sg48
S'A'
sg10
F0
sg11
S'Yurung'
p2323
sba(isaltybot
Fighter
p2324
(dp2325
g4
I0
sg5
S'Hashi EX3 (-1) - $326,417'
p2326
sg7
I1
sg8
I1
sg9
F4.1580379940874659
sg48
S'A'
sg10
F0
sg11
S'Hashi EX3'
p2327
sba(isaltybot
Fighter
p2328
(dp2329
g4
I0
sg5
S'Headdy (-2) - $118,887\r\n'
p2330
sg7
I0
sg8
I1
sg9
F0.36421816265696944
sg48
S'A'
sg10
F0
sg11
S'Headdy'
p2331
sba(isaltybot
Fighter
p2332
(dp2333
g4
I0
sg5
S'Cable (-2) - $231,103'
p2334
sg7
I2
sg8
I1
sg9
F1.9435200984116796
sg48
S'A'
sg10
F0
sg11
S'Cable'
p2335
sba(isaltybot
Fighter
p2336
(dp2337
g4
I0
sg5
S'Honda tadakatsu (-1) - $295,992\r\n'
p2338
sg7
I0
sg8
I1
sg9
F1.2807795658213004
sg48
S'A'
sg10
F0
sg11
S'Honda tadakatsu'
p2339
sba(isaltybot
Fighter
p2340
(dp2341
g4
I0
sg5
S'F.tarantula (-1) - $132,891'
p2342
sg7
I0
sg8
I1
sg9
F0.35155326167757023
sg48
S'A'
sg10
F0
sg11
S'F.tarantula'
p2343
sba(isaltybot
Fighter
p2344
(dp2345
g4
I0
sg5
S'Lancer (-1) - $378,011\r\n'
p2346
sg7
I2
sg8
I1
sg9
F6.4177592397822867
sg48
S'A'
sg10
F0
sg11
S'Lancer'
p2347
sba(isaltybot
Fighter
p2348
(dp2349
g4
I0
sg5
S"Char's z'gok (-3) - $333,305"
p2350
sg7
I1
sg8
I1
sg9
F3.136812723339784
sg48
S'A'
sg10
F0
sg11
S"Char's z'gok"
p2351
sba(isaltybot
Fighter
p2352
(dp2353
g4
I0
sg5
S'Shandera-k (-2) - $259,582\r\n'
p2354
sg7
I0
sg8
I1
sg9
F0.77881219903691812
sg48
S'A'
sg10
F0
sg11
S'Shandera-k'
p2355
sba(isaltybot
Fighter
p2356
(dp2357
g4
I0
sg5
S'Katana EX3 (-3) - $297,457'
p2358
sg7
I0
sg8
I1
sg9
F1.6535310074933849
sg48
S'A'
sg10
F0
sg11
S'Katana EX3'
p2359
sba(isaltybot
Fighter
p2360
(dp2361
g4
I0
sg5
S'Sorami (2) - $179,892\r\n'
p2362
sg7
I3
sg8
I1
sg9
F1.6184186398250857
sg48
S'A'
sg10
F0
sg11
S'Sorami'
p2363
sba(isaltybot
Fighter
p2364
(dp2365
g4
I0
sg5
S'Agni-enja- $229,379'
p2366
sg7
I0
sg8
I1
sg9
F0.691037977429248
sg48
S'Unknown'
p2367
sg10
F0
sg11
S'Agni-enja'
p2368
sba(isaltybot
Fighter
p2369
(dp2370
g4
I0
sg5
S'Goku ascended- $331,934\r\n'
p2371
sg7
I1
sg8
I0
sg9
F1.447098470217413
sg48
g2367
sg10
F0
sg11
S'Goku ascended'
p2372
sba(isaltybot
Fighter
p2373
(dp2374
g4
I0
sg5
S'Grand_diable- $204,500'
p2375
sg7
I0
sg8
I1
sg9
F0.53098402114588683
sg48
S'X'
sg10
F0
sg11
S'Grand_diable'
p2376
sba(isaltybot
Fighter
p2377
(dp2378
g4
I0
sg5
S'Omni-psych super dizzy lv 3- $385,134\r\n'
p2379
sg7
I1
sg8
I0
sg9
F1.8832958435207825
sg48
S'X'
sg10
F0
sg11
S'Omni-psych super dizzy lv 3'
p2380
sba(isaltybot
Fighter
p2381
(dp2382
g4
I0
sg5
S'Rage rock ex (1) - $831,060'
p2383
sg7
I1
sg8
I0
sg9
F4.0988789315077954
sg48
S'S'
sg10
F0
sg11
S'Rage rock ex'
p2384
sba(isaltybot
Fighter
p2385
(dp2386
g4
I0
sg5
S'Alien guts(blue_no9) (-4) - $202,753\r\n'
p2387
sg7
I0
sg8
I1
sg9
F0.24396914783529469
sg48
S'S'
sg10
F0
sg11
S'Alien guts(blue_no9)'
p2388
sba(isaltybot
Fighter
p2389
(dp2390
g4
I0
sg5
S'Arale (1) - $458,107'
p2391
sg7
I1
sg8
I0
sg9
F2.8883697762982017
sg48
S'A'
sg10
F0
sg11
S'Arale'
p2392
sba(isaltybot
Fighter
p2393
(dp2394
g4
I0
sg5
S'Tamara EX2 (-3) - $158,604\r\n'
p2395
sg7
I0
sg8
I1
sg9
F0.3462160586937113
sg48
S'A'
sg10
F0
sg11
S'Tamara EX2'
p2396
sba(isaltybot
Fighter
p2397
(dp2398
g4
I0
sg5
S'Aner rolange (1) - $171,586'
p2399
sg7
I0
sg8
I1
sg9
F0.33228565729567899
sg48
S'A'
sg10
F0
sg11
S'Aner rolange'
p2400
sba(isaltybot
Fighter
p2401
(dp2402
g4
I0
sg5
S'Death black shot (-3) - $516,381\r\n'
p2403
sg7
I1
sg8
I0
sg9
F3.009458813656126
sg48
S'A'
sg10
F0
sg11
S'Death black shot'
p2404
sba(isaltybot
Fighter
p2405
(dp2406
g4
I0
sg5
S'Eve (-4) - $153,241'
p2407
sg7
I0
sg8
I1
sg9
F0.12047134775458093
sg48
S'S'
sg10
F0
sg11
S'Eve'
p2408
sba(isaltybot
Fighter
p2409
(dp2410
g4
I0
sg5
S'Kanako yasaka EX3 (-1) - $1,272,012\r\n'
p2411
sg7
I1
sg8
I0
sg9
F8.300728917195789
sg48
S'S'
sg10
F0
sg11
S'Kanako yasaka EX3'
p2412
sba(isaltybot
Fighter
p2413
(dp2414
g4
I0
sg5
S'Leonardo (3) - $319,522'
p2415
sg7
I0
sg8
I1
sg9
F1.0158874493283523
sg48
S'B'
sg10
F0
sg11
S'Leonardo'
p2416
sba(isaltybot
Fighter
p2417
(dp2418
g4
I0
sg5
S'Custom shinobi shou (5) - $314,525\r\n'
p2419
sg7
I1
sg8
I0
sg9
F0.9843610142650584
sg48
S'B'
sg10
F0
sg11
S'Custom shinobi shou'
p2420
sba(isaltybot
Fighter
p2421
(dp2422
g4
I0
sg5
S'Bob wilson EX2 (1) - $123,114'
p2423
sg7
I0
sg8
I1
sg9
F0.34330027131858604
sg48
S'B'
sg10
F0
sg11
S'Bob wilson EX2'
p2424
sba(isaltybot
Fighter
p2425
(dp2426
g4
I0
sg5
S'Atlas (7) - $358,619\r\n'
p2427
sg7
I1
sg8
I0
sg9
F2.9129018633136767
sg48
S'B'
sg10
F0
sg11
S'Atlas'
p2428
sba(isaltybot
Fighter
p2429
(dp2430
g4
I0
sg5
S'Kazami yuka_ns (3) - $265,140'
p2431
sg7
I1
sg8
I0
sg9
F1.7146515598323762
sg48
S'A'
sg10
F0
sg11
S'Kazami yuka_ns'
p2432
sba(isaltybot
Fighter
p2433
(dp2434
g4
I0
sg5
S'Ranma saotome EX2 (2) - $154,632\r\n'
p2435
sg7
I0
sg8
I1
sg9
F0.58320887078524553
sg48
S'A'
sg10
F0
sg11
S'Ranma saotome EX2'
p2436
sba(isaltybot
Fighter
p2437
(dp2438
g4
I0
sg5
S'Shuma MVC3 (-2) - $127,792'
p2439
sg7
I1
sg8
I0
sg9
F0.28198140747981543
sg48
S'S'
sg10
F0
sg11
S'Shuma MVC3'
p2440
sba(isaltybot
Fighter
p2441
(dp2442
g4
I0
sg5
S'Orochi akuma (1) - $453,193\r\n'
p2443
sg7
I0
sg8
I1
sg9
F3.5463331037936645
sg48
S'S'
sg10
F0
sg11
S'Orochi akuma'
p2444
sba(isaltybot
Fighter
p2445
(dp2446
g4
I0
sg5
S'Hotaride (7) - $494,725'
p2447
sg7
I0
sg8
I1
sg9
F3.12421061937961
sg48
S'S'
sg10
F0
sg11
S'Hotaride'
p2448
sba(isaltybot
Fighter
p2449
(dp2450
g4
I0
sg5
S'Basilisk-s[0.98] EX3 (-1) - $158,352\r\n'
p2451
sg7
I1
sg8
I0
sg9
F0.32008085299914096
sg48
S'S'
sg10
F0
sg11
S'Basilisk-s[0.98] EX3'
p2452
sba(isaltybot
Fighter
p2453
(dp2454
g4
I0
sg5
S'Athena EX3 (-2) - $749,732'
p2455
sg7
I1
sg8
I0
sg9
F9.331059889480759
sg48
S'B'
sg10
F0
sg11
S'Athena EX3'
p2456
sba(isaltybot
Fighter
p2457
(dp2458
g4
I0
sg5
S'Kensou (-3) - $80,348\r\n'
p2459
sg7
I0
sg8
I1
sg9
F0.107168961708984
sg48
S'B'
sg10
F0
sg11
S'Kensou'
p2460
sba(isaltybot
Fighter
p2461
(dp2462
g4
I0
sg5
S'Dark cornian (-1) - $415,878'
p2463
sg7
I0
sg8
I1
sg9
F1.5215011670703242
sg48
S'S'
sg10
F0
sg11
S'Dark cornian'
p2464
sba(isaltybot
Fighter
p2465
(dp2466
g4
I0
sg5
S'Kim hoon EX (-1) - $273,334\r\n'
p2467
sg7
I1
sg8
I0
sg9
F0.65724563453705176
sg48
S'S'
sg10
F0
sg11
S'Kim hoon EX'
p2468
sba(isaltybot
Fighter
p2469
(dp2470
g4
I0
sg5
S'Revlius (1) - $374,259'
p2471
sg7
I0
sg8
I1
sg9
F2.4894669974789974
sg48
S'A'
sg10
F0
sg11
S'Revlius'
p2472
sba(isaltybot
Fighter
p2473
(dp2474
g4
I0
sg5
S'Clark (-1) - $150,337\r\n'
p2475
sg7
I1
sg8
I0
sg9
F0.40169241087054686
sg48
S'A'
sg10
F0
sg11
S'Clark'
p2476
sba(isaltybot
Fighter
p2477
(dp2478
g4
I0
sg5
S'Ryoko ex EX3 (2) - $161,021\r\n'
p2479
sg7
I0
sg8
I1
sg9
F0.76058420363993628
sg48
S'B'
sg10
F0
sg11
S'Ryoko ex EX3'
p2480
sba(isaltybot
Fighter
p2481
(dp2482
g4
I0
sg5
S'Extra usapi- (9) - $260,368'
p2483
sg7
I4
sg8
I0
sg9
F4.9255156007611278
sg48
S'S'
sg10
F0
sg11
S'Extra usapi-'
p2484
sba(isaltybot
Fighter
p2485
(dp2486
g4
I0
sg5
S'Sonson (-3) - $71,135\r\n'
p2487
sg7
I0
sg8
I1
sg9
F0.2732094573833958
sg48
S'S'
sg10
F0
sg11
S'Sonson'
p2488
sba(isaltybot
Fighter
p2489
(dp2490
g4
I0
sg5
S'Tamamo-no-mae (2) - $321,709\r\n'
p2491
sg7
I1
sg8
I1
sg9
F6.6801676621291239
sg48
S'S'
sg10
F0
sg11
S'Tamamo-no-mae'
p2492
sba(isaltybot
Fighter
p2493
(dp2494
g4
I0
sg5
S'Samwell han (-2) - $245,169'
p2495
sg7
I1
sg8
I1
sg9
F1.4141272018977205
sg48
S'S'
sg10
F0
sg11
S'Samwell han'
p2496
sba(isaltybot
Fighter
p2497
(dp2498
g4
I0
sg5
S'Senna(coh) (-3) - $254,714\r\n'
p2499
sg7
I0
sg8
I1
sg9
F1.0389323283123071
sg48
S'S'
sg10
F0
sg11
S'Senna(coh)'
p2500
sba(isaltybot
Fighter
p2501
(dp2502
g4
I0
sg5
S'D4 roll (1) - $542,889\r\n'
p2503
sg7
I2
sg8
I1
sg9
F7.7904832833907331
sg48
S'S'
sg10
F0
sg11
S'D4 roll'
p2504
sba(isaltybot
Fighter
p2505
(dp2506
g4
I0
sg5
S'Onsokumaru (4) - $141,174'
p2507
sg7
I1
sg8
I1
sg9
F0.57132196577001471
sg48
S'S'
sg10
F0
sg11
S'Onsokumaru'
p2508
sba(isaltybot
Fighter
p2509
(dp2510
g4
I0
sg5
S'Konata (-1) - $588,351\r\n'
p2511
sg7
I0
sg8
I1
sg9
F4.1675591822856903
sg48
S'S'
sg10
F0
sg11
S'Konata'
p2512
sba(isaltybot
Fighter
p2513
(dp2514
g4
I0
sg5
S'King ghidorah (-8) - $264,758'
p2515
sg7
I0
sg8
I1
sg9
F0.62145826438230445
sg48
S'S'
sg10
F0
sg11
S'King ghidorah'
p2516
sba(isaltybot
Fighter
p2517
(dp2518
g4
I0
sg5
S'Theskiver (3) - $426,027\r\n'
p2519
sg7
I2
sg8
I1
sg9
F5.1574834380909662
sg48
S'S'
sg10
F0
sg11
S'Theskiver'
p2520
sba(isaltybot
Fighter
p2521
(dp2522
g4
I0
sg5
S'Medicine melancholy (-1) - $262,780'
p2523
sg7
I0
sg8
I1
sg9
F0.65459020232063414
sg48
S'S'
sg10
F0
sg11
S'Medicine melancholy'
p2524
sba(isaltybot
Fighter
p2525
(dp2526
g4
I0
sg5
S'Shaolon (-2) - $401,442\r\n'
p2527
sg7
I3
sg8
I1
sg9
F3.1614023894450303
sg48
S'S'
sg10
F0
sg11
S'Shaolon'
p2528
sba(isaltybot
Fighter
p2529
(dp2530
g4
I0
sg5
S'Guldin (-5) - $150,653'
p2531
sg7
I0
sg8
I1
sg9
F0.24342176484940142
sg48
S'S'
sg10
F0
sg11
S'Guldin'
p2532
sba(isaltybot
Fighter
p2533
(dp2534
g4
I0
sg5
S'Dhalsims (4) - $618,897\r\n'
p2535
sg7
I1
sg8
I1
sg9
F5.649780814922746
sg48
S'S'
sg10
F0
sg11
S'Dhalsims'
p2536
sba(isaltybot
Fighter
p2537
(dp2538
g4
I0
sg5
S'Dress cinderella mio- $130,076'
p2539
sg7
I0
sg8
I1
sg9
F0.015458158713634389
sg48
S'S'
sg10
F0
sg11
S'Dress cinderella mio'
p2540
sba(isaltybot
Fighter
p2541
(dp2542
g4
I0
sg5
S'Saint-of-silver- $8,414,715\r\n'
p2543
sg7
I1
sg8
I0
sg9
F64.690757710876724
sg48
S'S'
sg10
F0
sg11
S'Saint-of-silver'
p2544
sba(isaltybot
Fighter
p2545
(dp2546
g4
I0
sg5
S'Washizuka b style- $433,955'
p2547
sg7
I1
sg8
I0
sg9
F1.2359692969339657
sg48
S'S'
sg10
F0
sg11
S'Washizuka b style'
p2548
sba(isaltybot
Fighter
p2549
(dp2550
g4
I0
sg5
S'Necoarc_abyss- $351,105\r\n'
p2551
sg7
I0
sg8
I1
sg9
F0.80908158680047471
sg48
S'S'
sg10
F0
sg11
S'Necoarc_abyss'
p2552
sba(isaltybot
Fighter
p2553
(dp2554
g4
I0
sg5
S'Adel-haaaaai- $527,958'
p2555
sg7
I0
sg8
I1
sg9
F1.1682631987732262
sg48
S'Unknown'
p2556
sg10
F0
sg11
S'Adel-haaaaai'
p2557
sba(isaltybot
Fighter
p2558
(dp2559
g4
I0
sg5
S'Kagami EX3- $473,039\r\n'
p2560
sg7
I0
sg8
I1
sg9
F1.0467386710391511
sg48
S'S'
sg10
F0
sg11
S'Kagami EX3'
p2561
sba(isaltybot
Fighter
p2562
(dp2563
g4
I0
sg5
S'Omega- $337,731'
p2564
sg7
I1
sg8
I0
sg9
F2.7968282886836984
sg48
g2556
sg10
F0
sg11
S'Omega'
p2565
sba(isaltybot
Fighter
p2566
(dp2567
g4
I0
sg5
S'Creeper- $120,755\r\n'
p2568
sg7
I0
sg8
I1
sg9
F0.35754787093870566
sg48
g2556
sg10
F0
sg11
S'Creeper'
p2569
sba.