(lp1
(isaltybot
Fighter
p2
(dp3
S'streak'
p4
I0
sS'string'
p5
S'Blue eyes white karin (1) - $538,526'
p6
sS'wins'
p7
I1
sS'loses'
p8
I0
sS'bet_ratio'
p9
F8.1369233791154834
sS'wlRatio'
p10
F0
sS'name'
p11
S'Blue eyes white karin'
p12
sba(isaltybot
Fighter
p13
(dp14
g4
I0
sg5
S'Kisume EX (-4) - $66,183\r\n'
p15
sg7
I0
sg8
I1
sg9
F0.12289657323880369
sg10
F0
sg11
S'Kisume EX'
p16
sba(isaltybot
Fighter
p17
(dp18
g4
I0
sg5
S'Daimon 71113 (-5) - $167,183'
p19
sg7
I0
sg8
I1
sg9
F0.60794260321893245
sg10
F0
sg11
S'Daimon 71113'
p20
sba(isaltybot
Fighter
p21
(dp22
g4
I0
sg5
S'Rera EX3 (1) - $274,998\r\n'
p23
sg7
I1
sg8
I0
sg9
F1.6448921241992307
sg10
F0
sg11
S'Rera EX3'
p24
sba(isaltybot
Fighter
p25
(dp26
g4
I0
sg5
S'Gaira EX2 (2) - $179,146'
p27
sg7
I1
sg8
I0
sg9
F6.5061194842927188
sg10
F0
sg11
S'Gaira EX2'
p28
sba(isaltybot
Fighter
p29
(dp30
g4
I0
sg5
S'Death force (-1) - $27,535\r\n'
p31
sg7
I0
sg8
I1
sg9
F0.15370145021379211
sg10
F0
sg11
S'Death force'
p32
sba(isaltybot
Fighter
p33
(dp34
g4
I0
sg5
S'Lupin the 3rd (-3) - $130,147'
p35
sg7
I0
sg8
I1
sg9
F1.1540924004611155
sg10
F0
sg11
S'Lupin the 3rd'
p36
sba(isaltybot
Fighter
p37
(dp38
g4
I0
sg5
S'Conker (2) - $112,770\r\n'
p39
sg7
I1
sg8
I0
sg9
F0.86648174756237173
sg10
F0
sg11
S'Conker'
p40
sba(isaltybot
Fighter
p41
(dp42
g4
I0
sg5
S'Perfect storm x (1) - $104,813'
p43
sg7
I0
sg8
I1
sg9
F0.07644468366912309
sg10
F0
sg11
S'Perfect storm x'
p44
sba(isaltybot
Fighter
p45
(dp46
g4
I0
sg5
S'Ash of blueblood (3) - $1,371,096\r\n'
p47
sg7
I1
sg8
I0
sg9
F13.081354412143531
sg10
F0
sg11
S'Ash of blueblood'
p48
sba(isaltybot
Fighter
p49
(dp50
g4
I0
sg5
S'Hydron (1) - $77,060'
p51
sg7
I1
sg8
I0
sg9
F0.32262926522922336
sg10
F0
sg11
S'Hydron'
p52
sba(isaltybot
Fighter
p53
(dp54
g4
I0
sg5
S'Donatello 0d (2) - $238,850\r\n'
p55
sg7
I0
sg8
I1
sg9
F3.0995328315598236
sg10
F0
sg11
S'Donatello 0d'
p56
sba(isaltybot
Fighter
p57
(dp58
g4
I0
sg5
S'Kazama sogetsu (-1) - $507,868'
p59
sg7
I1
sg8
I0
sg9
F3.5299007478662183
sg10
F0
sg11
S'Kazama sogetsu'
p60
sba(isaltybot
Fighter
p61
(dp62
g4
I0
sg5
S'Xiaoyen (1) - $143,876\r\n'
p63
sg7
I0
sg8
I1
sg9
F0.28329408428961855
sg10
F0
sg11
S'Xiaoyen'
p64
sba(isaltybot
Fighter
p65
(dp66
g4
I0
sg5
S'Trishula,doragon of the ice barrier (-1) - $67,099'
p67
sg7
I0
sg8
I1
sg9
F0.2281619259737831
sg10
F0
sg11
S'Trishula,doragon of the ice barrier'
p68
sba(isaltybot
Fighter
p69
(dp70
g4
I0
sg5
S'Mike EX2 (2) - $294,085\r\n'
p71
sg7
I1
sg8
I0
sg9
F4.3828522034605584
sg10
F0
sg11
S'Mike EX2'
p72
sba(isaltybot
Fighter
p73
(dp74
g4
I0
sg5
S'Eriol hiiragizawa (-5) - $74,010'
p75
sg7
I1
sg8
I0
sg9
F0.25156185206082893
sg10
F0
sg11
S'Eriol hiiragizawa'
p76
sba(isaltybot
Fighter
p77
(dp78
g4
I0
sg5
S'Dimlos EX (-2) - $294,202\r\n'
p79
sg7
I0
sg8
I1
sg9
F3.9751655181732199
sg10
F0
sg11
S'Dimlos EX'
p80
sba(isaltybot
Fighter
p81
(dp82
g4
I0
sg5
S'Wiler (-1) - $300,146'
p83
sg7
I1
sg8
I0
sg9
F1.0270039075598623
sg10
F0
sg11
S'Wiler'
p84
sba(isaltybot
Fighter
p85
(dp86
g4
I0
sg5
S'Mysty_monkstyle (2) - $292,254\r\n'
p87
sg7
I0
sg8
I1
sg9
F0.97370612968355397
sg10
F0
sg11
S'Mysty_monkstyle'
p88
sba(isaltybot
Fighter
p89
(dp90
g4
I0
sg5
S'Titan the great (-4) - $129,922'
p91
sg7
I1
sg8
I0
sg9
F0.75875722712141569
sg10
F0
sg11
S'Titan the great'
p92
sba(isaltybot
Fighter
p93
(dp94
g4
I0
sg5
S'Princess silver (-1) - $171,230\r\n'
p95
sg7
I0
sg8
I1
sg9
F1.317944612921599
sg10
F0
sg11
S'Princess silver'
p96
sba(isaltybot
Fighter
p97
(dp98
g4
I0
sg5
S'Gengetu EX (1) - $2,526,438'
p99
sg7
I1
sg8
I0
sg9
F48.091483610614077
sg10
F0
sg11
S'Gengetu EX'
p100
sba(isaltybot
Fighter
p101
(dp102
g4
I0
sg5
S'Jotaro kujo (-6) - $52,534\r\n'
p103
sg7
I0
sg8
I1
sg9
F0.020793702437977898
sg10
F0
sg11
S'Jotaro kujo'
p104
sba(isaltybot
Fighter
p105
(dp106
g4
I0
sg5
S'Prometheus (-2) - $251,986'
p107
sg7
I2
sg8
I0
sg9
F1.7923370764649149
sS'tier'
p108
S'A'
sg10
F0
sg11
S'Prometheus'
p109
sba(isaltybot
Fighter
p110
(dp111
g4
I0
sg5
S'Android 16 ai-barbatos (1) - $115,576\r\n'
p112
sg7
I0
sg8
I1
sg9
F0.45866040176835221
sg10
F0
sg11
S'Android 16 ai-barbatos'
p113
sba(isaltybot
Fighter
p114
(dp115
g4
I0
sg5
S'Mr.karateka (-1) - $110,261'
p116
sg7
I0
sg8
I1
sg9
F0.12232343638540076
sg10
F0
sg11
S'Mr.karateka'
p117
sba(isaltybot
Fighter
p118
(dp119
g4
I0
sg5
S'S.geist (-1) - $901,389\r\n'
p120
sg7
I1
sg8
I0
sg9
F8.1750482945012291
sg10
F0
sg11
S'S.geist'
p121
sba(isaltybot
Fighter
p122
(dp123
g4
I0
sg5
S'Hina (0) - $149,709'
p124
sg7
I0
sg8
I1
sg9
F0.99905239204276253
sg10
F0
sg11
S'Hina'
p125
sba(isaltybot
Fighter
p126
(dp127
g4
I0
sg5
S'Demonica (-3) - $149,851\r\n'
p128
sg7
I1
sg8
I0
sg9
F1.0009485067698001
sg10
F0
sg11
S'Demonica'
p129
sba(isaltybot
Fighter
p130
(dp131
g4
I0
sg5
S'Jotaro (-1) - $223,724'
p132
sg7
I1
sg8
I0
sg9
F1.3507782594520183
sg10
F0
sg11
S'Jotaro'
p133
sba(isaltybot
Fighter
p134
(dp135
g4
I0
sg5
S'Gulool ja ja (-5) - $165,626\r\n'
p136
sg7
I1
sg8
I1
sg9
F0.9571849065300585
sg10
F0
sg11
S'Gulool ja ja'
p137
sba(isaltybot
Fighter
p138
(dp139
g4
I0
sg5
S'Hikaru EX3 (-5) - $117,742'
p140
sg7
I0
sg8
I1
sg9
F0.30446396479097226
sg10
F0
sg11
S'Hikaru EX3'
p141
sba(isaltybot
Fighter
p142
(dp143
g4
I0
sg5
S'Legion EX3 (7) - $386,719\r\n'
p144
sg7
I1
sg8
I0
sg9
F3.2844609400214027
sg10
F0
sg11
S'Legion EX3'
p145
sba(isaltybot
Fighter
p146
(dp147
g4
I0
sg5
S'Shaq Diesel (1) - $36,190'
p148
sg7
I0
sg8
I1
sg9
F0.094043235461497884
sg10
F0
sg11
S'Shaq Diesel'
p149
sba(isaltybot
Fighter
p150
(dp151
g4
I0
sg5
S'Nucrear cirno (5) - $384,823\r\n'
p152
sg7
I1
sg8
I0
sg9
F10.633407018513401
sg10
F0
sg11
S'Nucrear cirno'
p153
sba(isaltybot
Fighter
p154
(dp155
g4
I0
sg5
S'Han EX3 (-5) - $198,498'
p156
sg7
I0
sg8
I1
sg9
F1.0709014005481343
sg10
F0
sg11
S'Han EX3'
p157
sba(isaltybot
Fighter
p158
(dp159
g4
I0
sg5
S'Zeeky h. bomb (1) - $185,356\r\n'
p160
sg7
I1
sg8
I0
sg9
F0.93379278380638597
sg10
F0
sg11
S'Zeeky h. bomb'
p161
sba(isaltybot
Fighter
p162
(dp163
g4
I0
sg5
S'Kingjoe (2) - $435,347'
p164
sg7
I1
sg8
I0
sg9
F7.5941005111029707
sg10
F0
sg11
S'Kingjoe'
p165
sba(isaltybot
Fighter
p166
(dp167
g4
I0
sg5
S'Person-lichkeit (-2) - $57,327\r\n'
p168
sg7
I0
sg8
I1
sg9
F0.13168116468012872
sg10
F0
sg11
S'Person-lichkeit'
p169
sba(isaltybot
Fighter
p170
(dp171
g4
I0
sg5
S'Devilbat-schilt (-1) - $242,046'
p172
sg7
I0
sg8
I1
sg9
F1.1969143280998888
sg10
F0
sg11
S'Devilbat-schilt'
p173
sba(isaltybot
Fighter
p174
(dp175
g4
I0
sg5
S'94_flan (1) - $202,225\r\n'
p176
sg7
I1
sg8
I0
sg9
F0.83548168529948852
sg10
F0
sg11
S'94_flan'
p177
sba(isaltybot
Fighter
p178
(dp179
g4
I0
sg5
S'Young_rugal (5) - $348,855'
p180
sg7
I1
sg8
I0
sg9
F3.8776746512532649
sg10
F0
sg11
S'Young_rugal'
p181
sba(isaltybot
Fighter
p182
(dp183
g4
I0
sg5
S'Condor EX (-5) - $89,965\r\n'
p184
sg7
I0
sg8
I1
sg9
F0.25788651445442951
sg10
F0
sg11
S'Condor EX'
p185
sba(isaltybot
Fighter
p186
(dp187
g4
I0
sg5
S'Majin boo EX3 (1) - $149,719'
p188
sg7
I0
sg8
I1
sg9
F2.9473984684134891
sg10
F0
sg11
S'Majin boo EX3'
p189
sba(isaltybot
Fighter
p190
(dp191
g4
I0
sg5
S'Birdie sfa (1) - $50,797\r\n'
p192
sg7
I1
sg8
I0
sg9
F0.33928225542516316
sg10
F0
sg11
S'Birdie sfa'
p193
sba(isaltybot
Fighter
p194
(dp195
g4
I0
sg5
S'Donovan (2) - $150,537'
p196
sg7
I0
sg8
I1
sg9
F0.77340848022770126
sg10
F0
sg11
S'Donovan'
p197
sba(isaltybot
Fighter
p198
(dp199
g4
I0
sg5
S'Himekawa kotone (1) - $194,641\r\n'
p200
sg7
I1
sg8
I0
sg9
F1.2929778061207544
sg10
F0
sg11
S'Himekawa kotone'
p201
sba(isaltybot
Fighter
p202
(dp203
g4
I0
sg5
S'The atom (2) - $61,047'
p204
sg7
I0
sg8
I1
sg9
F0.13611280192105737
sg10
F0
sg11
S'The atom'
p205
sba(isaltybot
Fighter
p206
(dp207
g4
I0
sg5
S'Xeona (7) - $448,503\r\n'
p208
sg7
I1
sg8
I0
sg9
F7.3468475109341984
sg10
F0
sg11
S'Xeona'
p209
sba(isaltybot
Fighter
p210
(dp211
g4
I0
sg5
S'Miko (1) - $319,977'
p212
sg7
I1
sg8
I0
sg9
F7.0847799132052076
sg10
F0
sg11
S'Miko'
p213
sba(isaltybot
Fighter
p214
(dp215
g4
I0
sg5
S'Jill ex (1) - $45,164\r\n'
p216
sg7
I0
sg8
I2
sg9
F0.21086101136370403
sg108
S'A'
sg10
F0
sg11
S'Jill ex'
p217
sba(isaltybot
Fighter
p218
(dp219
g4
I0
sg5
S'Chintao FF (2) - $73,708'
p220
sg7
I0
sg8
I1
sg9
F0.34586833090892027
sg10
F0
sg11
S'Chintao FF'
p221
sba(isaltybot
Fighter
p222
(dp223
g4
I0
sg5
S'Zuepia (2) - $213,110\r\n'
p224
sg7
I1
sg8
I0
sg9
F2.8912736744993759
sg10
F0
sg11
S'Zuepia'
p225
sba(isaltybot
Fighter
p226
(dp227
g4
I0
sg5
S'Gundam epyon (1) - $145,835'
p228
sg7
I1
sg8
I0
sg9
F0.97766261974833579
sg10
F0
sg11
S'Gundam epyon'
p229
sba(isaltybot
Fighter
p230
(dp231
g4
I0
sg5
S'Meta jade (-2) - $149,167\r\n'
p232
sg7
I0
sg8
I1
sg9
F1.0228477388829842
sg10
F0
sg11
S'Meta jade'
p233
sba(isaltybot
Fighter
p234
(dp235
g4
I0
sg5
S'Ryu Evil (-4) - $56,603'
p236
sg7
I0
sg8
I1
sg9
F0.23595496250349121
sg10
F0
sg11
S'Ryu Evil'
p237
sba(isaltybot
Fighter
p238
(dp239
g4
I0
sg5
S'Ken sf3 (7) - $239,889\r\n'
p240
sg7
I1
sg8
I0
sg9
F4.2380969206579158
sg10
F0
sg11
S'Ken sf3'
p241
sba(isaltybot
Fighter
p242
(dp243
g4
I0
sg5
S'Dk (5) - $87,828'
p244
sg7
I0
sg8
I1
sg9
F0.28781627576985969
sg10
F0
sg11
S'Dk'
p245
sba(isaltybot
Fighter
p246
(dp247
g4
I0
sg5
S'Shadow agent (6) - $305,153\r\n'
p248
sg7
I1
sg8
I0
sg9
F3.4744386755932051
sg10
F0
sg11
S'Shadow agent'
p249
sba(isaltybot
Fighter
p250
(dp251
g4
I0
sg5
S'Makoto EX3 (1) - $163,513'
p252
sg7
I0
sg8
I1
sg9
F0.67674740083438178
sg10
F0
sg11
S'Makoto EX3'
p253
sba(isaltybot
Fighter
p254
(dp255
g4
I0
sg5
S'Komepo (-1) - $241,616\r\n'
p256
sg7
I1
sg8
I0
sg9
F1.4776562108211579
sg10
F0
sg11
S'Komepo'
p257
sba(isaltybot
Fighter
p258
(dp259
g4
I0
sg5
S'El stinger (-2) - $319,927'
p260
sg7
I0
sg8
I1
sg9
F6.0722189534420252
sg10
F0
sg11
S'El stinger'
p261
sba(isaltybot
Fighter
p262
(dp263
g4
I0
sg5
S'Underdog (-1) - $52,687\r\n'
p264
sg7
I1
sg8
I0
sg9
F0.16468444363870507
sg10
F0
sg11
S'Underdog'
p265
sba(isaltybot
Fighter
p266
(dp267
g4
I0
sg5
S'Lomias (4) - $332,896'
p268
sg7
I0
sg8
I1
sg9
F2.0234993769565084
sg10
F0
sg11
S'Lomias'
p269
sba(isaltybot
Fighter
p270
(dp271
g4
I0
sg5
S'Juri pf (-3) - $164,515\r\n'
p272
sg7
I1
sg8
I0
sg9
F0.49419338171681249
sg10
F0
sg11
S'Juri pf'
p273
sba(isaltybot
Fighter
p274
(dp275
g4
I0
sg5
S'Drunken master (-1) - $284,404'
p276
sg7
I0
sg8
I1
sg9
F1.7792597782838266
sg10
F0
sg11
S'Drunken master'
p277
sba(isaltybot
Fighter
p278
(dp279
g4
I0
sg5
S'Natsuka fuou (2) - $159,844\r\n'
p280
sg7
I1
sg8
I0
sg9
F0.56203147635054362
sg10
F0
sg11
S'Natsuka fuou'
p281
sba(isaltybot
Fighter
p282
(dp283
g4
I0
sg5
S'Leo FM (-9) - $42,411'
p284
sg7
I0
sg8
I1
sg9
F0.16287179093300563
sg10
F0
sg11
S'Leo FM'
p285
sba(isaltybot
Fighter
p286
(dp287
g4
I0
sg5
S'Captain america (1) - $260,395\r\n'
p288
sg7
I1
sg8
I0
sg9
F6.1397986371460238
sg10
F0
sg11
S'Captain america'
p289
sba(isaltybot
Fighter
p290
(dp291
g4
I0
sg5
S'Hisame shizumaru (2) - $431,014'
p292
sg7
I0
sg8
I1
sg9
F1.310642619740495
sg10
F0
sg11
S'Hisame shizumaru'
p293
sba(isaltybot
Fighter
p294
(dp295
g4
I0
sg5
S'Nash shadow (4) - $328,857\r\n'
p296
sg7
I1
sg8
I0
sg9
F0.76298449702329851
sg10
F0
sg11
S'Nash shadow'
p297
sba(isaltybot
Fighter
p298
(dp299
g4
I0
sg5
S'Evil homer (1) - $86,802'
p300
sg7
I1
sg8
I1
sg9
F2.2847277274638453
sg10
F0
sg11
S'Evil homer'
p301
sba(isaltybot
Fighter
p302
(dp303
g4
I0
sg5
S'Trish (-9) - $28,410\r\n'
p304
sg7
I0
sg8
I1
sg9
F0.32729660606898459
sg10
F0
sg11
S'Trish'
p305
sba(isaltybot
Fighter
p306
(dp307
g4
I0
sg5
S'Vixen (-2) - $45,051'
p308
sg7
I0
sg8
I1
sg9
F0.38589232943595014
sg10
F0
sg11
S'Vixen'
p309
sba(isaltybot
Fighter
p310
(dp311
g4
I0
sg5
S'Rosa_obsn (3) - $116,745\r\n'
p312
sg7
I2
sg8
I1
sg9
F1.8252470484152266
sg10
F0
sg11
S'Rosa_obsn'
p313
sba(isaltybot
Fighter
p314
(dp315
g4
I0
sg5
S'Bruce shotoman (-4) - $54,186'
p316
sg7
I1
sg8
I1
sg9
F0.38629485274100622
sg10
F0
sg11
S'Bruce shotoman'
p317
sba(isaltybot
Fighter
p318
(dp319
g4
I0
sg5
S'Rogue SP (-4) - $135,466\r\n'
p320
sg7
I0
sg8
I1
sg9
F2.5000184549514635
sg10
F0
sg11
S'Rogue SP'
p321
sba(isaltybot
Fighter
p322
(dp323
g4
I0
sg5
S'Reject no. 253 (-3) - $150,982'
p324
sg7
I4
sg8
I0
sg9
F1.2360217339239714
sg10
F0
sg11
S'Reject no. 253'
p325
sba(isaltybot
Fighter
p326
(dp327
g4
I0
sg5
S'Houoh (3) - $104,600\r\n'
p328
sg7
I0
sg8
I1
sg9
F0.69279781695831288
sg10
F0
sg11
S'Houoh'
p329
sba(isaltybot
Fighter
p330
(dp331
g4
I0
sg5
S'Hayato (1) - $97,533'
p332
sg7
I0
sg8
I1
sg9
F0.71189892265919241
sg10
F0
sg11
S'Hayato'
p333
sba(isaltybot
Fighter
p334
(dp335
g4
I0
sg5
S'Number muncher (1) - $137,004\r\n'
p336
sg7
I1
sg8
I1
sg9
F1.1498753696083628
sg10
F0
sg11
S'Number muncher'
p337
sba(isaltybot
Fighter
p338
(dp339
g4
I0
sg5
S'Elisabeth (6) - $213,989'
p340
sg7
I3
sg8
I1
sg9
F1.4382149553749275
sg10
F0
sg11
S'Elisabeth'
p341
sba(isaltybot
Fighter
p342
(dp343
g4
I0
sg5
S'Squall (-2) - $124,978\r\n'
p344
sg7
I0
sg8
I1
sg9
F0.58403936650949351
sg10
F0
sg11
S'Squall'
p345
sba(isaltybot
Fighter
p346
(dp347
g4
I0
sg5
S'Reptile mk2 (-2) - $204,502'
p348
sg7
I0
sg8
I1
sg9
F1.4318261380981054
sg10
F0
sg11
S'Reptile mk2'
p349
sba(isaltybot
Fighter
p350
(dp351
g4
I0
sg5
S'Akiha (4) - $142,826\r\n'
p352
sg7
I1
sg8
I1
sg9
F0.65386948905310038
sg10
F0
sg11
S'Akiha'
p353
sba(isaltybot
Fighter
p354
(dp355
g4
I0
sg5
S'Shadow kouma (2) - $50,106'
p356
sg7
I0
sg8
I1
sg9
F0.19813906035597489
sg10
F0
sg11
S'Shadow kouma'
p357
sba(isaltybot
Fighter
p358
(dp359
g4
I0
sg5
S'Captain agent (2) - $252,883\r\n'
p360
sg7
I2
sg8
I1
sg9
F3.2615612193804293
sg10
F0
sg11
S'Captain agent'
p361
sba(isaltybot
Fighter
p362
(dp363
g4
I0
sg5
S'Godmars- $310,707'
p364
sg7
I1
sg8
I0
sg9
F0.67232660444846437
sg10
F0
sg11
S'Godmars'
p365
sba(isaltybot
Fighter
p366
(dp367
g4
I0
sg5
S'Albion- $462,137\r\n'
p368
sg7
I0
sg8
I1
sg9
F1.4873723475814835
sg10
F0
sg11
S'Albion'
p369
sba(isaltybot
Fighter
p370
(dp371
g4
I0
sg5
S'Stupid little drill tank- $248,516'
p372
sg7
I1
sg8
I0
sg9
F1.1766521784419004
sg10
F0
sg11
S'Stupid little drill tank'
p373
sba(isaltybot
Fighter
p374
(dp375
g4
I0
sg5
S'Koopa clown car- $211,206\r\n'
p376
sg7
I0
sg8
I1
sg9
F0.8498688213233756
sg10
F0
sg11
S'Koopa clown car'
p377
sba(isaltybot
Fighter
p378
(dp379
g4
I0
sg5
S'Son of sun- $94,766'
p380
sg7
I0
sg8
I1
sg9
F0.016744218919097997
sg10
F0
sg11
S'Son of sun'
p381
sba(isaltybot
Fighter
p382
(dp383
g4
I0
sg5
S'Rare akuma- $5,659,625\r\n'
p384
sg7
I1
sg8
I0
sg9
F59.72210497435789
sg10
F0
sg11
S'Rare akuma'
p385
sba(isaltybot
Fighter
p386
(dp387
g4
I0
sg5
S'Pikkon (1) - $79,536'
p388
sg7
I0
sg8
I1
sg9
F0.37506366122795437
sg10
F0
sg11
S'Pikkon'
p389
sba(isaltybot
Fighter
p390
(dp391
g4
I0
sg5
S'Freedom gundam (2) - $212,060\r\n'
p392
sg7
I1
sg8
I0
sg9
F2.6662140414403539
sg10
F0
sg11
S'Freedom gundam'
p393
sba(isaltybot
Fighter
p394
(dp395
g4
I0
sg5
S'Marcia (-1) - $119,076'
p396
sg7
I0
sg8
I1
sg9
F0.71894509316170163
sg10
F0
sg11
S'Marcia'
p397
sba(isaltybot
Fighter
p398
(dp399
g4
I0
sg5
S'Yunfei (-2) - $76,482'
p400
sg7
I0
sg8
I1
sg9
F0.078379408726449898
sg10
F0
sg11
S'Yunfei'
p401
sba(isaltybot
Fighter
p402
(dp403
g4
I0
sg5
S'Filea EX3 (2) - $975,792\r\n'
p404
sg7
I1
sg8
I0
sg9
F12.758452969326116
sg10
F0
sg11
S'Filea EX3'
p405
sba(isaltybot
Fighter
p406
(dp407
g4
I0
sg5
S'Yukari Tanizaki (-3) - $75,805'
p408
sg7
I0
sg8
I1
sg9
F0.13204927656401877
sg10
F0
sg11
S'Yukari Tanizaki'
p409
sba(isaltybot
Fighter
p410
(dp411
g4
I0
sg5
S'Yuiran (-2) - $574,066\r\n'
p412
sg7
I1
sg8
I0
sg9
F7.5729305454785303
sg10
F0
sg11
S'Yuiran'
p413
sba(isaltybot
Fighter
p414
(dp415
g4
I0
sg5
S'Dragon_warrior(dnf) +q (-2) - $66,006'
p416
sg7
I0
sg8
I1
sg9
F0.022736988304949704
sg10
F0
sg11
S'Dragon_warrior(dnf) +q'
p417
sba(isaltybot
Fighter
p418
(dp419
g4
I0
sg5
S'Spidermanu (1) - $2,903,023\r\n'
p420
sg7
I1
sg8
I0
sg9
F43.98119867890798
sg10
F0
sg11
S'Spidermanu'
p421
sba(isaltybot
Fighter
p422
(dp423
g4
I0
sg5
S'Hakurou (1) - $234,058'
p424
sg7
I1
sg8
I0
sg9
F0.78425577826474469
sg10
F0
sg11
S'Hakurou'
p425
sba(isaltybot
Fighter
p426
(dp427
g4
I0
sg5
S'Pocket Akuma (-1) - $298,446\r\n'
p428
sg7
I0
sg8
I1
sg9
F1.275094207418674
sg10
F0
sg11
S'Pocket Akuma'
p429
sba(isaltybot
Fighter
p430
(dp431
g4
I0
sg5
S'Original the character (9) - $28,313'
p432
sg7
I1
sg8
I0
sg9
F0.27073312997829391
sg108
S'S'
sg10
F0
sg11
S'Original the character'
p433
sba(isaltybot
Fighter
p434
(dp435
g4
I0
sg5
S'Uroboros (3) - $104,579\r\n'
p436
sg7
I0
sg8
I1
sg9
F3.693674283897856
sg108
S'S'
sg10
F0
sg11
S'Uroboros'
p437
sba(isaltybot
Fighter
p438
(dp439
g4
I0
sg5
S'Kyosuke shigure (1) - $298,239'
p440
sg7
I0
sg8
I1
sg9
F1.0046588244805563
sg108
S'A'
sg10
F0
sg11
S'Kyosuke shigure'
p441
sba(isaltybot
Fighter
p442
(dp443
g4
I0
sg5
S'Kill bill uma-ex (4) - $296,856\r\n'
p444
sg7
I1
sg8
I0
sg9
F0.99536277951575747
sg108
S'A'
sg10
F0
sg11
S'Kill bill uma-ex'
p445
sba(isaltybot
Fighter
p446
(dp447
g4
I0
sg5
S'A-agito (-1) - $514,810'
p448
sg7
I1
sg8
I0
sg9
F1.307546949370368
sg108
S'S'
sg10
F0
sg11
S'A-agito'
p449
sba(isaltybot
Fighter
p450
(dp451
g4
I0
sg5
S'D4?roll? (-1) - $393,722\r\n'
p452
sg7
I0
sg8
I1
sg9
F0.76479089372778308
sg108
S'S'
sg10
F0
sg11
S'D4?roll?'
p453
sba(isaltybot
Fighter
p454
(dp455
g4
I0
sg5
S'Chinese gouki (-4) - $261,041'
p456
sg7
I0
sg8
I1
sg9
F0.59744079170214126
sg108
S'S'
sg10
F0
sg11
S'Chinese gouki'
p457
sba(isaltybot
Fighter
p458
(dp459
g4
I0
sg5
S'Triceratops (1) - $436,932\r\n'
p460
sg7
I1
sg8
I0
sg9
F1.6738060304703093
sg108
S'S'
sg10
F0
sg11
S'Triceratops'
p461
sba(isaltybot
Fighter
p462
(dp463
g4
I0
sg5
S'Saku (-1) - $410,443'
p464
sg7
I1
sg8
I0
sg9
F1.5304529725859857
sg108
S'A'
sg10
F0
sg11
S'Saku'
p465
sba(isaltybot
Fighter
p466
(dp467
g4
I0
sg5
S'Khan ex (-1) - $268,184\r\n'
p468
sg7
I0
sg8
I1
sg9
F0.65340132490991443
sg108
S'A'
sg10
F0
sg11
S'Khan ex'
p469
sba(isaltybot
Fighter
p470
(dp471
g4
I0
sg5
S'Zero Hotaru (-8) - $74,053'
p472
sg7
I0
sg8
I1
sg9
F0.12805822825086982
sg108
S'B'
sg10
F0
sg11
S'Zero Hotaru'
p473
sba(isaltybot
Fighter
p474
(dp475
g4
I0
sg5
S'Ronove (3) - $578,276\r\n'
p476
sg7
I1
sg8
I0
sg9
F7.8089476456051745
sg108
S'B'
sg10
F0
sg11
S'Ronove'
p477
sba(isaltybot
Fighter
p478
(dp479
g4
I0
sg5
S'General bush (-1) - $58,021'
p480
sg7
I0
sg8
I1
sg9
F0.062105358930033661
sg108
S'B'
sg10
F0
sg11
S'General bush'
p481
sba(isaltybot
Fighter
p482
(dp483
g4
I0
sg5
S'Strawbelly jam (4) - $934,235\r\n'
p484
sg7
I1
sg8
I0
sg9
F16.101670084969236
sg108
S'B'
sg10
F0
sg11
S'Strawbelly jam'
p485
sba(isaltybot
Fighter
p486
(dp487
g4
I0
sg5
S'Mahvel ryu (-1) - $2,072,244'
p488
sg7
I1
sg8
I0
sg9
F35.070471161657188
sg108
S'S'
sg10
F0
sg11
S'Mahvel ryu'
p489
sba(isaltybot
Fighter
p490
(dp491
g4
I0
sg5
S'Sittara (1) - $59,088\r\n'
p492
sg7
I0
sg8
I1
sg9
F0.028514016689154365
sg108
S'S'
sg10
F0
sg11
S'Sittara'
p493
sba(isaltybot
Fighter
p494
(dp495
g4
I0
sg5
S'Sentinel (6) - $247,899\r\n'
p496
sg7
I0
sg8
I1
sg9
F0.98378084496757756
sg108
S'A'
sg10
F0
sg11
S'Sentinel'
p497
sba(isaltybot
Fighter
p498
(dp499
g4
I0
sg5
S'Lucario (-3) - $310,654'
p500
sg7
I0
sg8
I1
sg9
F1.9444677428440877
sg108
S'A'
sg10
F0
sg11
S'Lucario'
p501
sba(isaltybot
Fighter
p502
(dp503
g4
I0
sg5
S'Rugal (-2) - $159,763\r\n'
p504
sg7
I1
sg8
I0
sg9
F0.51427955217058208
sg108
S'A'
sg10
F0
sg11
S'Rugal'
p505
sba(isaltybot
Fighter
p506
(dp507
g4
I0
sg5
S'Venom GG (1) - $328,885'
p508
sg7
I1
sg8
I0
sg9
F0.84579103970950165
sg108
S'S'
sg10
F0
sg11
S'Venom GG'
p509
sba(isaltybot
Fighter
p510
(dp511
g4
I0
sg5
S'Shingo EX2 (-3) - $388,849\r\n'
p512
sg7
I0
sg8
I1
sg9
F1.182325128844429
sg108
S'S'
sg10
F0
sg11
S'Shingo EX2'
p513
sba(isaltybot
Fighter
p514
(dp515
g4
I0
sg5
S'Shinsaku maekawa (4) - $535,189'
p516
sg7
I1
sg8
I0
sg9
F3.4688336520076484
sg108
S'B'
sg10
F0
sg11
S'Shinsaku maekawa'
p517
sba(isaltybot
Fighter
p518
(dp519
g4
I0
sg5
S'Radel (1) - $154,285\r\n'
p520
sg7
I0
sg8
I1
sg9
F0.28828133612611617
sg108
S'B'
sg10
F0
sg11
S'Radel'
p521
sba(isaltybot
Fighter
p522
(dp523
g4
I0
sg5
S'Orochimaru (-3) - $130,297'
p524
sg7
I1
sg8
I0
sg9
F0.37998874297529578
sg108
S'B'
sg10
F0
sg11
S'Orochimaru'
p525
sba(isaltybot
Fighter
p526
(dp527
g4
I0
sg5
S'Thin nen (3) - $342,897\r\n'
p528
sg7
I0
sg8
I1
sg9
F2.631656906912669
sg108
S'B'
sg10
F0
sg11
S'Thin nen'
p529
sba(isaltybot
Fighter
p530
(dp531
g4
I0
sg5
S'Sailor mercury EX (-2) - $552,028'
p532
sg7
I1
sg8
I0
sg9
F5.9216493960653063
sg108
S'B'
sg10
F0
sg11
S'Sailor mercury EX'
p533
sba(isaltybot
Fighter
p534
(dp535
g4
I0
sg5
S'Regina (1) - $93,222\r\n'
p536
sg7
I0
sg8
I1
sg9
F0.16887186881824834
sg108
S'B'
sg10
F0
sg11
S'Regina'
p537
sba(isaltybot
Fighter
p538
(dp539
g4
I0
sg5
S'Mariabell armitage (2) - $521,811'
p540
sg7
I1
sg8
I0
sg9
F1.6877856447444601
sg108
S'A'
sg10
F0
sg11
S'Mariabell armitage'
p541
sba(isaltybot
Fighter
p542
(dp543
g4
I0
sg5
S'Munch (-3) - $309,169\r\n'
p544
sg7
I0
sg8
I1
sg9
F0.59249230085222426
sg108
S'A'
sg10
F0
sg11
S'Munch'
p545
sba(isaltybot
Fighter
p546
(dp547
g4
I0
sg5
S'Nightwolf (-1) - $634,005'
p548
sg7
I1
sg8
I0
sg9
F6.1255338061100266
sg108
S'B'
sg10
F0
sg11
S'Nightwolf'
p549
sba(isaltybot
Fighter
p550
(dp551
g4
I0
sg5
S'Holy god earth (-1) - $103,502\r\n'
p552
sg7
I0
sg8
I1
sg9
F0.16325107846152634
sg108
S'B'
sg10
F0
sg11
S'Holy god earth'
p553
sba(isaltybot
Fighter
p554
(dp555
g4
I0
sg5
S'E-terry 71113 (-2) - $263,579'
p556
sg7
I0
sg8
I1
sg9
F0.763417346826468
sg108
S'A'
sg10
F0
sg11
S'E-terry 71113'
p557
sba(isaltybot
Fighter
p558
(dp559
g4
I0
sg5
S'Samchay ex (4) - $345,262\r\n'
p560
sg7
I1
sg8
I0
sg9
F1.309899498821985
sg108
S'A'
sg10
F0
sg11
S'Samchay ex'
p561
sba(isaltybot
Fighter
p562
(dp563
g4
I0
sg5
S'Super androide 17 hd (2) - $231,409'
p564
sg7
I0
sg8
I1
sg9
F0.61830088760400359
sg108
S'S'
sg10
F0
sg11
S'Super androide 17 hd'
p565
sba(isaltybot
Fighter
p566
(dp567
g4
I0
sg5
S'Mageko EX (1) - $374,266\r\n'
p568
sg7
I1
sg8
I0
sg9
F1.6173355401043175
sg108
S'S'
sg10
F0
sg11
S'Mageko EX'
p569
sba(isaltybot
Fighter
p570
(dp571
g4
I0
sg5
S'Arrange_unknown (-4) - $336,915'
p572
sg7
I0
sg8
I1
sg9
F3.1872835979036194
sg108
S'S'
sg10
F0
sg11
S'Arrange_unknown'
p573
sba(isaltybot
Fighter
p574
(dp575
g4
I0
sg5
S'Fang 0d (-3) - $105,706\r\n'
p576
sg7
I1
sg8
I0
sg9
F0.31374679073356782
sg108
S'S'
sg10
F0
sg11
S'Fang 0d'
p577
sba(isaltybot
Fighter
p578
(dp579
g4
I0
sg5
S'Kung fu head (-1) - $488,934'
p580
sg7
I0
sg8
I1
sg9
F2.0540424727456048
sg108
S'S'
sg10
F0
sg11
S'Kung fu head'
p581
sba(isaltybot
Fighter
p582
(dp583
g4
I0
sg5
S'Kim sueil (1) - $238,035\r\n'
p584
sg7
I1
sg8
I0
sg9
F0.48684485022518376
sg108
S'S'
sg10
F0
sg11
S'Kim sueil'
p585
sba(isaltybot
Fighter
p586
(dp587
g4
I0
sg5
S'Vegeta ssj5 (-1) - $256,994'
p588
sg7
I0
sg8
I1
sg9
F0.83401700525735056
sg108
S'B'
sg10
F0
sg11
S'Vegeta ssj5'
p589
sba(isaltybot
Fighter
p590
(dp591
g4
I0
sg5
S'The Sailor Man (-5) - $308,140\r\n'
p592
sg7
I1
sg8
I0
sg9
F1.1990163194471466
sg108
S'B'
sg10
F0
sg11
S'The Sailor Man'
p593
sba(isaltybot
Fighter
p594
(dp595
g4
I0
sg5
S'Trunks EX3 (3) - $382,201'
p596
sg7
I0
sg8
I1
sg9
F1.8224433646927556
sg108
S'A'
sg10
F0
sg11
S'Trunks EX3'
p597
sba(isaltybot
Fighter
p598
(dp599
g4
I0
sg5
S'Miyuki (1) - $209,719\r\n'
p600
sg7
I1
sg8
I0
sg9
F0.54871389661460857
sg108
S'A'
sg10
F0
sg11
S'Miyuki'
p601
sba(isaltybot
Fighter
p602
(dp603
g4
I0
sg5
S'Killer whale (-2) - $1,665,713'
p604
sg7
I1
sg8
I0
sg9
F15.992328888120818
sg108
S'S'
sg10
F0
sg11
S'Killer whale'
p605
sba(isaltybot
Fighter
p606
(dp607
g4
I0
sg5
S'Another blood k (3) - $104,157\r\n'
p608
sg7
I0
sg8
I1
sg9
F0.06252997965435822
sg108
S'S'
sg10
F0
sg11
S'Another blood k'
p609
sba(isaltybot
Fighter
p610
(dp611
g4
I0
sg5
S'Ivy (-6) - $349,733'
p612
sg7
I0
sg8
I1
sg9
F2.205473750591203
sg108
S'B'
sg10
F0
sg11
S'Ivy'
p613
sba(isaltybot
Fighter
p614
(dp615
g4
I0
sg5
S'Blaze EX2 (-5) - $158,575\r\n'
p616
sg7
I1
sg8
I0
sg9
F0.4534173212136115
sg108
S'B'
sg10
F0
sg11
S'Blaze EX2'
p617
sba(isaltybot
Fighter
p618
(dp619
g4
I0
sg5
S'Seikimatsukyu-seisya kenshirou (-2) - $754,863'
p620
sg7
I0
sg8
I1
sg9
F7.5622420356641955
sg108
S'X'
sg10
F0
sg11
S'Seikimatsukyu-seisya kenshirou'
p621
sba(isaltybot
Fighter
p622
(dp623
g4
I0
sg5
S'Himan zellode (-1) - $99,820\r\n'
p624
sg7
I1
sg8
I0
sg9
F0.13223591565621842
sg108
S'X'
sg10
F0
sg11
S'Himan zellode'
p625
sba(isaltybot
Fighter
p626
(dp627
g4
I0
sg5
S'Oyashiro_chie (4) - $1,114,440'
p628
sg7
I1
sg8
I0
sg9
F10.523711495967818
sg108
S'S'
sg10
F0
sg11
S'Oyashiro_chie'
p629
sba(isaltybot
Fighter
p630
(dp631
g4
I0
sg5
S'Atari dragon EX2 (2) - $105,898\r\n'
p632
sg7
I0
sg8
I1
sg9
F0.095023509565342237
sg108
S'S'
sg10
F0
sg11
S'Atari dragon EX2'
p633
sba(isaltybot
Fighter
p634
(dp635
g4
I0
sg5
S'Sasquatch (-4) - $222,900'
p636
sg7
I0
sg8
I1
sg9
F0.44867240070934122
sg108
S'S'
sg10
F0
sg11
S'Sasquatch'
p637
sba(isaltybot
Fighter
p638
(dp639
g4
I0
sg5
S'Haohmaru (3) - $496,799\r\n'
p640
sg7
I1
sg8
I0
sg9
F2.2287976671152983
sg108
S'S'
sg10
F0
sg11
S'Haohmaru'
p641
sba(isaltybot
Fighter
p642
(dp643
g4
I0
sg5
S'Peach mizuki (1) - $422,950'
p644
sg7
I1
sg8
I0
sg9
F2.4535766702826876
sg108
S'B'
sg10
F0
sg11
S'Peach mizuki'
p645
sba(isaltybot
Fighter
p646
(dp647
g4
I0
sg5
S'Galvatron (1) - $172,381\r\n'
p648
sg7
I0
sg8
I1
sg9
F0.40756827048114436
sg108
S'B'
sg10
F0
sg11
S'Galvatron'
p649
sba(isaltybot
Fighter
p650
(dp651
g4
I0
sg5
S'Millia (12) - $2,510,450'
p652
sg7
I1
sg8
I0
sg9
F43.689632968448166
sg108
S'S'
sg10
F0
sg11
S'Millia'
p653
sba(isaltybot
Fighter
p654
(dp655
g4
I0
sg5
S'Lin EX (1) - $57,461\r\n'
p656
sg7
I0
sg8
I1
sg9
F0.022888725128960945
sg108
S'S'
sg10
F0
sg11
S'Lin EX'
p657
sba(isaltybot
Fighter
p658
(dp659
g4
I0
sg5
S'Makendo (-1) - $231,634'
p660
sg7
I0
sg8
I1
sg9
F0.99024012790861715
sg108
S'A'
sg10
F0
sg11
S'Makendo'
p661
sba(isaltybot
Fighter
p662
(dp663
g4
I0
sg5
S'Sheng long (-3) - $233,917\r\n'
p664
sg7
I1
sg8
I0
sg9
F1.0098560660352107
sg108
S'A'
sg10
F0
sg11
S'Sheng long'
p665
sba(isaltybot
Fighter
p666
(dp667
g4
I0
sg5
S'Demoniho (2) - $405,394'
p668
sg7
I1
sg8
I0
sg9
F9.3767405282879217
sg108
S'B'
sg10
F0
sg11
S'Demoniho'
p669
sba(isaltybot
Fighter
p670
(dp671
g4
I0
sg5
S'Carol (1) - $43,234\r\n'
p672
sg7
I0
sg8
I1
sg9
F0.10664686699852489
sg108
S'B'
sg10
F0
sg11
S'Carol'
p673
sba(isaltybot
Fighter
p674
(dp675
g4
I0
sg5
S'Reika EX3 (1) - $105,474'
p676
sg7
I0
sg8
I1
sg9
F0.2661999237799107
sg108
S'B'
sg10
F0
sg11
S'Reika EX3'
p677
sba(isaltybot
Fighter
p678
(dp679
g4
I0
sg5
S'Zangoose (-1) - $396,221\r\n'
p680
sg7
I1
sg8
I0
sg9
F3.7565750801145308
sg108
S'B'
sg10
F0
sg11
S'Zangoose'
p681
sba(isaltybot
Fighter
p682
(dp683
g4
I0
sg5
S'Vita (5) - $175,417'
p684
sg7
I0
sg8
I1
sg9
F0.51689773547655182
sg108
S'B'
sg10
F0
sg11
S'Vita'
p685
sba(isaltybot
Fighter
p686
(dp687
g4
I0
sg5
S'Chizuru 71113 (1) - $339,365\r\n'
p688
sg7
I1
sg8
I0
sg9
F1.9346186515560067
sg108
S'B'
sg10
F0
sg11
S'Chizuru 71113'
p689
sba(isaltybot
Fighter
p690
(dp691
g4
I0
sg5
S'Orsted (-5) - $79,132'
p692
sg7
I0
sg8
I1
sg9
F0.30585015924059245
sg108
S'S'
sg10
F0
sg11
S'Orsted'
p693
sba(isaltybot
Fighter
p694
(dp695
g4
I0
sg5
S'Ciel EX3 (2) - $258,728\r\n'
p696
sg7
I1
sg8
I0
sg9
F3.2695748875296973
sg108
S'S'
sg10
F0
sg11
S'Ciel EX3'
p697
sba(isaltybot
Fighter
p698
(dp699
g4
I0
sg5
S'Clayface (-3) - $252,684'
p700
sg7
I1
sg8
I0
sg9
F3.4218159658744667
sg108
S'B'
sg10
F0
sg11
S'Clayface'
p701
sba(isaltybot
Fighter
p702
(dp703
g4
I0
sg5
S'Nico robin (1) - $73,845\r\n'
p704
sg7
I0
sg8
I1
sg9
F0.29224248468442798
sg108
S'B'
sg10
F0
sg11
S'Nico robin'
p705
sba(isaltybot
Fighter
p706
(dp707
g4
I0
sg5
S'Wonder Woman Reloaded (-2) - $298,049'
p708
sg7
I0
sg8
I1
sg9
F1.8895792256534778
sg108
S'A'
sg10
F0
sg11
S'Wonder Woman Reloaded'
p709
sba(isaltybot
Fighter
p710
(dp711
g4
I0
sg5
S'Rin_tohsaka (-1) - $157,733\r\n'
p712
sg7
I1
sg8
I0
sg9
F0.52921835000285189
sg108
S'A'
sg10
F0
sg11
S'Rin_tohsaka'
p713
sba(isaltybot
Fighter
p714
(dp715
g4
I0
sg5
S'Lloyd irving (-2) - $152,768'
p716
sg7
I0
sg8
I1
sg9
F0.39340344660644205
sg108
S'A'
sg10
F0
sg11
S'Lloyd irving'
p717
sba(isaltybot
Fighter
p718
(dp719
g4
I0
sg5
S'Haggar ex (1) - $388,324\r\n'
p720
sg7
I1
sg8
I0
sg9
F2.5419197737746124
sg108
S'A'
sg10
F0
sg11
S'Haggar ex'
p721
sba(isaltybot
Fighter
p722
(dp723
g4
I0
sg5
S'Etomo shuko EX3 (1) - $128,934'
p724
sg7
I1
sg8
I0
sg9
F2.8547958551058366
sg108
S'A'
sg10
F0
sg11
S'Etomo shuko EX3'
p725
sba(isaltybot
Fighter
p726
(dp727
g4
I0
sg5
S'John anderson (-6) - $84,077'
p728
sg7
I0
sg8
I1
sg9
F0.14722197902257086
sg108
S'A'
sg10
F0
sg11
S'John anderson'
p729
sba(isaltybot
Fighter
p730
(dp731
g4
I0
sg5
S'Fujibayashi suzu (-1) - $571,090\r\n'
p732
sg7
I1
sg8
I0
sg9
F6.7924640508105663
sg108
S'A'
sg10
F0
sg11
S'Fujibayashi suzu'
p733
sba(isaltybot
Fighter
p734
(dp735
g4
I0
sg5
S'Jin CVS (-2) - $330,472'
p736
sg7
I1
sg8
I0
sg9
F0.79791390008933527
sg108
S'B'
sg10
F0
sg11
S'Jin CVS'
p737
sba(isaltybot
Fighter
p738
(dp739
g4
I0
sg5
S'Leo (-4) - $414,170\r\n'
p740
sg7
I0
sg8
I1
sg9
F1.2532680529666658
sg108
S'B'
sg10
F0
sg11
S'Leo'
p741
sba(isaltybot
Fighter
p742
(dp743
g4
I0
sg5
S'Balrog_a (-4) - $93,166'
p744
sg7
I0
sg8
I1
sg9
F0.16080514764261994
sg108
S'B'
sg10
F0
sg11
S'Balrog_a'
p745
sba(isaltybot
Fighter
p746
(dp747
g4
I0
sg5
S'Yoshi EX2 (1) - $579,372\r\n'
p748
sg7
I1
sg8
I0
sg9
F6.2187063950368158
sg108
S'B'
sg10
F0
sg11
S'Yoshi EX2'
p749
sba.