(lp1
(isaltybot
Fighter
p2
(dp3
S'streak'
p4
I0
sS'string'
p5
S'Blue eyes white karin (1) - $538,526'
p6
sS'wins'
p7
I1
sS'loses'
p8
I0
sS'bet_ratio'
p9
F8.1369233791154834
sS'wlRatio'
p10
F0
sS'name'
p11
S'Blue eyes white karin'
p12
sba(isaltybot
Fighter
p13
(dp14
g4
I0
sg5
S'Kisume EX (-4) - $66,183\r\n'
p15
sg7
I0
sg8
I1
sg9
F0.12289657323880369
sg10
F0
sg11
S'Kisume EX'
p16
sba(isaltybot
Fighter
p17
(dp18
g4
I0
sg5
S'Daimon 71113 (-5) - $167,183'
p19
sg7
I0
sg8
I1
sg9
F0.60794260321893245
sg10
F0
sg11
S'Daimon 71113'
p20
sba(isaltybot
Fighter
p21
(dp22
g4
I0
sg5
S'Rera EX3 (1) - $274,998\r\n'
p23
sg7
I1
sg8
I0
sg9
F1.6448921241992307
sg10
F0
sg11
S'Rera EX3'
p24
sba(isaltybot
Fighter
p25
(dp26
g4
I0
sg5
S'Gaira EX2 (2) - $179,146'
p27
sg7
I1
sg8
I0
sg9
F6.5061194842927188
sg10
F0
sg11
S'Gaira EX2'
p28
sba(isaltybot
Fighter
p29
(dp30
g4
I0
sg5
S'Death force (-1) - $27,535\r\n'
p31
sg7
I0
sg8
I1
sg9
F0.15370145021379211
sg10
F0
sg11
S'Death force'
p32
sba(isaltybot
Fighter
p33
(dp34
g4
I0
sg5
S'Lupin the 3rd (-3) - $130,147'
p35
sg7
I0
sg8
I1
sg9
F1.1540924004611155
sg10
F0
sg11
S'Lupin the 3rd'
p36
sba(isaltybot
Fighter
p37
(dp38
g4
I0
sg5
S'Conker (2) - $112,770\r\n'
p39
sg7
I1
sg8
I0
sg9
F0.86648174756237173
sg10
F0
sg11
S'Conker'
p40
sba(isaltybot
Fighter
p41
(dp42
g4
I0
sg5
S'Perfect storm x (1) - $104,813'
p43
sg7
I0
sg8
I1
sg9
F0.07644468366912309
sg10
F0
sg11
S'Perfect storm x'
p44
sba(isaltybot
Fighter
p45
(dp46
g4
I0
sg5
S'Ash of blueblood (3) - $1,371,096\r\n'
p47
sg7
I1
sg8
I0
sg9
F13.081354412143531
sg10
F0
sg11
S'Ash of blueblood'
p48
sba(isaltybot
Fighter
p49
(dp50
g4
I0
sg5
S'Hydron (1) - $77,060'
p51
sg7
I1
sg8
I0
sg9
F0.32262926522922336
sg10
F0
sg11
S'Hydron'
p52
sba(isaltybot
Fighter
p53
(dp54
g4
I0
sg5
S'Donatello 0d (2) - $238,850\r\n'
p55
sg7
I0
sg8
I1
sg9
F3.0995328315598236
sg10
F0
sg11
S'Donatello 0d'
p56
sba(isaltybot
Fighter
p57
(dp58
g4
I0
sg5
S'Kazama sogetsu (-1) - $507,868'
p59
sg7
I1
sg8
I0
sg9
F3.5299007478662183
sg10
F0
sg11
S'Kazama sogetsu'
p60
sba(isaltybot
Fighter
p61
(dp62
g4
I0
sg5
S'Xiaoyen (1) - $143,876\r\n'
p63
sg7
I0
sg8
I1
sg9
F0.28329408428961855
sg10
F0
sg11
S'Xiaoyen'
p64
sba(isaltybot
Fighter
p65
(dp66
g4
I0
sg5
S'Trishula,doragon of the ice barrier (-1) - $67,099'
p67
sg7
I0
sg8
I1
sg9
F0.2281619259737831
sg10
F0
sg11
S'Trishula,doragon of the ice barrier'
p68
sba(isaltybot
Fighter
p69
(dp70
g4
I0
sg5
S'Mike EX2 (2) - $294,085\r\n'
p71
sg7
I1
sg8
I0
sg9
F4.3828522034605584
sg10
F0
sg11
S'Mike EX2'
p72
sba(isaltybot
Fighter
p73
(dp74
g4
I0
sg5
S'Eriol hiiragizawa (-5) - $74,010'
p75
sg7
I1
sg8
I0
sg9
F0.25156185206082893
sg10
F0
sg11
S'Eriol hiiragizawa'
p76
sba(isaltybot
Fighter
p77
(dp78
g4
I0
sg5
S'Dimlos EX (-2) - $294,202\r\n'
p79
sg7
I0
sg8
I1
sg9
F3.9751655181732199
sg10
F0
sg11
S'Dimlos EX'
p80
sba(isaltybot
Fighter
p81
(dp82
g4
I0
sg5
S'Wiler (-1) - $300,146'
p83
sg7
I1
sg8
I0
sg9
F1.0270039075598623
sg10
F0
sg11
S'Wiler'
p84
sba(isaltybot
Fighter
p85
(dp86
g4
I0
sg5
S'Mysty_monkstyle (2) - $292,254\r\n'
p87
sg7
I0
sg8
I1
sg9
F0.97370612968355397
sg10
F0
sg11
S'Mysty_monkstyle'
p88
sba(isaltybot
Fighter
p89
(dp90
g4
I0
sg5
S'Titan the great (-4) - $129,922'
p91
sg7
I1
sg8
I0
sg9
F0.75875722712141569
sg10
F0
sg11
S'Titan the great'
p92
sba(isaltybot
Fighter
p93
(dp94
g4
I0
sg5
S'Princess silver (-1) - $171,230\r\n'
p95
sg7
I0
sg8
I1
sg9
F1.317944612921599
sg10
F0
sg11
S'Princess silver'
p96
sba(isaltybot
Fighter
p97
(dp98
g4
I0
sg5
S'Gengetu EX (1) - $2,526,438'
p99
sg7
I1
sg8
I0
sg9
F48.091483610614077
sg10
F0
sg11
S'Gengetu EX'
p100
sba(isaltybot
Fighter
p101
(dp102
g4
I0
sg5
S'Jotaro kujo (-6) - $52,534\r\n'
p103
sg7
I0
sg8
I1
sg9
F0.020793702437977898
sg10
F0
sg11
S'Jotaro kujo'
p104
sba(isaltybot
Fighter
p105
(dp106
g4
I0
sg5
S'Prometheus (-2) - $251,986'
p107
sg7
I1
sg8
I0
sg9
F2.1802623382017026
sg10
F0
sg11
S'Prometheus'
p108
sba(isaltybot
Fighter
p109
(dp110
g4
I0
sg5
S'Android 16 ai-barbatos (1) - $115,576\r\n'
p111
sg7
I0
sg8
I1
sg9
F0.45866040176835221
sg10
F0
sg11
S'Android 16 ai-barbatos'
p112
sba(isaltybot
Fighter
p113
(dp114
g4
I0
sg5
S'Mr.karateka (-1) - $110,261'
p115
sg7
I0
sg8
I1
sg9
F0.12232343638540076
sg10
F0
sg11
S'Mr.karateka'
p116
sba(isaltybot
Fighter
p117
(dp118
g4
I0
sg5
S'S.geist (-1) - $901,389\r\n'
p119
sg7
I1
sg8
I0
sg9
F8.1750482945012291
sg10
F0
sg11
S'S.geist'
p120
sba(isaltybot
Fighter
p121
(dp122
g4
I0
sg5
S'Hina (0) - $149,709'
p123
sg7
I0
sg8
I1
sg9
F0.99905239204276253
sg10
F0
sg11
S'Hina'
p124
sba(isaltybot
Fighter
p125
(dp126
g4
I0
sg5
S'Demonica (-3) - $149,851\r\n'
p127
sg7
I1
sg8
I0
sg9
F1.0009485067698001
sg10
F0
sg11
S'Demonica'
p128
sba(isaltybot
Fighter
p129
(dp130
g4
I0
sg5
S'Jotaro (-1) - $223,724'
p131
sg7
I1
sg8
I0
sg9
F1.3507782594520183
sg10
F0
sg11
S'Jotaro'
p132
sba(isaltybot
Fighter
p133
(dp134
g4
I0
sg5
S'Gulool ja ja (-5) - $165,626\r\n'
p135
sg7
I1
sg8
I1
sg9
F0.9571849065300585
sg10
F0
sg11
S'Gulool ja ja'
p136
sba(isaltybot
Fighter
p137
(dp138
g4
I0
sg5
S'Hikaru EX3 (-5) - $117,742'
p139
sg7
I0
sg8
I1
sg9
F0.30446396479097226
sg10
F0
sg11
S'Hikaru EX3'
p140
sba(isaltybot
Fighter
p141
(dp142
g4
I0
sg5
S'Legion EX3 (7) - $386,719\r\n'
p143
sg7
I1
sg8
I0
sg9
F3.2844609400214027
sg10
F0
sg11
S'Legion EX3'
p144
sba(isaltybot
Fighter
p145
(dp146
g4
I0
sg5
S'Shaq Diesel (1) - $36,190'
p147
sg7
I0
sg8
I1
sg9
F0.094043235461497884
sg10
F0
sg11
S'Shaq Diesel'
p148
sba(isaltybot
Fighter
p149
(dp150
g4
I0
sg5
S'Nucrear cirno (5) - $384,823\r\n'
p151
sg7
I1
sg8
I0
sg9
F10.633407018513401
sg10
F0
sg11
S'Nucrear cirno'
p152
sba(isaltybot
Fighter
p153
(dp154
g4
I0
sg5
S'Han EX3 (-5) - $198,498'
p155
sg7
I0
sg8
I1
sg9
F1.0709014005481343
sg10
F0
sg11
S'Han EX3'
p156
sba(isaltybot
Fighter
p157
(dp158
g4
I0
sg5
S'Zeeky h. bomb (1) - $185,356\r\n'
p159
sg7
I1
sg8
I0
sg9
F0.93379278380638597
sg10
F0
sg11
S'Zeeky h. bomb'
p160
sba(isaltybot
Fighter
p161
(dp162
g4
I0
sg5
S'Kingjoe (2) - $435,347'
p163
sg7
I1
sg8
I0
sg9
F7.5941005111029707
sg10
F0
sg11
S'Kingjoe'
p164
sba(isaltybot
Fighter
p165
(dp166
g4
I0
sg5
S'Person-lichkeit (-2) - $57,327\r\n'
p167
sg7
I0
sg8
I1
sg9
F0.13168116468012872
sg10
F0
sg11
S'Person-lichkeit'
p168
sba(isaltybot
Fighter
p169
(dp170
g4
I0
sg5
S'Devilbat-schilt (-1) - $242,046'
p171
sg7
I0
sg8
I1
sg9
F1.1969143280998888
sg10
F0
sg11
S'Devilbat-schilt'
p172
sba(isaltybot
Fighter
p173
(dp174
g4
I0
sg5
S'94_flan (1) - $202,225\r\n'
p175
sg7
I1
sg8
I0
sg9
F0.83548168529948852
sg10
F0
sg11
S'94_flan'
p176
sba(isaltybot
Fighter
p177
(dp178
g4
I0
sg5
S'Young_rugal (5) - $348,855'
p179
sg7
I1
sg8
I0
sg9
F3.8776746512532649
sg10
F0
sg11
S'Young_rugal'
p180
sba(isaltybot
Fighter
p181
(dp182
g4
I0
sg5
S'Condor EX (-5) - $89,965\r\n'
p183
sg7
I0
sg8
I1
sg9
F0.25788651445442951
sg10
F0
sg11
S'Condor EX'
p184
sba(isaltybot
Fighter
p185
(dp186
g4
I0
sg5
S'Majin boo EX3 (1) - $149,719'
p187
sg7
I0
sg8
I1
sg9
F2.9473984684134891
sg10
F0
sg11
S'Majin boo EX3'
p188
sba(isaltybot
Fighter
p189
(dp190
g4
I0
sg5
S'Birdie sfa (1) - $50,797\r\n'
p191
sg7
I1
sg8
I0
sg9
F0.33928225542516316
sg10
F0
sg11
S'Birdie sfa'
p192
sba(isaltybot
Fighter
p193
(dp194
g4
I0
sg5
S'Donovan (2) - $150,537'
p195
sg7
I0
sg8
I1
sg9
F0.77340848022770126
sg10
F0
sg11
S'Donovan'
p196
sba(isaltybot
Fighter
p197
(dp198
g4
I0
sg5
S'Himekawa kotone (1) - $194,641\r\n'
p199
sg7
I1
sg8
I0
sg9
F1.2929778061207544
sg10
F0
sg11
S'Himekawa kotone'
p200
sba(isaltybot
Fighter
p201
(dp202
g4
I0
sg5
S'The atom (2) - $61,047'
p203
sg7
I0
sg8
I1
sg9
F0.13611280192105737
sg10
F0
sg11
S'The atom'
p204
sba(isaltybot
Fighter
p205
(dp206
g4
I0
sg5
S'Xeona (7) - $448,503\r\n'
p207
sg7
I1
sg8
I0
sg9
F7.3468475109341984
sg10
F0
sg11
S'Xeona'
p208
sba(isaltybot
Fighter
p209
(dp210
g4
I0
sg5
S'Miko (1) - $319,977'
p211
sg7
I1
sg8
I0
sg9
F7.0847799132052076
sg10
F0
sg11
S'Miko'
p212
sba(isaltybot
Fighter
p213
(dp214
g4
I0
sg5
S'Jill ex (1) - $45,164\r\n'
p215
sg7
I0
sg8
I1
sg9
F0.14114764498698343
sg10
F0
sg11
S'Jill ex'
p216
sba(isaltybot
Fighter
p217
(dp218
g4
I0
sg5
S'Chintao FF (2) - $73,708'
p219
sg7
I0
sg8
I1
sg9
F0.34586833090892027
sg10
F0
sg11
S'Chintao FF'
p220
sba(isaltybot
Fighter
p221
(dp222
g4
I0
sg5
S'Zuepia (2) - $213,110\r\n'
p223
sg7
I1
sg8
I0
sg9
F2.8912736744993759
sg10
F0
sg11
S'Zuepia'
p224
sba(isaltybot
Fighter
p225
(dp226
g4
I0
sg5
S'Gundam epyon (1) - $145,835'
p227
sg7
I1
sg8
I0
sg9
F0.97766261974833579
sg10
F0
sg11
S'Gundam epyon'
p228
sba(isaltybot
Fighter
p229
(dp230
g4
I0
sg5
S'Meta jade (-2) - $149,167\r\n'
p231
sg7
I0
sg8
I1
sg9
F1.0228477388829842
sg10
F0
sg11
S'Meta jade'
p232
sba(isaltybot
Fighter
p233
(dp234
g4
I0
sg5
S'Ryu Evil (-4) - $56,603'
p235
sg7
I0
sg8
I1
sg9
F0.23595496250349121
sg10
F0
sg11
S'Ryu Evil'
p236
sba(isaltybot
Fighter
p237
(dp238
g4
I0
sg5
S'Ken sf3 (7) - $239,889\r\n'
p239
sg7
I1
sg8
I0
sg9
F4.2380969206579158
sg10
F0
sg11
S'Ken sf3'
p240
sba(isaltybot
Fighter
p241
(dp242
g4
I0
sg5
S'Dk (5) - $87,828'
p243
sg7
I0
sg8
I1
sg9
F0.28781627576985969
sg10
F0
sg11
S'Dk'
p244
sba(isaltybot
Fighter
p245
(dp246
g4
I0
sg5
S'Shadow agent (6) - $305,153\r\n'
p247
sg7
I1
sg8
I0
sg9
F3.4744386755932051
sg10
F0
sg11
S'Shadow agent'
p248
sba(isaltybot
Fighter
p249
(dp250
g4
I0
sg5
S'Makoto EX3 (1) - $163,513'
p251
sg7
I0
sg8
I1
sg9
F0.67674740083438178
sg10
F0
sg11
S'Makoto EX3'
p252
sba(isaltybot
Fighter
p253
(dp254
g4
I0
sg5
S'Komepo (-1) - $241,616\r\n'
p255
sg7
I1
sg8
I0
sg9
F1.4776562108211579
sg10
F0
sg11
S'Komepo'
p256
sba(isaltybot
Fighter
p257
(dp258
g4
I0
sg5
S'El stinger (-2) - $319,927'
p259
sg7
I0
sg8
I1
sg9
F6.0722189534420252
sg10
F0
sg11
S'El stinger'
p260
sba(isaltybot
Fighter
p261
(dp262
g4
I0
sg5
S'Underdog (-1) - $52,687\r\n'
p263
sg7
I1
sg8
I0
sg9
F0.16468444363870507
sg10
F0
sg11
S'Underdog'
p264
sba(isaltybot
Fighter
p265
(dp266
g4
I0
sg5
S'Lomias (4) - $332,896'
p267
sg7
I0
sg8
I1
sg9
F2.0234993769565084
sg10
F0
sg11
S'Lomias'
p268
sba(isaltybot
Fighter
p269
(dp270
g4
I0
sg5
S'Juri pf (-3) - $164,515\r\n'
p271
sg7
I1
sg8
I0
sg9
F0.49419338171681249
sg10
F0
sg11
S'Juri pf'
p272
sba(isaltybot
Fighter
p273
(dp274
g4
I0
sg5
S'Drunken master (-1) - $284,404'
p275
sg7
I0
sg8
I1
sg9
F1.7792597782838266
sg10
F0
sg11
S'Drunken master'
p276
sba(isaltybot
Fighter
p277
(dp278
g4
I0
sg5
S'Natsuka fuou (2) - $159,844\r\n'
p279
sg7
I1
sg8
I0
sg9
F0.56203147635054362
sg10
F0
sg11
S'Natsuka fuou'
p280
sba(isaltybot
Fighter
p281
(dp282
g4
I0
sg5
S'Leo FM (-9) - $42,411'
p283
sg7
I0
sg8
I1
sg9
F0.16287179093300563
sg10
F0
sg11
S'Leo FM'
p284
sba(isaltybot
Fighter
p285
(dp286
g4
I0
sg5
S'Captain america (1) - $260,395\r\n'
p287
sg7
I1
sg8
I0
sg9
F6.1397986371460238
sg10
F0
sg11
S'Captain america'
p288
sba(isaltybot
Fighter
p289
(dp290
g4
I0
sg5
S'Hisame shizumaru (2) - $431,014'
p291
sg7
I0
sg8
I1
sg9
F1.310642619740495
sg10
F0
sg11
S'Hisame shizumaru'
p292
sba(isaltybot
Fighter
p293
(dp294
g4
I0
sg5
S'Nash shadow (4) - $328,857\r\n'
p295
sg7
I1
sg8
I0
sg9
F0.76298449702329851
sg10
F0
sg11
S'Nash shadow'
p296
sba(isaltybot
Fighter
p297
(dp298
g4
I0
sg5
S'Evil homer (1) - $86,802'
p299
sg7
I1
sg8
I1
sg9
F2.2847277274638453
sg10
F0
sg11
S'Evil homer'
p300
sba(isaltybot
Fighter
p301
(dp302
g4
I0
sg5
S'Trish (-9) - $28,410\r\n'
p303
sg7
I0
sg8
I1
sg9
F0.32729660606898459
sg10
F0
sg11
S'Trish'
p304
sba(isaltybot
Fighter
p305
(dp306
g4
I0
sg5
S'Vixen (-2) - $45,051'
p307
sg7
I0
sg8
I1
sg9
F0.38589232943595014
sg10
F0
sg11
S'Vixen'
p308
sba(isaltybot
Fighter
p309
(dp310
g4
I0
sg5
S'Rosa_obsn (3) - $116,745\r\n'
p311
sg7
I2
sg8
I1
sg9
F1.8252470484152266
sg10
F0
sg11
S'Rosa_obsn'
p312
sba(isaltybot
Fighter
p313
(dp314
g4
I0
sg5
S'Bruce shotoman (-4) - $54,186'
p315
sg7
I1
sg8
I1
sg9
F0.38629485274100622
sg10
F0
sg11
S'Bruce shotoman'
p316
sba(isaltybot
Fighter
p317
(dp318
g4
I0
sg5
S'Rogue SP (-4) - $135,466\r\n'
p319
sg7
I0
sg8
I1
sg9
F2.5000184549514635
sg10
F0
sg11
S'Rogue SP'
p320
sba(isaltybot
Fighter
p321
(dp322
g4
I0
sg5
S'Reject no. 253 (-3) - $150,982'
p323
sg7
I4
sg8
I0
sg9
F1.2360217339239714
sg10
F0
sg11
S'Reject no. 253'
p324
sba(isaltybot
Fighter
p325
(dp326
g4
I0
sg5
S'Houoh (3) - $104,600\r\n'
p327
sg7
I0
sg8
I1
sg9
F0.69279781695831288
sg10
F0
sg11
S'Houoh'
p328
sba(isaltybot
Fighter
p329
(dp330
g4
I0
sg5
S'Hayato (1) - $97,533'
p331
sg7
I0
sg8
I1
sg9
F0.71189892265919241
sg10
F0
sg11
S'Hayato'
p332
sba(isaltybot
Fighter
p333
(dp334
g4
I0
sg5
S'Number muncher (1) - $137,004\r\n'
p335
sg7
I1
sg8
I1
sg9
F1.1498753696083628
sg10
F0
sg11
S'Number muncher'
p336
sba(isaltybot
Fighter
p337
(dp338
g4
I0
sg5
S'Elisabeth (6) - $213,989'
p339
sg7
I3
sg8
I1
sg9
F1.4382149553749275
sg10
F0
sg11
S'Elisabeth'
p340
sba(isaltybot
Fighter
p341
(dp342
g4
I0
sg5
S'Squall (-2) - $124,978\r\n'
p343
sg7
I0
sg8
I1
sg9
F0.58403936650949351
sg10
F0
sg11
S'Squall'
p344
sba(isaltybot
Fighter
p345
(dp346
g4
I0
sg5
S'Reptile mk2 (-2) - $204,502'
p347
sg7
I0
sg8
I1
sg9
F1.4318261380981054
sg10
F0
sg11
S'Reptile mk2'
p348
sba(isaltybot
Fighter
p349
(dp350
g4
I0
sg5
S'Akiha (4) - $142,826\r\n'
p351
sg7
I1
sg8
I1
sg9
F0.65386948905310038
sg10
F0
sg11
S'Akiha'
p352
sba(isaltybot
Fighter
p353
(dp354
g4
I0
sg5
S'Shadow kouma (2) - $50,106'
p355
sg7
I0
sg8
I1
sg9
F0.19813906035597489
sg10
F0
sg11
S'Shadow kouma'
p356
sba(isaltybot
Fighter
p357
(dp358
g4
I0
sg5
S'Captain agent (2) - $252,883\r\n'
p359
sg7
I2
sg8
I1
sg9
F3.2615612193804293
sg10
F0
sg11
S'Captain agent'
p360
sba(isaltybot
Fighter
p361
(dp362
g4
I0
sg5
S'Godmars- $310,707'
p363
sg7
I1
sg8
I0
sg9
F0.67232660444846437
sg10
F0
sg11
S'Godmars'
p364
sba(isaltybot
Fighter
p365
(dp366
g4
I0
sg5
S'Albion- $462,137\r\n'
p367
sg7
I0
sg8
I1
sg9
F1.4873723475814835
sg10
F0
sg11
S'Albion'
p368
sba(isaltybot
Fighter
p369
(dp370
g4
I0
sg5
S'Stupid little drill tank- $248,516'
p371
sg7
I1
sg8
I0
sg9
F1.1766521784419004
sg10
F0
sg11
S'Stupid little drill tank'
p372
sba(isaltybot
Fighter
p373
(dp374
g4
I0
sg5
S'Koopa clown car- $211,206\r\n'
p375
sg7
I0
sg8
I1
sg9
F0.8498688213233756
sg10
F0
sg11
S'Koopa clown car'
p376
sba(isaltybot
Fighter
p377
(dp378
g4
I0
sg5
S'Son of sun- $94,766'
p379
sg7
I0
sg8
I1
sg9
F0.016744218919097997
sg10
F0
sg11
S'Son of sun'
p380
sba(isaltybot
Fighter
p381
(dp382
g4
I0
sg5
S'Rare akuma- $5,659,625\r\n'
p383
sg7
I1
sg8
I0
sg9
F59.72210497435789
sg10
F0
sg11
S'Rare akuma'
p384
sba(isaltybot
Fighter
p385
(dp386
g4
I0
sg5
S'Pikkon (1) - $79,536'
p387
sg7
I0
sg8
I1
sg9
F0.37506366122795437
sg10
F0
sg11
S'Pikkon'
p388
sba(isaltybot
Fighter
p389
(dp390
g4
I0
sg5
S'Freedom gundam (2) - $212,060\r\n'
p391
sg7
I1
sg8
I0
sg9
F2.6662140414403539
sg10
F0
sg11
S'Freedom gundam'
p392
sba(isaltybot
Fighter
p393
(dp394
g4
I0
sg5
S'Marcia (-1) - $119,076'
p395
sg7
I0
sg8
I1
sg9
F0.71894509316170163
sg10
F0
sg11
S'Marcia'
p396
sba(isaltybot
Fighter
p397
(dp398
g4
I0
sg5
S'Yunfei (-2) - $76,482'
p399
sg7
I0
sg8
I1
sg9
F0.078379408726449898
sg10
F0
sg11
S'Yunfei'
p400
sba(isaltybot
Fighter
p401
(dp402
g4
I0
sg5
S'Filea EX3 (2) - $975,792\r\n'
p403
sg7
I1
sg8
I0
sg9
F12.758452969326116
sg10
F0
sg11
S'Filea EX3'
p404
sba(isaltybot
Fighter
p405
(dp406
g4
I0
sg5
S'Yukari Tanizaki (-3) - $75,805'
p407
sg7
I0
sg8
I1
sg9
F0.13204927656401877
sg10
F0
sg11
S'Yukari Tanizaki'
p408
sba(isaltybot
Fighter
p409
(dp410
g4
I0
sg5
S'Yuiran (-2) - $574,066\r\n'
p411
sg7
I1
sg8
I0
sg9
F7.5729305454785303
sg10
F0
sg11
S'Yuiran'
p412
sba(isaltybot
Fighter
p413
(dp414
g4
I0
sg5
S'Dragon_warrior(dnf) +q (-2) - $66,006'
p415
sg7
I0
sg8
I1
sg9
F0.022736988304949704
sg10
F0
sg11
S'Dragon_warrior(dnf) +q'
p416
sba(isaltybot
Fighter
p417
(dp418
g4
I0
sg5
S'Spidermanu (1) - $2,903,023\r\n'
p419
sg7
I1
sg8
I0
sg9
F43.98119867890798
sg10
F0
sg11
S'Spidermanu'
p420
sba(isaltybot
Fighter
p421
(dp422
g4
I0
sg5
S'Hakurou (1) - $234,058'
p423
sg7
I1
sg8
I0
sg9
F0.78425577826474469
sg10
F0
sg11
S'Hakurou'
p424
sba(isaltybot
Fighter
p425
(dp426
g4
I0
sg5
S'Pocket Akuma (-1) - $298,446\r\n'
p427
sg7
I0
sg8
I1
sg9
F1.275094207418674
sg10
F0
sg11
S'Pocket Akuma'
p428
sba(isaltybot
Fighter
p429
(dp430
g4
I0
sg5
S'Original the character (9) - $28,313'
p431
sg7
I1
sg8
I0
sg9
F0.27073312997829391
sS'tier'
p432
S'S'
sg10
F0
sg11
S'Original the character'
p433
sba(isaltybot
Fighter
p434
(dp435
g4
I0
sg5
S'Uroboros (3) - $104,579\r\n'
p436
sg7
I0
sg8
I1
sg9
F3.693674283897856
sg432
S'S'
sg10
F0
sg11
S'Uroboros'
p437
sba(isaltybot
Fighter
p438
(dp439
g4
I0
sg5
S'Kyosuke shigure (1) - $298,239'
p440
sg7
I0
sg8
I1
sg9
F1.0046588244805563
sg432
S'A'
sg10
F0
sg11
S'Kyosuke shigure'
p441
sba(isaltybot
Fighter
p442
(dp443
g4
I0
sg5
S'Kill bill uma-ex (4) - $296,856\r\n'
p444
sg7
I1
sg8
I0
sg9
F0.99536277951575747
sg432
S'A'
sg10
F0
sg11
S'Kill bill uma-ex'
p445
sba(isaltybot
Fighter
p446
(dp447
g4
I0
sg5
S'A-agito (-1) - $514,810'
p448
sg7
I1
sg8
I0
sg9
F1.307546949370368
sg432
S'S'
sg10
F0
sg11
S'A-agito'
p449
sba(isaltybot
Fighter
p450
(dp451
g4
I0
sg5
S'D4?roll? (-1) - $393,722\r\n'
p452
sg7
I0
sg8
I1
sg9
F0.76479089372778308
sg432
S'S'
sg10
F0
sg11
S'D4?roll?'
p453
sba(isaltybot
Fighter
p454
(dp455
g4
I0
sg5
S'Chinese gouki (-4) - $261,041'
p456
sg7
I0
sg8
I1
sg9
F0.59744079170214126
sg432
S'S'
sg10
F0
sg11
S'Chinese gouki'
p457
sba(isaltybot
Fighter
p458
(dp459
g4
I0
sg5
S'Triceratops (1) - $436,932\r\n'
p460
sg7
I1
sg8
I0
sg9
F1.6738060304703093
sg432
S'S'
sg10
F0
sg11
S'Triceratops'
p461
sba.