(lp1
(isaltybot
Fighter
p2
(dp3
S'streak'
p4
I0
sS'string'
p5
S'Miyazato erika EX (4) - $541,440, '
p6
sS'avg_value'
p7
I0
sS'wins'
p8
I0
sS'loses'
p9
I1
sS'wlRatio'
p10
I0
sS'name'
p11
S'Miyazato erika EX'
p12
sba(isaltybot
Fighter
p13
(dp14
g4
I0
sg5
S'Andy_ff3rb (1) - $754,992\r\n'
p15
sg7
I0
sg8
I1
sg9
I0
sg10
I0
sg11
S'Andy_ff3rb'
p16
sba(isaltybot
Fighter
p17
(dp18
g4
I0
sg5
S'Kotiya sanae (2) - $84,966, '
p19
sg7
I0
sg8
I0
sg9
I1
sg10
I0
sg11
S'Kotiya sanae'
p20
sba(isaltybot
Fighter
p21
(dp22
g4
I0
sg5
S'Labyrinth (4) - $1,785,027\r\n'
p23
sg7
I0
sg8
I1
sg9
I0
sg10
I0
sg11
S'Labyrinth'
p24
sba(isaltybot
Fighter
p25
(dp26
g4
I0
sg5
S'Wang-fu (1) - $1,249,496, '
p27
sg7
I0
sg8
I0
sg9
I1
sg10
I0
sg11
S'Wang-fu'
p28
sba(isaltybot
Fighter
p29
(dp30
g4
I0
sg5
S'Gaogaigar (-2) - $1,375,166\r\n'
p31
sg7
I0
sg8
I1
sg9
I0
sg10
I0
sg11
S'Gaogaigar'
p32
sba(isaltybot
Fighter
p33
(dp34
g4
I0
sg5
S'Maxima EX3 (4) - $301,121, '
p35
sg7
I0
sg8
I1
sg9
I0
sg10
I0
sg11
S'Maxima EX3'
p36
sba(isaltybot
Fighter
p37
(dp38
g4
I0
sg5
S'Boring sdk shiina yuya (-2) - $199,425\r\n'
p39
sg7
I0
sg8
I0
sg9
I1
sg10
I0
sg11
S'Boring sdk shiina yuya'
p40
sba(isaltybot
Fighter
p41
(dp42
g4
I0
sg5
S'Kagami (1) - $121,528, '
p43
sg7
I0
sg8
I0
sg9
I1
sg10
I0
sg11
S'Kagami'
p44
sba(isaltybot
Fighter
p45
(dp46
g4
I0
sg5
S'Epyon (1) - $387,309\r\n'
p47
sg7
I0
sg8
I1
sg9
I0
sg10
I0
sg11
S'Epyon'
p48
sba(isaltybot
Fighter
p49
(dp50
g4
I0
sg5
S'Griffon (2) - $256,024, '
p51
sg7
I0
sg8
I0
sg9
I1
sg10
I0
sg11
S'Griffon'
p52
sba(isaltybot
Fighter
p53
(dp54
g4
I0
sg5
S'Reika (1) - $44,565\r\n'
p55
sg7
I0
sg8
I1
sg9
I0
sg10
I0
sg11
S'Reika'
p56
sba(isaltybot
Fighter
p57
(dp58
g4
I0
sg5
S'Cius (-1) - $342,132, '
p59
sg7
I0
sg8
I0
sg9
I1
sg10
I0
sg11
S'Cius'
p60
sba(isaltybot
Fighter
p61
(dp62
g4
I0
sg5
S'Dragon EX3 (-2) - $270,872\r\n'
p63
sg7
I0
sg8
I1
sg9
I0
sg10
I0
sg11
S'Dragon EX3'
p64
sba(isaltybot
Fighter
p65
(dp66
g4
I0
sg5
S'Otane oume (2) - $156,604, '
p67
sg7
I0
sg8
I1
sg9
I0
sg10
I0
sg11
S'Otane oume'
p68
sba(isaltybot
Fighter
p69
(dp70
g4
I0
sg5
S'Goku gt (2) - $245,940\r\n'
p71
sg7
I0
sg8
I0
sg9
I1
sg10
I0
sg11
S'Goku gt'
p72
sba(isaltybot
Fighter
p73
(dp74
g4
I0
sg5
S'Shotoborg mk. ii (1) - $173,786, '
p75
sg7
I0
sg8
I0
sg9
I1
sg10
I0
sg11
S'Shotoborg mk. ii'
p76
sba(isaltybot
Fighter
p77
(dp78
g4
I0
sg5
S'Nanaya toki (8) - $463,264\r\n'
p79
sg7
I0
sg8
I1
sg9
I0
sg10
I0
sg11
S'Nanaya toki'
p80
sba(isaltybot
Fighter
p81
(dp82
g4
I0
sg5
S'Mystia EX (-3) - $69,372, '
p83
sg7
I0
sg8
I0
sg9
I1
sg10
I0
sg11
S'Mystia EX'
p84
sba(isaltybot
Fighter
p85
(dp86
g4
I0
sg5
S'Genteki dan (3) - $161,912\r\n'
p87
sg7
I0
sg8
I1
sg9
I0
sg10
I0
sg11
S'Genteki dan'
p88
sba(isaltybot
Fighter
p89
(dp90
g4
I0
sg5
S'Dark eternal champion (4) - $187,988, '
p91
sg7
I0
sg8
I1
sg9
I0
sg10
I0
sg11
S'Dark eternal champion'
p92
sba(isaltybot
Fighter
p93
(dp94
g4
I0
sg5
S'Asuras (6) - $206,321\r\n'
p95
sg7
I0
sg8
I0
sg9
I1
sg10
I0
sg11
S'Asuras'
p96
sba(isaltybot
Fighter
p97
(dp98
g4
I0
sg5
S'Shiratama20 (3) - $178,349'
p99
sg7
I0
sg8
I0
sg9
I1
sg10
I0
sg11
S'Shiratama20 vs '
p100
sba(isaltybot
Fighter
p101
(dp102
g4
I0
sg5
S'Bloodia (1) - $328,408\r\n'
p103
sg7
I0
sg8
I1
sg9
I0
sg10
I0
sg11
S'Bloodia'
p104
sba(isaltybot
Fighter
p105
(dp106
g4
I0
sg5
S'Cola (2) - $166,307'
p107
sg7
I0
sg8
I0
sg9
I1
sg10
I0
sg11
S'Cola vs '
p108
sba(isaltybot
Fighter
p109
(dp110
g4
I0
sg5
S'Rb2_geese (-1) - $322,986\r\n'
p111
sg7
I0
sg8
I1
sg9
I0
sg10
I0
sg11
S'Rb2_geese'
p112
sba(isaltybot
Fighter
p113
(dp114
g4
I0
sg5
S'Kongara (2) - $104,520'
p115
sg7
I0
sg8
I0
sg9
I1
sg10
I0
sg11
S'Kongara vs '
p116
sba(isaltybot
Fighter
p117
(dp118
g4
I0
sg5
S'D4?roll? (5) - $990,888\r\n'
p119
sg7
I0
sg8
I1
sg9
I0
sg10
I0
sg11
S'D4?roll?'
p120
sba(isaltybot
Fighter
p121
(dp122
g4
I0
sg5
S'Light yagami (2) - $563,933'
p123
sg7
I0
sg8
I0
sg9
I0
sg10
I0
sg11
S'Light yagami vs '
p124
sba(isaltybot
Fighter
p125
(dp126
g4
I0
sg5
S'Ana (1) - $108,426\r\n'
p127
sg7
I0
sg8
I0
sg9
I0
sg10
I0
sg11
S'Ana'
p128
sba(isaltybot
Fighter
p129
(dp130
g4
I0
sg5
S'Kungfumithra (-3) - $506,477'
p131
sg7
I0
sg8
I0
sg9
I0
sg10
I0
sg11
S'Kungfumithra vs '
p132
sba(isaltybot
Fighter
p133
(dp134
g4
I0
sg5
S'Devilch (1) - $75,767\r\n'
p135
sg7
I0
sg8
I0
sg9
I0
sg10
I0
sg11
S'Devilch'
p136
sba(isaltybot
Fighter
p137
(dp138
g4
I0
sg5
S'Michael_roa_valdamjong (-2) - $52,236'
p139
sg7
I0
sg8
I0
sg9
I1
sg10
I0
sg11
S'Michael_roa_valdamjong vs '
p140
sba(isaltybot
Fighter
p141
(dp142
g4
I0
sg5
S'Videl fight money (4) - $899,085\r\n'
p143
sg7
I0
sg8
I1
sg9
I0
sg10
I0
sg11
S'Videl fight money'
p144
sba(isaltybot
Fighter
p145
(dp146
g4
I0
sg5
S'Kathumi orochi (1) - $134,783'
p147
sg7
I0
sg8
I0
sg9
I1
sg10
I0
sg11
S'Kathumi orochi'
p148
sba(isaltybot
Fighter
p149
(dp150
g4
I0
sg5
S'Mokou fujiwara EX3 (1) - $240,062\r\n'
p151
sg7
I0
sg8
I1
sg9
I0
sg10
I0
sg11
S'Mokou fujiwara EX3'
p152
sba(isaltybot
Fighter
p153
(dp154
g4
I0
sg5
S'Silkheart (2) - $215,093'
p155
sg7
I0
sg8
I0
sg9
I1
sg10
I0
sg11
S'Silkheart'
p156
sba(isaltybot
Fighter
p157
(dp158
g4
I0
sg5
S'Deidara nzc (-1) - $159,214\r\n'
p159
sg7
I0
sg8
I1
sg9
I0
sg10
I0
sg11
S'Deidara nzc'
p160
sba(isaltybot
Fighter
p161
(dp162
g4
I0
sg5
S'Assassin (-7) - $123,912'
p163
sg7
I0
sg8
I0
sg9
I1
sg10
I0
sg11
S'Assassin'
p164
sba(isaltybot
Fighter
p165
(dp166
g4
I0
sg5
S'Jamm (-2) - $612,167\r\n'
p167
sg7
I0
sg8
I1
sg9
I0
sg10
I0
sg11
S'Jamm'
p168
sba(isaltybot
Fighter
p169
(dp170
g4
I0
sg5
S'Bebum ryo (-2) - $280,636'
p171
sg7
I0
sg8
I1
sg9
I0
sg10
I0
sg11
S'Bebum ryo'
p172
sba(isaltybot
Fighter
p173
(dp174
g4
I0
sg5
S'Masta gambit (1) - $586,418\r\n'
p175
sg7
I0
sg8
I0
sg9
I1
sg10
I0
sg11
S'Masta gambit'
p176
sba(isaltybot
Fighter
p177
(dp178
g4
I0
sg5
S'Pepe EX3 (-1) - $92,632'
p179
sg7
I0
sg8
I0
sg9
I1
sg10
I0
sg11
S'Pepe EX3'
p180
sba(isaltybot
Fighter
p181
(dp182
g4
I0
sg5
S'Daimon EX2 (14) - $718,018\r\n'
p183
sg7
I0
sg8
I1
sg9
I0
sg10
I0
sg11
S'Daimon EX2'
p184
sba(isaltybot
Fighter
p185
(dp186
g4
I0
sg5
S'K.m.mioh (-1) - $178,610'
p187
sg7
I0
sg8
I0
sg9
I1
sg10
I0
sg11
S'K.m.mioh'
p188
sba(isaltybot
Fighter
p189
(dp190
g4
I0
sg5
S'Diyaa man (1) - $682,867\r\n'
p191
sg7
I0
sg8
I1
sg9
I0
sg10
I0
sg11
S'Diyaa man'
p192
sba(isaltybot
Fighter
p193
(dp194
g4
I0
sg5
S'Shartel (4) - $134,130'
p195
sg7
I0
sg8
I0
sg9
I1
sg10
I0
sg11
S'Shartel'
p196
sba(isaltybot
Fighter
p197
(dp198
g4
I0
sg5
S'Blossom DG (-1) - $513,034\r\n'
p199
sg7
I0
sg8
I1
sg9
I0
sg10
I0
sg11
S'Blossom DG'
p200
sba(isaltybot
Fighter
p201
(dp202
g4
I0
sg5
S'Donaiya (-2) - $127,670'
p203
sg7
I0
sg8
I0
sg9
I1
sg10
I0
sg11
S'Donaiya'
p204
sba(isaltybot
Fighter
p205
(dp206
g4
I0
sg5
S'Maximune (1) - $389,368\r\n'
p207
sg7
I0
sg8
I1
sg9
I0
sg10
I0
sg11
S'Maximune'
p208
sba(isaltybot
Fighter
p209
(dp210
g4
I0
sg5
S'Norimaro MVC3 (1) - $140,880'
p211
sg7
I0
sg8
I0
sg9
I1
sg10
I0
sg11
S'Norimaro MVC3'
p212
sba(isaltybot
Fighter
p213
(dp214
g4
I0
sg5
S'Yoshi EX2 (-1) - $428,382\r\n'
p215
sg7
I0
sg8
I1
sg9
I0
sg10
I0
sg11
S'Yoshi EX2'
p216
sba(isaltybot
Fighter
p217
(dp218
g4
I0
sg5
S'Mora_g (1) - $103,220'
p219
sg7
I0
sg8
I0
sg9
I1
sg10
I0
sg11
S'Mora_g'
p220
sba(isaltybot
Fighter
p221
(dp222
g4
I0
sg5
S'Zuepia (1) - $195,169\r\n'
p223
sg7
I0
sg8
I1
sg9
I0
sg10
I0
sg11
S'Zuepia'
p224
sba(isaltybot
Fighter
p225
(dp226
g4
I0
sg5
S'Irene (1) - $227,192'
p227
sg7
I0
sg8
I0
sg9
I1
sg10
I0
sg11
S'Irene'
p228
sba(isaltybot
Fighter
p229
(dp230
g4
I0
sg5
S'Mami (-1) - $415,298\r\n'
p231
sg7
I0
sg8
I1
sg9
I0
sg10
I0
sg11
S'Mami'
p232
sba(isaltybot
Fighter
p233
(dp234
g4
I0
sg5
S'Doragory (4) - $2,135,367'
p235
sg7
I0
sg8
I1
sg9
I0
sg10
I0
sg11
S'Doragory'
p236
sba(isaltybot
Fighter
p237
(dp238
g4
I0
sg5
S'Miffy (-4) - $21,517\r\n'
p239
sg7
I0
sg8
I0
sg9
I1
sg10
I0
sg11
S'Miffy'
p240
sba(isaltybot
Fighter
p241
(dp242
g4
I0
sg5
S'Michael (1) - $423,387'
p243
sg7
I0
sg8
I0
sg9
I1
sg10
I0
sg11
S'Michael'
p244
sba(isaltybot
Fighter
p245
(dp246
g4
I0
sg5
S'Toki hakurei (-2) - $162,250\r\n'
p247
sg7
I0
sg8
I1
sg9
I0
sg10
I0
sg11
S'Toki hakurei'
p248
sba(isaltybot
Fighter
p249
(dp250
g4
I0
sg5
S'Carol (-1) - $241,338'
p251
sg7
I0
sg8
I1
sg9
I0
sg10
I0
sg11
S'Carol'
p252
sba(isaltybot
Fighter
p253
(dp254
g4
I0
sg5
S'Grievous (-5) - $296,137\r\n'
p255
sg7
I0
sg8
I0
sg9
I1
sg10
I0
sg11
S'Grievous'
p256
sba(isaltybot
Fighter
p257
(dp258
g4
I0
sg5
S'Maraiah (-5) - $165,872'
p259
sg7
I0
sg8
I1
sg9
I0
sg10
I0
sg11
S'Maraiah'
p260
sba(isaltybot
Fighter
p261
(dp262
g4
I0
sg5
S'Athena x (-2) - $368,695\r\n'
p263
sg7
I0
sg8
I0
sg9
I1
sg10
I0
sg11
S'Athena x'
p264
sba(isaltybot
Fighter
p265
(dp266
g4
I0
sg5
S'Red skull (4) - $577,024'
p267
sg7
I0
sg8
I1
sg9
I0
sg10
I0
sg11
S'Red skull'
p268
sba(isaltybot
Fighter
p269
(dp270
g4
I0
sg5
S'Sub-zero (-2) - $234,629\r\n'
p271
sg7
I0
sg8
I0
sg9
I1
sg10
I0
sg11
S'Sub-zero'
p272
sba(isaltybot
Fighter
p273
(dp274
g4
I0
sg5
S'Mahvel chun li (-1) - $206,833'
p275
sg7
I0
sg8
I1
sg9
I0
sg10
I0
sg11
S'Mahvel chun li'
p276
sba(isaltybot
Fighter
p277
(dp278
g4
I0
sg5
S'Basilisk-s[0.98] (-2) - $418,582\r\n'
p279
sg7
I0
sg8
I0
sg9
I1
sg10
I0
sg11
S'Basilisk-s[0.98]'
p280
sba(isaltybot
Fighter
p281
(dp282
g4
I0
sg5
S'Cobra (1) - $1,404,243'
p283
sg7
I0
sg8
I1
sg9
I0
sg10
I0
sg11
S'Cobra'
p284
sba(isaltybot
Fighter
p285
(dp286
g4
I0
sg5
S'Peeking lord pirate (-6) - $72,576\r\n'
p287
sg7
I0
sg8
I1
sg9
I1
sg10
I0
sg11
S'Peeking lord pirate'
p288
sba(isaltybot
Fighter
p289
(dp290
g4
I0
sg5
S'Desteny remilia (-7) - $227,124'
p291
sg7
I0
sg8
I0
sg9
I1
sg10
I0
sg11
S'Desteny remilia'
p292
sba(isaltybot
Fighter
p293
(dp294
g4
I0
sg5
S'Master krauser (-2) - $296,925\r\n'
p295
sg7
I0
sg8
I1
sg9
I0
sg10
I0
sg11
S'Master krauser'
p296
sba(isaltybot
Fighter
p297
(dp298
g4
I0
sg5
S'Li xiangfei (-1) - $142,846'
p299
sg7
I0
sg8
I0
sg9
I1
sg10
I0
sg11
S'Li xiangfei'
p300
sba(isaltybot
Fighter
p301
(dp302
g4
I0
sg5
S'Hakolen-sbs EX3 (1) - $333,325\r\n'
p303
sg7
I0
sg8
I1
sg9
I0
sg10
I0
sg11
S'Hakolen-sbs EX3'
p304
sba(isaltybot
Fighter
p305
(dp306
g4
I0
sg5
S'Gaisei (-1) - $1,286,216'
p307
sg7
I0
sg8
I1
sg9
I0
sg10
I0
sg11
S'Gaisei'
p308
sba(isaltybot
Fighter
p309
(dp310
g4
I0
sg5
S'Reiji (-6) - $61,740\r\n'
p311
sg7
I0
sg8
I0
sg9
I2
sg10
I0
sg11
S'Reiji'
p312
sba(isaltybot
Fighter
p313
(dp314
g4
I0
sg5
S'Kana-chan dhq (1) - $276,513'
p315
sg7
I0
sg8
I1
sg9
I0
sg10
I0
sg11
S'Kana-chan dhq'
p316
sba(isaltybot
Fighter
p317
(dp318
g4
I0
sg5
S'Skaxl roa (-1) - $69,093\r\n'
p319
sg7
I0
sg8
I0
sg9
I1
sg10
I0
sg11
S'Skaxl roa'
p320
sba(isaltybot
Fighter
p321
(dp322
g4
I0
sg5
S'Cvs shiva (-3) - $493,518'
p323
sg7
I0
sg8
I0
sg9
I1
sg10
I0
sg11
S'Cvs shiva'
p324
sba(isaltybot
Fighter
p325
(dp326
g4
I0
sg5
S'Holy strider (1) - $537,287\r\n'
p327
sg7
I0
sg8
I1
sg9
I0
sg10
I0
sg11
S'Holy strider'
p328
sba(isaltybot
Fighter
p329
(dp330
g4
I0
sg5
S'Tom (-2) - $90,133'
p331
sg7
I0
sg8
I0
sg9
I1
sg10
I0
sg11
S'Tom'
p332
sba(isaltybot
Fighter
p333
(dp334
g4
I0
sg5
S'Sumo (-3) - $935,271\r\n'
p335
sg7
I0
sg8
I1
sg9
I0
sg10
I0
sg11
S'Sumo'
p336
sba(isaltybot
Fighter
p337
(dp338
g4
I0
sg5
S'Zerozuchi (4) - $106,524'
p339
sg7
I0
sg8
I1
sg9
I0
sg10
I0
sg11
S'Zerozuchi'
p340
sba(isaltybot
Fighter
p341
(dp342
g4
I0
sg5
S'Deathscythe (6) - $273,795\r\n'
p343
sg7
I0
sg8
I0
sg9
I1
sg10
I0
sg11
S'Deathscythe'
p344
sba(isaltybot
Fighter
p345
(dp346
g4
I0
sg5
S'Blue mary (-2) - $346,456'
p347
sg7
I0
sg8
I1
sg9
I0
sg10
I0
sg11
S'Blue mary'
p348
sba(isaltybot
Fighter
p349
(dp350
g4
I0
sg5
S'Elle (-3) - $118,495\r\n'
p351
sg7
I0
sg8
I0
sg9
I1
sg10
I0
sg11
S'Elle'
p352
sba(isaltybot
Fighter
p353
(dp354
g4
I0
sg5
S'Ubu (2) - $1,067,143'
p355
sg7
I0
sg8
I1
sg9
I0
sg10
I0
sg11
S'Ubu'
p356
sba(isaltybot
Fighter
p357
(dp358
g4
I0
sg5
S'Mimizuku_teacher (1) - $51,334\r\n'
p359
sg7
I0
sg8
I0
sg9
I1
sg10
I0
sg11
S'Mimizuku_teacher'
p360
sba(isaltybot
Fighter
p361
(dp362
g4
I0
sg5
S'Oro (-1) - $231,481'
p363
sg7
I0
sg8
I1
sg9
I0
sg10
I0
sg11
S'Oro'
p364
sba(isaltybot
Fighter
p365
(dp366
g4
I0
sg5
S'Firebrand (-5) - $54,176\r\n'
p367
sg7
I0
sg8
I0
sg9
I1
sg10
I0
sg11
S'Firebrand'
p368
sba(isaltybot
Fighter
p369
(dp370
g4
I0
sg5
S'Grant (-2) - $302,790'
p371
sg7
I0
sg8
I0
sg9
I1
sg10
I0
sg11
S'Grant'
p372
sba(isaltybot
Fighter
p373
(dp374
g4
I0
sg5
S'Akatsuki (-2) - $674,658\r\n'
p375
sg7
I0
sg8
I1
sg9
I0
sg10
I0
sg11
S'Akatsuki'
p376
sba(isaltybot
Fighter
p377
(dp378
g4
I0
sg5
S'Sonya (-1) - $127,943'
p379
sg7
I0
sg8
I0
sg9
I1
sg10
I0
sg11
S'Sonya'
p380
sba(isaltybot
Fighter
p381
(dp382
g4
I0
sg5
S'Kakyoin noriaki EX3 (1) - $359,169\r\n'
p383
sg7
I0
sg8
I1
sg9
I0
sg10
I0
sg11
S'Kakyoin noriaki EX3'
p384
sba(isaltybot
Fighter
p385
(dp386
g4
I0
sg5
S'Aoba EX2 (-1) - $316,744'
p387
sg7
I0
sg8
I1
sg9
I0
sg10
I0
sg11
S'Aoba EX2'
p388
sba(isaltybot
Fighter
p389
(dp390
g4
I0
sg5
S'Miles edgeworth (1) - $175,810\r\n'
p391
sg7
I0
sg8
I0
sg9
I1
sg10
I0
sg11
S'Miles edgeworth'
p392
sba(isaltybot
Fighter
p393
(dp394
g4
I0
sg5
S'Serika (1) - $176,031'
p395
sg7
I0
sg8
I0
sg9
I1
sg10
I0
sg11
S'Serika'
p396
sba(isaltybot
Fighter
p397
(dp398
g4
I0
sg5
S'Rindou (-1) - $332,712\r\n'
p399
sg7
I0
sg8
I1
sg9
I0
sg10
I0
sg11
S'Rindou'
p400
sba(isaltybot
Fighter
p401
(dp402
g4
I0
sg5
S'Washizuka b style- $166,880'
p403
sg7
I0
sg8
I0
sg9
I1
sg10
I0
sg11
S'Washizuka b style'
p404
sba(isaltybot
Fighter
p405
(dp406
g4
I0
sg5
S'Lafiras- $219,798\r\n'
p407
sg7
I0
sg8
I1
sg9
I0
sg10
I0
sg11
S'Lafiras'
p408
sba(isaltybot
Fighter
p409
(dp410
g4
I0
sg5
S'Guts- $312,941'
p411
sg7
I0
sg8
I1
sg9
I0
sg10
I0
sg11
S'Guts'
p412
sba(isaltybot
Fighter
p413
(dp414
g4
I0
sg5
S'Zodd- $184,505\r\n'
p415
sg7
I0
sg8
I0
sg9
I1
sg10
I0
sg11
S'Zodd'
p416
sba.