(lp1
(isaltybot
Fighter
p2
(dp3
S'streak'
p4
I0
sS'string'
p5
S'Miyazato erika EX (4) - $541,440, '
p6
sS'avg_value'
p7
I0
sS'wins'
p8
I0
sS'loses'
p9
I1
sS'wlRatio'
p10
I0
sS'name'
p11
S'Miyazato erika EX'
p12
sba(isaltybot
Fighter
p13
(dp14
g4
I0
sg5
S'Andy_ff3rb (1) - $754,992\r\n'
p15
sg7
I0
sg8
I1
sg9
I0
sg10
I0
sg11
S'Andy_ff3rb'
p16
sba(isaltybot
Fighter
p17
(dp18
g4
I0
sg5
S'Kotiya sanae (2) - $84,966, '
p19
sg7
I0
sg8
I0
sg9
I1
sg10
I0
sg11
S'Kotiya sanae'
p20
sba(isaltybot
Fighter
p21
(dp22
g4
I0
sg5
S'Labyrinth (4) - $1,785,027\r\n'
p23
sg7
I0
sg8
I1
sg9
I0
sg10
I0
sg11
S'Labyrinth'
p24
sba(isaltybot
Fighter
p25
(dp26
g4
I0
sg5
S'Wang-fu (1) - $1,249,496, '
p27
sg7
I0
sg8
I0
sg9
I1
sg10
I0
sg11
S'Wang-fu'
p28
sba(isaltybot
Fighter
p29
(dp30
g4
I0
sg5
S'Gaogaigar (-2) - $1,375,166\r\n'
p31
sg7
I0
sg8
I1
sg9
I0
sg10
I0
sg11
S'Gaogaigar'
p32
sba(isaltybot
Fighter
p33
(dp34
g4
I0
sg5
S'Maxima EX3 (4) - $301,121, '
p35
sg7
I0
sg8
I1
sg9
I0
sg10
I0
sg11
S'Maxima EX3'
p36
sba(isaltybot
Fighter
p37
(dp38
g4
I0
sg5
S'Boring sdk shiina yuya (-2) - $199,425\r\n'
p39
sg7
I0
sg8
I0
sg9
I1
sg10
I0
sg11
S'Boring sdk shiina yuya'
p40
sba(isaltybot
Fighter
p41
(dp42
g4
I0
sg5
S'Kagami (1) - $121,528, '
p43
sg7
I0
sg8
I0
sg9
I1
sg10
I0
sg11
S'Kagami'
p44
sba(isaltybot
Fighter
p45
(dp46
g4
I0
sg5
S'Epyon (1) - $387,309\r\n'
p47
sg7
I0
sg8
I1
sg9
I0
sg10
I0
sg11
S'Epyon'
p48
sba(isaltybot
Fighter
p49
(dp50
g4
I0
sg5
S'Griffon (2) - $256,024, '
p51
sg7
I0
sg8
I0
sg9
I1
sg10
I0
sg11
S'Griffon'
p52
sba(isaltybot
Fighter
p53
(dp54
g4
I0
sg5
S'Reika (1) - $44,565\r\n'
p55
sg7
I0
sg8
I1
sg9
I0
sg10
I0
sg11
S'Reika'
p56
sba(isaltybot
Fighter
p57
(dp58
g4
I0
sg5
S'Cius (-1) - $342,132, '
p59
sg7
I0
sg8
I0
sg9
I1
sg10
I0
sg11
S'Cius'
p60
sba(isaltybot
Fighter
p61
(dp62
g4
I0
sg5
S'Dragon EX3 (-2) - $270,872\r\n'
p63
sg7
I0
sg8
I1
sg9
I0
sg10
I0
sg11
S'Dragon EX3'
p64
sba(isaltybot
Fighter
p65
(dp66
g4
I0
sg5
S'Otane oume (2) - $156,604, '
p67
sg7
I0
sg8
I1
sg9
I0
sg10
I0
sg11
S'Otane oume'
p68
sba(isaltybot
Fighter
p69
(dp70
g4
I0
sg5
S'Goku gt (2) - $245,940\r\n'
p71
sg7
I0
sg8
I0
sg9
I1
sg10
I0
sg11
S'Goku gt'
p72
sba(isaltybot
Fighter
p73
(dp74
g4
I0
sg5
S'Shotoborg mk. ii (1) - $173,786, '
p75
sg7
I0
sg8
I0
sg9
I1
sg10
I0
sg11
S'Shotoborg mk. ii'
p76
sba(isaltybot
Fighter
p77
(dp78
g4
I0
sg5
S'Nanaya toki (8) - $463,264\r\n'
p79
sg7
I0
sg8
I1
sg9
I0
sg10
I0
sg11
S'Nanaya toki'
p80
sba(isaltybot
Fighter
p81
(dp82
g4
I0
sg5
S'Mystia EX (-3) - $69,372, '
p83
sg7
I0
sg8
I0
sg9
I1
sg10
I0
sg11
S'Mystia EX'
p84
sba(isaltybot
Fighter
p85
(dp86
g4
I0
sg5
S'Genteki dan (3) - $161,912\r\n'
p87
sg7
I0
sg8
I1
sg9
I0
sg10
I0
sg11
S'Genteki dan'
p88
sba(isaltybot
Fighter
p89
(dp90
g4
I0
sg5
S'Dark eternal champion (4) - $187,988, '
p91
sg7
I0
sg8
I1
sg9
I0
sg10
I0
sg11
S'Dark eternal champion'
p92
sba(isaltybot
Fighter
p93
(dp94
g4
I0
sg5
S'Asuras (6) - $206,321\r\n'
p95
sg7
I0
sg8
I0
sg9
I1
sg10
I0
sg11
S'Asuras'
p96
sba(isaltybot
Fighter
p97
(dp98
g4
I0
sg5
S'Shiratama20 (3) - $178,349'
p99
sg7
I0
sg8
I0
sg9
I1
sg10
I0
sg11
S'Shiratama20 vs '
p100
sba(isaltybot
Fighter
p101
(dp102
g4
I0
sg5
S'Bloodia (1) - $328,408\r\n'
p103
sg7
I0
sg8
I1
sg9
I0
sg10
I0
sg11
S'Bloodia'
p104
sba(isaltybot
Fighter
p105
(dp106
g4
I0
sg5
S'Cola (2) - $166,307'
p107
sg7
I0
sg8
I0
sg9
I1
sg10
I0
sg11
S'Cola vs '
p108
sba(isaltybot
Fighter
p109
(dp110
g4
I0
sg5
S'Rb2_geese (-1) - $322,986\r\n'
p111
sg7
I0
sg8
I1
sg9
I0
sg10
I0
sg11
S'Rb2_geese'
p112
sba(isaltybot
Fighter
p113
(dp114
g4
I0
sg5
S'Kongara (2) - $104,520'
p115
sg7
I0
sg8
I0
sg9
I1
sg10
I0
sg11
S'Kongara vs '
p116
sba(isaltybot
Fighter
p117
(dp118
g4
I0
sg5
S'D4?roll? (5) - $990,888\r\n'
p119
sg7
I0
sg8
I1
sg9
I0
sg10
I0
sg11
S'D4?roll?'
p120
sba(isaltybot
Fighter
p121
(dp122
g4
I0
sg5
S'Light yagami (2) - $563,933'
p123
sg7
I0
sg8
I0
sg9
I0
sg10
I0
sg11
S'Light yagami vs '
p124
sba(isaltybot
Fighter
p125
(dp126
g4
I0
sg5
S'Ana (1) - $108,426\r\n'
p127
sg7
I0
sg8
I0
sg9
I0
sg10
I0
sg11
S'Ana'
p128
sba(isaltybot
Fighter
p129
(dp130
g4
I0
sg5
S'Kungfumithra (-3) - $506,477'
p131
sg7
I0
sg8
I0
sg9
I0
sg10
I0
sg11
S'Kungfumithra vs '
p132
sba(isaltybot
Fighter
p133
(dp134
g4
I0
sg5
S'Devilch (1) - $75,767\r\n'
p135
sg7
I0
sg8
I0
sg9
I0
sg10
I0
sg11
S'Devilch'
p136
sba(isaltybot
Fighter
p137
(dp138
g4
I0
sg5
S'Michael_roa_valdamjong (-2) - $52,236'
p139
sg7
I0
sg8
I0
sg9
I1
sg10
I0
sg11
S'Michael_roa_valdamjong vs '
p140
sba(isaltybot
Fighter
p141
(dp142
g4
I0
sg5
S'Videl fight money (4) - $899,085\r\n'
p143
sg7
I0
sg8
I1
sg9
I0
sg10
I0
sg11
S'Videl fight money'
p144
sba(isaltybot
Fighter
p145
(dp146
g4
I0
sg5
S'Kathumi orochi (1) - $134,783'
p147
sg7
I0
sg8
I0
sg9
I1
sg10
I0
sg11
S'Kathumi orochi'
p148
sba(isaltybot
Fighter
p149
(dp150
g4
I0
sg5
S'Mokou fujiwara EX3 (1) - $240,062\r\n'
p151
sg7
I0
sg8
I1
sg9
I0
sg10
I0
sg11
S'Mokou fujiwara EX3'
p152
sba.